---
triple:          'arm64-apple-darwin'
binary-path:     '/Users/kdroscova/Library/Caches/org.carthage.CarthageKit/DerivedData/16.1_16B40/realm-cocoa/02860d17d793e0d4f9c08ed937002d80e09fdffd/Build/Products/Release-iphonesimulator/Realm.framework/Realm'
relocations:
  - { offset: 0x327EE, size: 0x8, addend: 0x0, symName: '-[NSError(RLMSync) rlmSync_errorActionToken]', symObjAddr: 0x0, symBinAddr: 0x3E1504, symSize: 0xB0 }
  - { offset: 0x32802, size: 0x8, addend: 0x0, symName: '-[NSError(RLMSync) rlmSync_errorActionToken]', symObjAddr: 0x0, symBinAddr: 0x3E1504, symSize: 0xB0 }
  - { offset: 0x32836, size: 0x8, addend: 0x0, symName: '-[NSError(RLMSync) rlmSync_clientResetBackedUpRealmPath]', symObjAddr: 0xB0, symBinAddr: 0x3E15B4, symSize: 0xB0 }
  - { offset: 0x328F9, size: 0x8, addend: 0x0, symName: ____Z28RLMReplaceSharedSchemaMethodP10objc_classP15RLMObjectSchema_block_invoke, symObjAddr: 0x170C, symBinAddr: 0x3E2D34, symSize: 0x88 }
  - { offset: 0x32924, size: 0x8, addend: 0x0, symName: __ZZZ28RLMReplaceSharedSchemaMethodP10objc_classP15RLMObjectSchemaEUb_E19accessorClassPrefix, symObjAddr: 0x148CE, symBinAddr: 0x59AA7E, symSize: 0x0 }
  - { offset: 0x37124, size: 0x8, addend: 0x0, symName: __ZN5realm4util6formatIJNS_10StringDataERKNSt3__112basic_stringIcNS3_11char_traitsIcEENS3_9allocatorIcEEEEEEES9_PKcDpOT_, symObjAddr: 0x128F8, symBinAddr: 0x3F2B78, symSize: 0x98 }
  - { offset: 0x37445, size: 0x8, addend: 0x0, symName: __ZNSt3__110unique_ptrI21RLMObservationTrackerNS_14default_deleteIS1_EEE5resetB8ne180100EPS1_, symObjAddr: 0x127CC, symBinAddr: 0x3F2AF0, symSize: 0x2C }
  - { offset: 0x40D0B, size: 0x8, addend: 0x0, symName: __ZN5realm5_impl17assign_collectionIRU8__strongP11objc_object18RLMAccessorContextEEvRT0_RNS_12object_store10CollectionERKNS_11PathElementENS_14CollectionTypeEOT_NS_12CreatePolicyE, symObjAddr: 0xB298, symBinAddr: 0x3EC3D0, symSize: 0xD0 }
  - { offset: 0xD1998, size: 0x8, addend: 0x0, symName: __ZNSt3__1eqB8ne180100IN5realm4UUIDES2_EENS_9enable_ifIX16is_convertible_vIDTeqclsr3stdE7declvalIRKT_EEclsr3stdE7declvalIRKT0_EEEbEEbE4typeERKNS_8optionalIS4_EERKNSD_IS7_EE, symObjAddr: 0xE354, symBinAddr: 0x3EE7F0, symSize: 0x48 }
  - { offset: 0xD19DA, size: 0x8, addend: 0x0, symName: __ZNSt3__1eqB8ne180100IN5realm4UUIDES2_EENS_9enable_ifIX16is_convertible_vIDTeqclsr3stdE7declvalIRKT_EEclsr3stdE7declvalIRKT0_EEEbEEbE4typeERKNS_8optionalIS4_EERKNSD_IS7_EE, symObjAddr: 0xE354, symBinAddr: 0x3EE7F0, symSize: 0x48 }
  - { offset: 0xD19F8, size: 0x8, addend: 0x0, symName: __ZNSt3__1eqB8ne180100IN5realm4UUIDES2_EENS_9enable_ifIX16is_convertible_vIDTeqclsr3stdE7declvalIRKT_EEclsr3stdE7declvalIRKT0_EEEbEEbE4typeERKNS_8optionalIS4_EERKNSD_IS7_EE, symObjAddr: 0xE354, symBinAddr: 0x3EE7F0, symSize: 0x48 }
  - { offset: 0xD1B7C, size: 0x8, addend: 0x0, symName: __ZNSt3__1eqB8ne180100IN5realm8ObjectIdES2_EENS_9enable_ifIX16is_convertible_vIDTeqclsr3stdE7declvalIRKT_EEclsr3stdE7declvalIRKT0_EEEbEEbE4typeERKNS_8optionalIS4_EERKNSD_IS7_EE, symObjAddr: 0xE304, symBinAddr: 0x3EE7A0, symSize: 0x50 }
  - { offset: 0xD1BBE, size: 0x8, addend: 0x0, symName: __ZNSt3__1eqB8ne180100IN5realm8ObjectIdES2_EENS_9enable_ifIX16is_convertible_vIDTeqclsr3stdE7declvalIRKT_EEclsr3stdE7declvalIRKT0_EEEbEEbE4typeERKNS_8optionalIS4_EERKNSD_IS7_EE, symObjAddr: 0xE304, symBinAddr: 0x3EE7A0, symSize: 0x50 }
  - { offset: 0xD1BDC, size: 0x8, addend: 0x0, symName: __ZNSt3__1eqB8ne180100IN5realm8ObjectIdES2_EENS_9enable_ifIX16is_convertible_vIDTeqclsr3stdE7declvalIRKT_EEclsr3stdE7declvalIRKT0_EEEbEEbE4typeERKNS_8optionalIS4_EERKNSD_IS7_EE, symObjAddr: 0xE304, symBinAddr: 0x3EE7A0, symSize: 0x50 }
  - { offset: 0xD2345, size: 0x8, addend: 0x0, symName: __ZNSt3__120__throw_length_errorB8ne180100EPKc, symObjAddr: 0xD3A0, symBinAddr: 0x3EE4D8, symSize: 0x50 }
  - { offset: 0xE2A50, size: 0x8, addend: 0x0, symName: __ZN12_GLOBAL__N_18superGetEP13RLMObjectBaseP8NSString, symObjAddr: 0xF954, symBinAddr: 0x3EFDF0, symSize: 0xC8 }
  - { offset: 0xE2AE6, size: 0x8, addend: 0x0, symName: __ZN12_GLOBAL__N_18superSetEP13RLMObjectBaseP8NSStringP11objc_object, symObjAddr: 0xFA1C, symBinAddr: 0x3EFEB8, symSize: 0xD8 }
  - { offset: 0xE2B87, size: 0x8, addend: 0x0, symName: __ZN12_GLOBAL__N_119createAccessorClassEP10objc_classP15RLMObjectSchemaPKcPFP11objc_objectP11RLMPropertyS5_ESB_, symObjAddr: 0xF0, symBinAddr: 0x3E1718, symSize: 0x270 }
  - { offset: 0xE2C7B, size: 0x8, addend: 0x0, symName: __ZN12_GLOBAL__N_19addMethodEP10objc_classP11RLMPropertyPFP11objc_objectS3_PKcES9_, symObjAddr: 0x7D20, symBinAddr: 0x3E91A0, symSize: 0x144 }
  - { offset: 0xE330E, size: 0x8, addend: 0x0, symName: __ZN12_GLOBAL__N_113managedGetterEP11RLMPropertyPKc, symObjAddr: 0x360, symBinAddr: 0x3E1988, symSize: 0x52C }
  - { offset: 0xE36BC, size: 0x8, addend: 0x0, symName: __ZN12_GLOBAL__N_110makeGetterIsxEEP11objc_objectm, symObjAddr: 0x7EC4, symBinAddr: 0x3E9344, symSize: 0x50 }
  - { offset: 0xE36FF, size: 0x8, addend: 0x0, symName: __ZN12_GLOBAL__N_110makeGetterIixEEP11objc_objectm, symObjAddr: 0x7F14, symBinAddr: 0x3E9394, symSize: 0x50 }
  - { offset: 0xE3742, size: 0x8, addend: 0x0, symName: __ZN12_GLOBAL__N_110makeGetterIlxEEP11objc_objectm, symObjAddr: 0x7F64, symBinAddr: 0x3E93E4, symSize: 0x50 }
  - { offset: 0xE3786, size: 0x8, addend: 0x0, symName: __ZN12_GLOBAL__N_110makeGetterIxxEEP11objc_objectm, symObjAddr: 0x7FB4, symBinAddr: 0x3E9434, symSize: 0x50 }
  - { offset: 0xE37A4, size: 0x8, addend: 0x0, symName: __ZN12_GLOBAL__N_110makeGetterIcxEEP11objc_objectm, symObjAddr: 0x7E74, symBinAddr: 0x3E92F4, symSize: 0x50 }
  - { offset: 0xE3BF7, size: 0x8, addend: 0x0, symName: __ZN12_GLOBAL__N_113managedSetterEP11RLMPropertyPKc, symObjAddr: 0x88C, symBinAddr: 0x3E1EB4, symSize: 0x664 }
  - { offset: 0xE3E32, size: 0x8, addend: 0x0, symName: __ZN12_GLOBAL__N_110makeSetterIsxEEP11objc_objectP11RLMProperty, symObjAddr: 0x9344, symBinAddr: 0x3EA500, symSize: 0x78 }
  - { offset: 0xE3E85, size: 0x8, addend: 0x0, symName: __ZN12_GLOBAL__N_110makeSetterIixEEP11objc_objectP11RLMProperty, symObjAddr: 0x93BC, symBinAddr: 0x3EA578, symSize: 0x78 }
  - { offset: 0xE3ED8, size: 0x8, addend: 0x0, symName: __ZN12_GLOBAL__N_110makeSetterIlxEEP11objc_objectP11RLMProperty, symObjAddr: 0x9434, symBinAddr: 0x3EA5F0, symSize: 0x78 }
  - { offset: 0xE3F2B, size: 0x8, addend: 0x0, symName: __ZN12_GLOBAL__N_110makeSetterIxxEEP11objc_objectP11RLMProperty, symObjAddr: 0x94AC, symBinAddr: 0x3EA668, symSize: 0x78 }
  - { offset: 0xE3F7E, size: 0x8, addend: 0x0, symName: __ZN12_GLOBAL__N_110makeSetterIcxEEP11objc_objectP11RLMProperty, symObjAddr: 0x92CC, symBinAddr: 0x3EA488, symSize: 0x78 }
  - { offset: 0xE4011, size: 0x8, addend: 0x0, symName: __ZN12_GLOBAL__N_115unmanagedGetterEP11RLMPropertyPKc, symObjAddr: 0x11E4, symBinAddr: 0x3E280C, symSize: 0x204 }
  - { offset: 0xE40DD, size: 0x8, addend: 0x0, symName: __ZN12_GLOBAL__N_129RLMCollectionClassForPropertyEP11RLMPropertyb, symObjAddr: 0xF760, symBinAddr: 0x3EFBFC, symSize: 0x148 }
  - { offset: 0xE4139, size: 0x8, addend: 0x0, symName: __ZN12_GLOBAL__N_115unmanagedSetterEP11RLMPropertyPKc, symObjAddr: 0x13E8, symBinAddr: 0x3E2A10, symSize: 0xC8 }
  - { offset: 0xE4182, size: 0x8, addend: 0x0, symName: __ZN12_GLOBAL__N_111getPropertyEP13RLMObjectBaseP11RLMProperty, symObjAddr: 0xFE7C, symBinAddr: 0x3F0318, symSize: 0x6C }
  - { offset: 0xE41D5, size: 0x8, addend: 0x0, symName: __ZN12_GLOBAL__N_13getIbEET_P13RLMObjectBasem, symObjAddr: 0x1F60, symBinAddr: 0x3E3580, symSize: 0x78 }
  - { offset: 0xE433C, size: 0x8, addend: 0x0, symName: __ZN12_GLOBAL__N_111kvoSetValueIbbEEvP13RLMObjectBasemT_, symObjAddr: 0x20DC, symBinAddr: 0x3E36FC, symSize: 0xA8 }
  - { offset: 0xE4579, size: 0x8, addend: 0x0, symName: __ZN12_GLOBAL__N_110willChangeER21RLMObservationTrackerP13RLMObjectBasem, symObjAddr: 0x9FBC, symBinAddr: 0x3EB178, symSize: 0x150 }
  - { offset: 0xE474F, size: 0x8, addend: 0x0, symName: __ZN12_GLOBAL__N_13getIdEET_P13RLMObjectBasem, symObjAddr: 0x218C, symBinAddr: 0x3E37AC, symSize: 0x78 }
  - { offset: 0xE488C, size: 0x8, addend: 0x0, symName: __ZN12_GLOBAL__N_111kvoSetValueIddEEvP13RLMObjectBasemT_, symObjAddr: 0x230C, symBinAddr: 0x3E392C, symSize: 0xA8 }
  - { offset: 0xE4AC6, size: 0x8, addend: 0x0, symName: __ZN12_GLOBAL__N_13getIfEET_P13RLMObjectBasem, symObjAddr: 0x23BC, symBinAddr: 0x3E39DC, symSize: 0x78 }
  - { offset: 0xE4C03, size: 0x8, addend: 0x0, symName: __ZN12_GLOBAL__N_111kvoSetValueIffEEvP13RLMObjectBasemT_, symObjAddr: 0x253C, symBinAddr: 0x3E3B5C, symSize: 0xA8 }
  - { offset: 0xE4E3D, size: 0x8, addend: 0x0, symName: __ZN12_GLOBAL__N_13getIxEET_P13RLMObjectBasem, symObjAddr: 0x25EC, symBinAddr: 0x3E3C0C, symSize: 0x78 }
  - { offset: 0xE4F7A, size: 0x8, addend: 0x0, symName: __ZN12_GLOBAL__N_111kvoSetValueIxxEEvP13RLMObjectBasemT_, symObjAddr: 0x2764, symBinAddr: 0x3E3D84, symSize: 0xA8 }
  - { offset: 0xE51B3, size: 0x8, addend: 0x0, symName: __ZN12_GLOBAL__N_111kvoSetValueIU8__strongP8NSStringS3_EEvP13RLMObjectBasemT_, symObjAddr: 0x289C, symBinAddr: 0x3E3EBC, symSize: 0x140 }
  - { offset: 0xE54C6, size: 0x8, addend: 0x0, symName: __ZN12_GLOBAL__N_111kvoSetValueIU8__strongP6NSDateS3_EEvP13RLMObjectBasemT_, symObjAddr: 0x2A6C, symBinAddr: 0x3E408C, symSize: 0x140 }
  - { offset: 0xE57D9, size: 0x8, addend: 0x0, symName: __ZN12_GLOBAL__N_111kvoSetValueIU8__strongP6NSDataS3_EEvP13RLMObjectBasemT_, symObjAddr: 0x2C3C, symBinAddr: 0x3E425C, symSize: 0x140 }
  - { offset: 0xE5AEC, size: 0x8, addend: 0x0, symName: __ZN12_GLOBAL__N_111kvoSetValueIU8__strongP6NSUUIDS3_EEvP13RLMObjectBasemT_, symObjAddr: 0x2E0C, symBinAddr: 0x3E442C, symSize: 0x140 }
  - { offset: 0xE5E04, size: 0x8, addend: 0x0, symName: __ZN12_GLOBAL__N_111kvoSetValueIU8__strongP13RLMDecimal128S3_EEvP13RLMObjectBasemT_, symObjAddr: 0x2FDC, symBinAddr: 0x3E45FC, symSize: 0x140 }
  - { offset: 0xE6132, size: 0x8, addend: 0x0, symName: __ZN12_GLOBAL__N_111kvoSetValueIU8__strongP11RLMObjectIdS3_EEvP13RLMObjectBasemT_, symObjAddr: 0x31AC, symBinAddr: 0x3E47CC, symSize: 0x140 }
  - { offset: 0xE644A, size: 0x8, addend: 0x0, symName: __ZN12_GLOBAL__N_18getBoxedIN5realm10StringDataEEEP11objc_objectP13RLMObjectBasem, symObjAddr: 0x32F4, symBinAddr: 0x3E4914, symSize: 0xD0 }
  - { offset: 0xE65DE, size: 0x8, addend: 0x0, symName: __ZN12_GLOBAL__N_18getBoxedIN5realm10BinaryDataEEEP11objc_objectP13RLMObjectBasem, symObjAddr: 0x33CC, symBinAddr: 0x3E49EC, symSize: 0xD0 }
  - { offset: 0xE6772, size: 0x8, addend: 0x0, symName: __ZN12_GLOBAL__N_18getBoxedIN5realm9TimestampEEEP11objc_objectP13RLMObjectBasem, symObjAddr: 0x34A4, symBinAddr: 0x3E4AC4, symSize: 0xD4 }
  - { offset: 0xE6959, size: 0x8, addend: 0x0, symName: __ZN12_GLOBAL__N_18getBoxedINSt3__18optionalIN5realm4UUIDEEEEEP11objc_objectP13RLMObjectBasem, symObjAddr: 0x3580, symBinAddr: 0x3E4BA0, symSize: 0x124 }
  - { offset: 0xE6B75, size: 0x8, addend: 0x0, symName: __ZN12_GLOBAL__N_18getBoxedINSt3__18optionalIN5realm8ObjectIdEEEEEP11objc_objectP13RLMObjectBasem, symObjAddr: 0x36AC, symBinAddr: 0x3E4CCC, symSize: 0xD8 }
  - { offset: 0xE6D73, size: 0x8, addend: 0x0, symName: __ZN12_GLOBAL__N_18getBoxedIN5realm10Decimal128EEEP11objc_objectP13RLMObjectBasem, symObjAddr: 0x378C, symBinAddr: 0x3E4DAC, symSize: 0xE0 }
  - { offset: 0xE6F4E, size: 0x8, addend: 0x0, symName: __ZN12_GLOBAL__N_113getCollectionEP13RLMObjectBasem, symObjAddr: 0x3874, symBinAddr: 0x3E4E94, symSize: 0xE0 }
  - { offset: 0xE6FE1, size: 0x8, addend: 0x0, symName: __ZN12_GLOBAL__N_111kvoSetValueIU8__strongP13RLMObjectBaseS3_EEvS2_mT_, symObjAddr: 0x3A44, symBinAddr: 0x3E5064, symSize: 0x34C }
  - { offset: 0xE75F1, size: 0x8, addend: 0x0, symName: __ZN12_GLOBAL__N_111kvoSetValueIU8__strongPU16objcproto6RLMInt8NSNumberS4_EEvP13RLMObjectBasemT_, symObjAddr: 0x3D90, symBinAddr: 0x3E53B0, symSize: 0x13C }
  - { offset: 0xE7942, size: 0x8, addend: 0x0, symName: __ZN12_GLOBAL__N_18getBoxedIN5realm3ObjEEEP11objc_objectP13RLMObjectBasem, symObjAddr: 0x3EDC, symBinAddr: 0x3E54FC, symSize: 0xE8 }
  - { offset: 0xE7B8F, size: 0x8, addend: 0x0, symName: __ZN12_GLOBAL__N_111kvoSetValueIU8__strongPU18objcproto8RLMValue11objc_objectS3_EEvP13RLMObjectBasemT_, symObjAddr: 0x3FCC, symBinAddr: 0x3E55EC, symSize: 0x10D0 }
  - { offset: 0xEA5F7, size: 0x8, addend: 0x0, symName: __ZN12_GLOBAL__N_18getBoxedIN5realm5MixedEEEP11objc_objectP13RLMObjectBasem, symObjAddr: 0x50A4, symBinAddr: 0x3E66C4, symSize: 0xF0 }
  - { offset: 0xEBA8E, size: 0x8, addend: 0x0, symName: __ZNK5realm3Obj3getIS0_EET_NS_6ColKeyE, symObjAddr: 0x0, symBinAddr: 0x3E1664, symSize: 0x88 }
  - { offset: 0xEBC57, size: 0x8, addend: 0x0, symName: __Z37RLMManagedAccessorClassForObjectClassP10objc_classP15RLMObjectSchemaPKc, symObjAddr: 0xC4, symBinAddr: 0x3E16EC, symSize: 0x2C }
  - { offset: 0xEBD05, size: 0x8, addend: 0x0, symName: __Z37RLMManagedAccessorClassForObjectClassP10objc_classP15RLMObjectSchemaPKc, symObjAddr: 0xC4, symBinAddr: 0x3E16EC, symSize: 0x2C }
  - { offset: 0xEBE59, size: 0x8, addend: 0x0, symName: __Z39RLMUnmanagedAccessorClassForObjectClassP10objc_classP15RLMObjectSchema, symObjAddr: 0xEF0, symBinAddr: 0x3E2518, symSize: 0x2F4 }
  - { offset: 0xEBED8, size: 0x8, addend: 0x0, symName: __Z25RLMReplaceClassNameMethodP10objc_classP8NSString, symObjAddr: 0x14B0, symBinAddr: 0x3E2AD8, symSize: 0x104 }
  - { offset: 0xEBFB5, size: 0x8, addend: 0x0, symName: ____Z25RLMReplaceClassNameMethodP10objc_classP8NSString_block_invoke, symObjAddr: 0x15B4, symBinAddr: 0x3E2BDC, symSize: 0x8 }
  - { offset: 0xEBFFE, size: 0x8, addend: 0x0, symName: ___copy_helper_block_ea8_32s, symObjAddr: 0x15BC, symBinAddr: 0x3E2BE4, symSize: 0x8 }
  - { offset: 0xEC025, size: 0x8, addend: 0x0, symName: ___destroy_helper_block_ea8_32s, symObjAddr: 0x15C4, symBinAddr: 0x3E2BEC, symSize: 0x8 }
  - { offset: 0xEC044, size: 0x8, addend: 0x0, symName: __Z28RLMReplaceSharedSchemaMethodP10objc_classP15RLMObjectSchema, symObjAddr: 0x15CC, symBinAddr: 0x3E2BF4, symSize: 0x140 }
  - { offset: 0xEC17A, size: 0x8, addend: 0x0, symName: _RLMDynamicValidatedSet, symObjAddr: 0x1794, symBinAddr: 0x3E2DBC, symSize: 0x228 }
  - { offset: 0xEC272, size: 0x8, addend: 0x0, symName: __ZL14RLMCoerceToNilP11objc_object, symObjAddr: 0x1B68, symBinAddr: 0x3E3190, symSize: 0xBC }
  - { offset: 0xEC2DC, size: 0x8, addend: 0x0, symName: __Z13RLMDynamicSetP13RLMObjectBaseP11RLMPropertyP11objc_object, symObjAddr: 0x19BC, symBinAddr: 0x3E2FE4, symSize: 0x1AC }
  - { offset: 0xED634, size: 0x8, addend: 0x0, symName: __ZN5realm6Object18set_property_valueIU8__strongP11objc_object18RLMAccessorContextEEvRT0_NS_10StringDataET_NS_12CreatePolicyE, symObjAddr: 0xFDE0, symBinAddr: 0x3F027C, symSize: 0x9C }
  - { offset: 0xED6C9, size: 0x8, addend: 0x0, symName: __ZN18RLMAccessorContextD2Ev, symObjAddr: 0x5194, symBinAddr: 0x3E67B4, symSize: 0x3C }
  - { offset: 0xED7C6, size: 0x8, addend: 0x0, symName: __ZN18RLMAccessorContextC2EP13RLMObjectBasePKN5realm8PropertyE, symObjAddr: 0x5268, symBinAddr: 0x3E6884, symSize: 0xE0 }
  - { offset: 0xED889, size: 0x8, addend: 0x0, symName: _RLMDynamicGet, symObjAddr: 0x1C2C, symBinAddr: 0x3E324C, symSize: 0x250 }
  - { offset: 0xEDCCD, size: 0x8, addend: 0x0, symName: __ZNK5realm6Object23get_property_value_implIU8__strongP11objc_object18RLMAccessorContextEET_RT0_RKNS_8PropertyE, symObjAddr: 0x115EC, symBinAddr: 0x3F19E4, symSize: 0x714 }
  - { offset: 0xEEE02, size: 0x8, addend: 0x0, symName: _RLMDynamicGetByName, symObjAddr: 0x1E7C, symBinAddr: 0x3E349C, symSize: 0xDC }
  - { offset: 0xEEE6A, size: 0x8, addend: 0x0, symName: _RLMGetSwiftPropertyBool, symObjAddr: 0x1F58, symBinAddr: 0x3E3578, symSize: 0x8 }
  - { offset: 0xEEF15, size: 0x8, addend: 0x0, symName: _RLMGetSwiftPropertyBoolOptional, symObjAddr: 0x1FD8, symBinAddr: 0x3E35F8, symSize: 0x9C }
  - { offset: 0xEF051, size: 0x8, addend: 0x0, symName: _RLMSetSwiftPropertyBool, symObjAddr: 0x2074, symBinAddr: 0x3E3694, symSize: 0x68 }
  - { offset: 0xEF230, size: 0x8, addend: 0x0, symName: __ZL27RLMVerifyInWriteTransactionP13RLMObjectBase, symObjAddr: 0x39C8, symBinAddr: 0x3E4FE8, symSize: 0x7C }
  - { offset: 0xEF281, size: 0x8, addend: 0x0, symName: _RLMGetSwiftPropertyDouble, symObjAddr: 0x2184, symBinAddr: 0x3E37A4, symSize: 0x8 }
  - { offset: 0xEF333, size: 0x8, addend: 0x0, symName: _RLMGetSwiftPropertyDoubleOptional, symObjAddr: 0x2204, symBinAddr: 0x3E3824, symSize: 0xA0 }
  - { offset: 0xEF49B, size: 0x8, addend: 0x0, symName: _RLMSetSwiftPropertyDouble, symObjAddr: 0x22A4, symBinAddr: 0x3E38C4, symSize: 0x68 }
  - { offset: 0xEF518, size: 0x8, addend: 0x0, symName: _RLMGetSwiftPropertyFloat, symObjAddr: 0x23B4, symBinAddr: 0x3E39D4, symSize: 0x8 }
  - { offset: 0xEF5CA, size: 0x8, addend: 0x0, symName: _RLMGetSwiftPropertyFloatOptional, symObjAddr: 0x2434, symBinAddr: 0x3E3A54, symSize: 0xA0 }
  - { offset: 0xEF732, size: 0x8, addend: 0x0, symName: _RLMSetSwiftPropertyFloat, symObjAddr: 0x24D4, symBinAddr: 0x3E3AF4, symSize: 0x68 }
  - { offset: 0xEF7AF, size: 0x8, addend: 0x0, symName: _RLMGetSwiftPropertyInt64, symObjAddr: 0x25E4, symBinAddr: 0x3E3C04, symSize: 0x8 }
  - { offset: 0xEF861, size: 0x8, addend: 0x0, symName: _RLMGetSwiftPropertyInt64Optional, symObjAddr: 0x2664, symBinAddr: 0x3E3C84, symSize: 0x98 }
  - { offset: 0xEF9C9, size: 0x8, addend: 0x0, symName: _RLMSetSwiftPropertyInt64, symObjAddr: 0x26FC, symBinAddr: 0x3E3D1C, symSize: 0x68 }
  - { offset: 0xEFA46, size: 0x8, addend: 0x0, symName: _RLMSetSwiftPropertyString, symObjAddr: 0x280C, symBinAddr: 0x3E3E2C, symSize: 0x90 }
  - { offset: 0xEFB31, size: 0x8, addend: 0x0, symName: __ZN27RLMStatelessAccessorContext5unboxIN5realm10StringDataEEET_P11objc_object, symObjAddr: 0x5D6C, symBinAddr: 0x3E72EC, symSize: 0xE4 }
  - { offset: 0xEFBAE, size: 0x8, addend: 0x0, symName: _RLMSetSwiftPropertyDate, symObjAddr: 0x29DC, symBinAddr: 0x3E3FFC, symSize: 0x90 }
  - { offset: 0xEFC9E, size: 0x8, addend: 0x0, symName: __ZN27RLMStatelessAccessorContext5unboxIN5realm9TimestampEEET_P11objc_object, symObjAddr: 0x5930, symBinAddr: 0x3E6EB0, symSize: 0x1B0 }
  - { offset: 0xEFEF5, size: 0x8, addend: 0x0, symName: _RLMSetSwiftPropertyData, symObjAddr: 0x2BAC, symBinAddr: 0x3E41CC, symSize: 0x90 }
  - { offset: 0xEFFE5, size: 0x8, addend: 0x0, symName: __ZN27RLMStatelessAccessorContext5unboxIN5realm10BinaryDataEEET_P11objc_object, symObjAddr: 0x5C84, symBinAddr: 0x3E7204, symSize: 0xE8 }
  - { offset: 0xF0062, size: 0x8, addend: 0x0, symName: _RLMSetSwiftPropertyUUID, symObjAddr: 0x2D7C, symBinAddr: 0x3E439C, symSize: 0x90 }
  - { offset: 0xF0152, size: 0x8, addend: 0x0, symName: __ZN27RLMStatelessAccessorContext5unboxIN5realm4UUIDEEET_P11objc_object, symObjAddr: 0x5EF4, symBinAddr: 0x3E7470, symSize: 0xAC }
  - { offset: 0xF01A5, size: 0x8, addend: 0x0, symName: _RLMSetSwiftPropertyDecimal128, symObjAddr: 0x2F4C, symBinAddr: 0x3E456C, symSize: 0x90 }
  - { offset: 0xF02CA, size: 0x8, addend: 0x0, symName: _RLMSetSwiftPropertyObjectId, symObjAddr: 0x311C, symBinAddr: 0x3E473C, symSize: 0x90 }
  - { offset: 0xF03BA, size: 0x8, addend: 0x0, symName: __ZN27RLMStatelessAccessorContext5unboxIN5realm8ObjectIdEEET_P11objc_object, symObjAddr: 0x5E54, symBinAddr: 0x3E73D0, symSize: 0xA0 }
  - { offset: 0xF041E, size: 0x8, addend: 0x0, symName: _RLMGetSwiftPropertyString, symObjAddr: 0x32EC, symBinAddr: 0x3E490C, symSize: 0x8 }
  - { offset: 0xF0467, size: 0x8, addend: 0x0, symName: __ZN27RLMStatelessAccessorContext3boxEN5realm10StringDataE, symObjAddr: 0x11D28, symBinAddr: 0x3F2120, symSize: 0x58 }
  - { offset: 0xF04A8, size: 0x8, addend: 0x0, symName: _RLMGetSwiftPropertyData, symObjAddr: 0x33C4, symBinAddr: 0x3E49E4, symSize: 0x8 }
  - { offset: 0xF04F1, size: 0x8, addend: 0x0, symName: __ZN27RLMStatelessAccessorContext3boxEN5realm10BinaryDataE, symObjAddr: 0x11D80, symBinAddr: 0x3F2178, symSize: 0x48 }
  - { offset: 0xF0532, size: 0x8, addend: 0x0, symName: _RLMGetSwiftPropertyDate, symObjAddr: 0x349C, symBinAddr: 0x3E4ABC, symSize: 0x8 }
  - { offset: 0xF0596, size: 0x8, addend: 0x0, symName: __ZN27RLMStatelessAccessorContext3boxEN5realm9TimestampE, symObjAddr: 0x11DC8, symBinAddr: 0x3F21C0, symSize: 0x70 }
  - { offset: 0xF05F6, size: 0x8, addend: 0x0, symName: _RLMGetSwiftPropertyUUID, symObjAddr: 0x3578, symBinAddr: 0x3E4B98, symSize: 0x8 }
  - { offset: 0xF0675, size: 0x8, addend: 0x0, symName: __ZN27RLMStatelessAccessorContext3boxENSt3__18optionalIN5realm4UUIDEEE, symObjAddr: 0x11EE0, symBinAddr: 0x3F22D8, symSize: 0x54 }
  - { offset: 0xF06EC, size: 0x8, addend: 0x0, symName: _RLMGetSwiftPropertyObjectId, symObjAddr: 0x36A4, symBinAddr: 0x3E4CC4, symSize: 0x8 }
  - { offset: 0xF076B, size: 0x8, addend: 0x0, symName: __ZN27RLMStatelessAccessorContext3boxENSt3__18optionalIN5realm8ObjectIdEEE, symObjAddr: 0x11E38, symBinAddr: 0x3F2230, symSize: 0x40 }
  - { offset: 0xF07CA, size: 0x8, addend: 0x0, symName: _RLMGetSwiftPropertyDecimal128, symObjAddr: 0x3784, symBinAddr: 0x3E4DA4, symSize: 0x8 }
  - { offset: 0xF0813, size: 0x8, addend: 0x0, symName: __ZN27RLMStatelessAccessorContext3boxEN5realm10Decimal128E, symObjAddr: 0x11E78, symBinAddr: 0x3F2270, symSize: 0x68 }
  - { offset: 0xF084F, size: 0x8, addend: 0x0, symName: _RLMGetSwiftPropertyArray, symObjAddr: 0x386C, symBinAddr: 0x3E4E8C, symSize: 0x8 }
  - { offset: 0xF0898, size: 0x8, addend: 0x0, symName: _RLMGetSwiftPropertySet, symObjAddr: 0x3954, symBinAddr: 0x3E4F74, symSize: 0x8 }
  - { offset: 0xF08E1, size: 0x8, addend: 0x0, symName: _RLMGetSwiftPropertyMap, symObjAddr: 0x395C, symBinAddr: 0x3E4F7C, symSize: 0x8 }
  - { offset: 0xF092A, size: 0x8, addend: 0x0, symName: _RLMSetSwiftPropertyNil, symObjAddr: 0x3964, symBinAddr: 0x3E4F84, symSize: 0x64 }
  - { offset: 0xF0B94, size: 0x8, addend: 0x0, symName: __ZN18RLMAccessorContext12createObjectEP11objc_objectN5realm12CreatePolicyEbNS2_6ObjKeyE, symObjAddr: 0x6294, symBinAddr: 0x3E77FC, symSize: 0x13C0 }
  - { offset: 0xF3714, size: 0x8, addend: 0x0, symName: __ZN27RLMStatelessAccessorContext5unboxIxEET_P11objc_object, symObjAddr: 0x5C34, symBinAddr: 0x3E71B4, symSize: 0x50 }
  - { offset: 0xF3751, size: 0x8, addend: 0x0, symName: _RLMSetSwiftPropertyObject, symObjAddr: 0x3ECC, symBinAddr: 0x3E54EC, symSize: 0x8 }
  - { offset: 0xF37A5, size: 0x8, addend: 0x0, symName: _RLMGetSwiftPropertyObject, symObjAddr: 0x3ED4, symBinAddr: 0x3E54F4, symSize: 0x8 }
  - { offset: 0xF37EE, size: 0x8, addend: 0x0, symName: __ZN18RLMAccessorContext3boxEON5realm3ObjE, symObjAddr: 0x580C, symBinAddr: 0x3E6D8C, symSize: 0x64 }
  - { offset: 0xF3828, size: 0x8, addend: 0x0, symName: _RLMSetSwiftPropertyAny, symObjAddr: 0x3FC4, symBinAddr: 0x3E55E4, symSize: 0x8 }
  - { offset: 0xF4B2B, size: 0x8, addend: 0x0, symName: __ZN18RLMAccessorContext11will_changeERKN5realm3ObjERKNS0_8PropertyE, symObjAddr: 0x76B4, symBinAddr: 0x3E8BBC, symSize: 0x160 }
  - { offset: 0xF4D74, size: 0x8, addend: 0x0, symName: __ZN27RLMStatelessAccessorContext7is_nullEP11objc_object, symObjAddr: 0xA10C, symBinAddr: 0x3EB2C8, symSize: 0x50 }
  - { offset: 0xF4DB9, size: 0x8, addend: 0x0, symName: __ZN18RLMAccessorContextC2ERS_RKN5realm3ObjERKNS1_8PropertyE, symObjAddr: 0x51D0, symBinAddr: 0x3E67F0, symSize: 0x94 }
  - { offset: 0xF4EDB, size: 0x8, addend: 0x0, symName: __ZN5realm12object_store10Dictionary6assignIRU8__strongPU18objcproto8RLMValue11objc_object18RLMAccessorContextEEvRT0_OT_NS_12CreatePolicyE, symObjAddr: 0x12450, symBinAddr: 0x3F27F0, symSize: 0x248 }
  - { offset: 0xF5018, size: 0x8, addend: 0x0, symName: __ZN5realm4List6assignIRU8__strongPU18objcproto8RLMValue11objc_object18RLMAccessorContextEEvRT0_OT_NS_12CreatePolicyE, symObjAddr: 0x121A8, symBinAddr: 0x3F2548, symSize: 0x2A8 }
  - { offset: 0xF5220, size: 0x8, addend: 0x0, symName: __ZN27RLMStatelessAccessorContext11is_same_setERKN5realm12object_store3SetEP11objc_object, symObjAddr: 0x7C1C, symBinAddr: 0x3E9114, symSize: 0x44 }
  - { offset: 0xF5258, size: 0x8, addend: 0x0, symName: __ZN5realm12object_store3Set6insertIRU8__strongP11objc_object18RLMAccessorContextEENSt3__14pairImbEERT0_OT_NS_12CreatePolicyE, symObjAddr: 0xE39C, symBinAddr: 0x3EE838, symSize: 0x4EC }
  - { offset: 0xF5C9E, size: 0x8, addend: 0x0, symName: __ZN27RLMStatelessAccessorContext5unboxIbEET_P11objc_object, symObjAddr: 0x5AE0, symBinAddr: 0x3E7060, symSize: 0x50 }
  - { offset: 0xF5CDB, size: 0x8, addend: 0x0, symName: __ZN27RLMStatelessAccessorContext5unboxIfEET_P11objc_object, symObjAddr: 0x5BDC, symBinAddr: 0x3E715C, symSize: 0x58 }
  - { offset: 0xF5D18, size: 0x8, addend: 0x0, symName: __ZN27RLMStatelessAccessorContext5unboxIdEET_P11objc_object, symObjAddr: 0x5B84, symBinAddr: 0x3E7104, symSize: 0x58 }
  - { offset: 0xF5D55, size: 0x8, addend: 0x0, symName: __ZN27RLMStatelessAccessorContext5unboxINSt3__18optionalIxEEEET_P11objc_object, symObjAddr: 0x6124, symBinAddr: 0x3E768C, symSize: 0x7C }
  - { offset: 0xF5DC3, size: 0x8, addend: 0x0, symName: __ZN27RLMStatelessAccessorContext5unboxINSt3__18optionalIbEEEET_P11objc_object, symObjAddr: 0x5FB4, symBinAddr: 0x3E751C, symSize: 0x70 }
  - { offset: 0xF5E31, size: 0x8, addend: 0x0, symName: __ZN27RLMStatelessAccessorContext5unboxINSt3__18optionalIN5realm8ObjectIdEEEEET_P11objc_object, symObjAddr: 0x61A0, symBinAddr: 0x3E7708, symSize: 0x8C }
  - { offset: 0xF5E9F, size: 0x8, addend: 0x0, symName: __ZN27RLMStatelessAccessorContext5unboxINSt3__18optionalIN5realm4UUIDEEEEET_P11objc_object, symObjAddr: 0x622C, symBinAddr: 0x3E7794, symSize: 0x68 }
  - { offset: 0xF611C, size: 0x8, addend: 0x0, symName: __ZN27RLMStatelessAccessorContext5unboxINSt3__18optionalIfEEEET_P11objc_object, symObjAddr: 0x60A4, symBinAddr: 0x3E760C, symSize: 0x80 }
  - { offset: 0xF6258, size: 0x8, addend: 0x0, symName: __ZN27RLMStatelessAccessorContext5unboxINSt3__18optionalIdEEEET_P11objc_object, symObjAddr: 0x6024, symBinAddr: 0x3E758C, symSize: 0x80 }
  - { offset: 0xF6394, size: 0x8, addend: 0x0, symName: __ZNSt3__110shared_ptrIN5realm5RealmEED2B8ne180100Ev, symObjAddr: 0x915C, symBinAddr: 0x3EA318, symSize: 0x50 }
  - { offset: 0xF641E, size: 0x8, addend: 0x0, symName: _RLMGetSwiftPropertyAny, symObjAddr: 0x509C, symBinAddr: 0x3E66BC, symSize: 0x8 }
  - { offset: 0xF647F, size: 0x8, addend: 0x0, symName: __ZN18RLMAccessorContext3boxEN5realm5MixedE, symObjAddr: 0x53E4, symBinAddr: 0x3E6964, symSize: 0xB0 }
  - { offset: 0xF650B, size: 0x8, addend: 0x0, symName: __ZNSt3__110unique_ptrI21RLMObservationTrackerNS_14default_deleteIS1_EEE5resetB8ne180100EPS1_, symObjAddr: 0x127CC, symBinAddr: 0x3F2AF0, symSize: 0x2C }
  - { offset: 0xF661B, size: 0x8, addend: 0x0, symName: __ZN18RLMAccessorContext3boxEON5realm4ListE, symObjAddr: 0x5494, symBinAddr: 0x3E6A14, symSize: 0x114 }
  - { offset: 0xF677D, size: 0x8, addend: 0x0, symName: __ZN18RLMAccessorContext3boxEON5realm12object_store3SetE, symObjAddr: 0x55A8, symBinAddr: 0x3E6B28, symSize: 0xD4 }
  - { offset: 0xF6949, size: 0x8, addend: 0x0, symName: __ZN18RLMAccessorContext3boxEON5realm12object_store10DictionaryE, symObjAddr: 0x567C, symBinAddr: 0x3E6BFC, symSize: 0x124 }
  - { offset: 0xF6AF8, size: 0x8, addend: 0x0, symName: __ZN18RLMAccessorContext3boxEON5realm6ObjectE, symObjAddr: 0x57A0, symBinAddr: 0x3E6D20, symSize: 0x6C }
  - { offset: 0xF6B91, size: 0x8, addend: 0x0, symName: __ZN18RLMAccessorContext3boxEON5realm3ObjE, symObjAddr: 0x580C, symBinAddr: 0x3E6D8C, symSize: 0x64 }
  - { offset: 0xF6B9C, size: 0x8, addend: 0x0, symName: __ZN18RLMAccessorContext3boxEON5realm7ResultsE, symObjAddr: 0x5870, symBinAddr: 0x3E6DF0, symSize: 0xC0 }
  - { offset: 0xF6D40, size: 0x8, addend: 0x0, symName: __ZN5realm9TimestampC2Exi, symObjAddr: 0x12698, symBinAddr: 0x3F2A38, symSize: 0xB8 }
  - { offset: 0xF6DAD, size: 0x8, addend: 0x0, symName: __ZL7bridgedI8NSNumberEPT_P11objc_object, symObjAddr: 0x5B30, symBinAddr: 0x3E70B0, symSize: 0x54 }
  - { offset: 0xF8780, size: 0x8, addend: 0x0, symName: __ZNK5realm5Group14check_attachedEv, symObjAddr: 0x12138, symBinAddr: 0x3F24E0, symSize: 0x68 }
  - { offset: 0xF8818, size: 0x8, addend: 0x0, symName: __ZN18RLMAccessorContext18value_for_propertyEP11objc_objectRKN5realm8PropertyEm, symObjAddr: 0x7824, symBinAddr: 0x3E8D1C, symSize: 0x30C }
  - { offset: 0xF88E8, size: 0x8, addend: 0x0, symName: __ZN18RLMAccessorContext26default_value_for_propertyERKN5realm12ObjectSchemaERKNS0_8PropertyE, symObjAddr: 0x7B30, symBinAddr: 0x3E9028, symSize: 0xA8 }
  - { offset: 0xF89DC, size: 0x8, addend: 0x0, symName: __ZN5realm6Object23set_property_value_implIU8__strongP11objc_object18RLMAccessorContextEEvRT0_RKNS_8PropertyET_NS_12CreatePolicyEb, symObjAddr: 0xFEE8, symBinAddr: 0x3F0384, symSize: 0x708 }
  - { offset: 0xF9B00, size: 0x8, addend: 0x0, symName: __ZNSt3__112basic_stringIcNS_11char_traitsIcEENS_9allocatorIcEEEC2B8ne180100ILi0EEEPKc, symObjAddr: 0x12990, symBinAddr: 0x3F2C10, symSize: 0xB0 }
  - { offset: 0xF9EDF, size: 0x8, addend: 0x0, symName: __ZNSt3__112basic_stringIcNS_11char_traitsIcEENS_9allocatorIcEEE25__init_copy_ctor_externalEPKcm, symObjAddr: 0x12A40, symBinAddr: 0x3F2CC0, symSize: 0x8C }
  - { offset: 0xF9EF1, size: 0x8, addend: 0x0, symName: __ZN27RLMStatelessAccessorContext5printEP11objc_object, symObjAddr: 0x12848, symBinAddr: 0x3F2B1C, symSize: 0x5C }
  - { offset: 0xF9F4A, size: 0x8, addend: 0x0, symName: __ZNSt3__112basic_stringIcNS_11char_traitsIcEENS_9allocatorIcEEE25__init_copy_ctor_externalEPKcm, symObjAddr: 0x12A40, symBinAddr: 0x3F2CC0, symSize: 0x8C }
  - { offset: 0xFA2F4, size: 0x8, addend: 0x0, symName: __ZN5realm19ObjectAlreadyExistsC2INSt3__112basic_stringIcNS2_11char_traitsIcEENS2_9allocatorIcEEEES8_EERKT0_T_, symObjAddr: 0x12ACC, symBinAddr: 0x3F2D4C, symSize: 0x11C }
  - { offset: 0xFA2FF, size: 0x8, addend: 0x0, symName: __ZN5realm19ObjectAlreadyExistsC2INSt3__112basic_stringIcNS2_11char_traitsIcEENS2_9allocatorIcEEEES8_EERKT0_T_, symObjAddr: 0x12ACC, symBinAddr: 0x3F2D4C, symSize: 0x11C }
  - { offset: 0xFA907, size: 0x8, addend: 0x0, symName: __ZN27RLMStatelessAccessorContext12is_same_listERKN5realm4ListEP11objc_object, symObjAddr: 0x7BD8, symBinAddr: 0x3E90D0, symSize: 0x44 }
  - { offset: 0xFA93F, size: 0x8, addend: 0x0, symName: __ZN27RLMStatelessAccessorContext18is_same_dictionaryERKN5realm12object_store10DictionaryEP11objc_object, symObjAddr: 0x7C60, symBinAddr: 0x3E9158, symSize: 0x44 }
  - { offset: 0xFA977, size: 0x8, addend: 0x0, symName: '+[RLMManagedPropertyAccessor promote:on:]', symObjAddr: 0x7CA4, symBinAddr: 0x3E919C, symSize: 0x4 }
  - { offset: 0xFAA5F, size: 0x8, addend: 0x0, symName: ____ZN12_GLOBAL__N_113managedGetterEP11RLMPropertyPKc_block_invoke, symObjAddr: 0x7E64, symBinAddr: 0x3E92E4, symSize: 0x10 }
  - { offset: 0xFB637, size: 0x8, addend: 0x0, symName: ____ZN12_GLOBAL__N_113managedGetterEP11RLMPropertyPKc_block_invoke_2, symObjAddr: 0x8004, symBinAddr: 0x3E9484, symSize: 0x3F8 }
  - { offset: 0xFC722, size: 0x8, addend: 0x0, symName: __ZNSt3__16vectorINS_10unique_ptrIN5realm14BaseDescriptorENS_14default_deleteIS3_EEEENS_9allocatorIS6_EEE16__destroy_vectorclB8ne180100Ev, symObjAddr: 0x8FF0, symBinAddr: 0x3EA29C, symSize: 0x7C }
  - { offset: 0xFCD40, size: 0x8, addend: 0x0, symName: __ZNSt3__110shared_ptrIN5realm5RealmEED2B8ne180100Ev, symObjAddr: 0x915C, symBinAddr: 0x3EA318, symSize: 0x50 }
  - { offset: 0xFCD4A, size: 0x8, addend: 0x0, symName: ____ZN12_GLOBAL__N_118makeOptionalGetterIxEEP11objc_objectm_block_invoke, symObjAddr: 0x83FC, symBinAddr: 0x3E987C, symSize: 0xD4 }
  - { offset: 0xFCF38, size: 0x8, addend: 0x0, symName: __ZN27RLMStatelessAccessorContext3boxENSt3__18optionalIxEE, symObjAddr: 0x84D0, symBinAddr: 0x3E9950, symSize: 0x48 }
  - { offset: 0xFCF9C, size: 0x8, addend: 0x0, symName: ____ZN12_GLOBAL__N_115makeBoxedGetterIxEEP11objc_objectm_block_invoke, symObjAddr: 0x8518, symBinAddr: 0x3E9998, symSize: 0xDC }
  - { offset: 0xFD159, size: 0x8, addend: 0x0, symName: ____ZN12_GLOBAL__N_110makeGetterIcxEEP11objc_objectm_block_invoke, symObjAddr: 0x85F4, symBinAddr: 0x3E9A74, symSize: 0x24 }
  - { offset: 0xFD1B6, size: 0x8, addend: 0x0, symName: ____ZN12_GLOBAL__N_110makeGetterIsxEEP11objc_objectm_block_invoke, symObjAddr: 0x8618, symBinAddr: 0x3E9A98, symSize: 0x24 }
  - { offset: 0xFD213, size: 0x8, addend: 0x0, symName: ____ZN12_GLOBAL__N_110makeGetterIixEEP11objc_objectm_block_invoke, symObjAddr: 0x863C, symBinAddr: 0x3E9ABC, symSize: 0x20 }
  - { offset: 0xFD271, size: 0x8, addend: 0x0, symName: ____ZN12_GLOBAL__N_110makeGetterIlxEEP11objc_objectm_block_invoke, symObjAddr: 0x865C, symBinAddr: 0x3E9ADC, symSize: 0x10 }
  - { offset: 0xFD2CF, size: 0x8, addend: 0x0, symName: ____ZN12_GLOBAL__N_110makeGetterIxxEEP11objc_objectm_block_invoke, symObjAddr: 0x866C, symBinAddr: 0x3E9AEC, symSize: 0x10 }
  - { offset: 0xFD32C, size: 0x8, addend: 0x0, symName: ____ZN12_GLOBAL__N_118makeOptionalGetterIfEEP11objc_objectm_block_invoke, symObjAddr: 0x867C, symBinAddr: 0x3E9AFC, symSize: 0xD4 }
  - { offset: 0xFD51A, size: 0x8, addend: 0x0, symName: __ZN27RLMStatelessAccessorContext3boxENSt3__18optionalIfEE, symObjAddr: 0x8750, symBinAddr: 0x3E9BD0, symSize: 0x48 }
  - { offset: 0xFD57E, size: 0x8, addend: 0x0, symName: ____ZN12_GLOBAL__N_115makeBoxedGetterIfEEP11objc_objectm_block_invoke, symObjAddr: 0x8798, symBinAddr: 0x3E9C18, symSize: 0xDC }
  - { offset: 0xFD73C, size: 0x8, addend: 0x0, symName: ____ZN12_GLOBAL__N_110makeGetterIffEEP11objc_objectm_block_invoke, symObjAddr: 0x8874, symBinAddr: 0x3E9CF4, symSize: 0x10 }
  - { offset: 0xFD799, size: 0x8, addend: 0x0, symName: ____ZN12_GLOBAL__N_118makeOptionalGetterIdEEP11objc_objectm_block_invoke, symObjAddr: 0x8884, symBinAddr: 0x3E9D04, symSize: 0xD4 }
  - { offset: 0xFD987, size: 0x8, addend: 0x0, symName: __ZN27RLMStatelessAccessorContext3boxENSt3__18optionalIdEE, symObjAddr: 0x8958, symBinAddr: 0x3E9DD8, symSize: 0x48 }
  - { offset: 0xFD9EB, size: 0x8, addend: 0x0, symName: ____ZN12_GLOBAL__N_115makeBoxedGetterIdEEP11objc_objectm_block_invoke, symObjAddr: 0x89A0, symBinAddr: 0x3E9E20, symSize: 0xDC }
  - { offset: 0xFDBA9, size: 0x8, addend: 0x0, symName: ____ZN12_GLOBAL__N_110makeGetterIddEEP11objc_objectm_block_invoke, symObjAddr: 0x8A7C, symBinAddr: 0x3E9EFC, symSize: 0x10 }
  - { offset: 0xFDC06, size: 0x8, addend: 0x0, symName: ____ZN12_GLOBAL__N_118makeOptionalGetterIbEEP11objc_objectm_block_invoke, symObjAddr: 0x8A8C, symBinAddr: 0x3E9F0C, symSize: 0xDC }
  - { offset: 0xFDDF4, size: 0x8, addend: 0x0, symName: __ZN27RLMStatelessAccessorContext3boxENSt3__18optionalIbEE, symObjAddr: 0x8B68, symBinAddr: 0x3E9FE8, symSize: 0x50 }
  - { offset: 0xFDE58, size: 0x8, addend: 0x0, symName: ____ZN12_GLOBAL__N_115makeBoxedGetterIbEEP11objc_objectm_block_invoke, symObjAddr: 0x8BB8, symBinAddr: 0x3EA038, symSize: 0xDC }
  - { offset: 0xFE015, size: 0x8, addend: 0x0, symName: ____ZN12_GLOBAL__N_110makeGetterIbbEEP11objc_objectm_block_invoke, symObjAddr: 0x8C94, symBinAddr: 0x3EA114, symSize: 0x10 }
  - { offset: 0xFE073, size: 0x8, addend: 0x0, symName: ____ZN12_GLOBAL__N_115makeBoxedGetterIN5realm10StringDataEEEP11objc_objectm_block_invoke, symObjAddr: 0x8CA4, symBinAddr: 0x3EA124, symSize: 0x10 }
  - { offset: 0xFE0D1, size: 0x8, addend: 0x0, symName: ____ZN12_GLOBAL__N_115makeBoxedGetterIN5realm9TimestampEEEP11objc_objectm_block_invoke, symObjAddr: 0x8CB4, symBinAddr: 0x3EA134, symSize: 0x10 }
  - { offset: 0xFE12F, size: 0x8, addend: 0x0, symName: ____ZN12_GLOBAL__N_115makeBoxedGetterIN5realm10BinaryDataEEEP11objc_objectm_block_invoke, symObjAddr: 0x8CC4, symBinAddr: 0x3EA144, symSize: 0x10 }
  - { offset: 0xFE18D, size: 0x8, addend: 0x0, symName: ____ZN12_GLOBAL__N_115makeBoxedGetterIN5realm3ObjEEEP11objc_objectm_block_invoke, symObjAddr: 0x8CD4, symBinAddr: 0x3EA154, symSize: 0x10 }
  - { offset: 0xFE1EB, size: 0x8, addend: 0x0, symName: ____ZN12_GLOBAL__N_115makeBoxedGetterIN5realm10Decimal128EEEP11objc_objectm_block_invoke, symObjAddr: 0x8CE4, symBinAddr: 0x3EA164, symSize: 0x10 }
  - { offset: 0xFE249, size: 0x8, addend: 0x0, symName: ____ZN12_GLOBAL__N_118makeOptionalGetterIN5realm8ObjectIdEEEP11objc_objectm_block_invoke, symObjAddr: 0x8CF4, symBinAddr: 0x3EA174, symSize: 0x10 }
  - { offset: 0xFE2A6, size: 0x8, addend: 0x0, symName: ____ZN12_GLOBAL__N_115makeBoxedGetterIN5realm8ObjectIdEEEP11objc_objectm_block_invoke, symObjAddr: 0x8D04, symBinAddr: 0x3EA184, symSize: 0xC8 }
  - { offset: 0xFE448, size: 0x8, addend: 0x0, symName: __ZN27RLMStatelessAccessorContext3boxEN5realm8ObjectIdE, symObjAddr: 0x8DCC, symBinAddr: 0x3EA24C, symSize: 0x40 }
  - { offset: 0xFE497, size: 0x8, addend: 0x0, symName: ____ZN12_GLOBAL__N_115makeBoxedGetterIN5realm5MixedEEEP11objc_objectm_block_invoke, symObjAddr: 0x8E0C, symBinAddr: 0x3EA28C, symSize: 0x10 }
  - { offset: 0xFEB49, size: 0x8, addend: 0x0, symName: ____ZN12_GLOBAL__N_118makeOptionalGetterIN5realm4UUIDEEEP11objc_objectm_block_invoke, symObjAddr: 0x91AC, symBinAddr: 0x3EA368, symSize: 0x10 }
  - { offset: 0xFEBBA, size: 0x8, addend: 0x0, symName: ____ZN12_GLOBAL__N_115makeBoxedGetterIN5realm4UUIDEEEP11objc_objectm_block_invoke, symObjAddr: 0x91BC, symBinAddr: 0x3EA378, symSize: 0xD8 }
  - { offset: 0xFED63, size: 0x8, addend: 0x0, symName: __ZN27RLMStatelessAccessorContext3boxEN5realm4UUIDE, symObjAddr: 0x9294, symBinAddr: 0x3EA450, symSize: 0x38 }
  - { offset: 0xFED7E, size: 0x8, addend: 0x0, symName: ____ZN12_GLOBAL__N_110makeSetterIU8__strongPU28objcproto17NSFastEnumeration11objc_objectS3_EEP11objc_objectP11RLMProperty_block_invoke, symObjAddr: 0x9524, symBinAddr: 0x3EA6E0, symSize: 0x68 }
  - { offset: 0xFF34C, size: 0x8, addend: 0x0, symName: ____ZN12_GLOBAL__N_110makeSetterIU8__strongPU28objcproto17NSFastEnumeration11objc_objectS3_EEP11objc_objectP11RLMProperty_block_invoke_2, symObjAddr: 0x958C, symBinAddr: 0x3EA748, symSize: 0xA30 }
  - { offset: 0x100651, size: 0x8, addend: 0x0, symName: __ZN5realm4List3setIRU8__strongP11objc_object18RLMAccessorContextEEvRT0_mOT_NS_12CreatePolicyE, symObjAddr: 0xA15C, symBinAddr: 0x3EB318, symSize: 0x880 }
  - { offset: 0x101E92, size: 0x8, addend: 0x0, symName: __ZN5realm4List6insertIU8__strongP11objc_object18RLMAccessorContextEEvRT0_mOT_NS_12CreatePolicyE, symObjAddr: 0xA9DC, symBinAddr: 0x3EBB98, symSize: 0x274 }
  - { offset: 0x1025E8, size: 0x8, addend: 0x0, symName: __ZN5realm12object_store10Dictionary6insertIRU8__strongP11objc_object18RLMAccessorContextEEvRT0_NS_10StringDataEOT_NS_12CreatePolicyE, symObjAddr: 0xB8A8, symBinAddr: 0x3EC9E0, symSize: 0x2B4 }
  - { offset: 0x10359D, size: 0x8, addend: 0x0, symName: __ZNK5realm12object_store10Collection17validate_embeddedIRU8__strongP11objc_object18RLMAccessorContextEEvRT0_OT_NS_12CreatePolicyE, symObjAddr: 0xAC50, symBinAddr: 0x3EBE0C, symSize: 0x148 }
  - { offset: 0x103875, size: 0x8, addend: 0x0, symName: __ZNK5realm17ObjCollectionBaseINS_7LstBaseEE17update_unresolvedENS_12UpdateStatusE, symObjAddr: 0xD414, symBinAddr: 0x3EE528, symSize: 0x50 }
  - { offset: 0x103971, size: 0x8, addend: 0x0, symName: __ZNK5realm12ArrayKeyBaseILi0EE3getEm, symObjAddr: 0xDF38, symBinAddr: 0x3EE578, symSize: 0x30 }
  - { offset: 0x1039C1, size: 0x8, addend: 0x0, symName: __ZZN5realm4List3setIRU8__strongP11objc_object18RLMAccessorContextEEvRT0_mOT_NS_12CreatePolicyEENKUlS9_E_clIPNS_5MixedEEEDaS9_, symObjAddr: 0xE10C, symBinAddr: 0x3EE5A8, symSize: 0x1F8 }
  - { offset: 0x104134, size: 0x8, addend: 0x0, symName: __ZZN5realm4List6insertIU8__strongP11objc_object18RLMAccessorContextEEvRT0_mOT_NS_12CreatePolicyEENKUlS8_E_clIPxEEDaS8_, symObjAddr: 0xAE5C, symBinAddr: 0x3EBF94, symSize: 0x3C }
  - { offset: 0x1041C8, size: 0x8, addend: 0x0, symName: __ZZN5realm4List6insertIU8__strongP11objc_object18RLMAccessorContextEEvRT0_mOT_NS_12CreatePolicyEENKUlS8_E_clIPNS_4UUIDEEEDaS8_, symObjAddr: 0xB108, symBinAddr: 0x3EC240, symSize: 0x40 }
  - { offset: 0x104259, size: 0x8, addend: 0x0, symName: __ZZN5realm4List6insertIU8__strongP11objc_object18RLMAccessorContextEEvRT0_mOT_NS_12CreatePolicyEENKUlS8_E_clIPNS_8ObjectIdEEEDaS8_, symObjAddr: 0xB03C, symBinAddr: 0x3EC174, symSize: 0x40 }
  - { offset: 0x1042ED, size: 0x8, addend: 0x0, symName: __ZZN5realm4List6insertIU8__strongP11objc_object18RLMAccessorContextEEvRT0_mOT_NS_12CreatePolicyEENKUlS8_E_clIPbEEDaS8_, symObjAddr: 0xAED4, symBinAddr: 0x3EC00C, symSize: 0x3C }
  - { offset: 0x10437E, size: 0x8, addend: 0x0, symName: __ZZN5realm4List6insertIU8__strongP11objc_object18RLMAccessorContextEEvRT0_mOT_NS_12CreatePolicyEENKUlS8_E_clIPfEEDaS8_, symObjAddr: 0xAF4C, symBinAddr: 0x3EC084, symSize: 0x38 }
  - { offset: 0x104410, size: 0x8, addend: 0x0, symName: __ZZN5realm4List6insertIU8__strongP11objc_object18RLMAccessorContextEEvRT0_mOT_NS_12CreatePolicyEENKUlS8_E_clIPNS_5MixedEEEDaS8_, symObjAddr: 0xB148, symBinAddr: 0x3EC280, symSize: 0x150 }
  - { offset: 0x104900, size: 0x8, addend: 0x0, symName: __ZZN5realm4List6insertIU8__strongP11objc_object18RLMAccessorContextEEvRT0_mOT_NS_12CreatePolicyEENKUlS8_E_clIPdEEDaS8_, symObjAddr: 0xAFC4, symBinAddr: 0x3EC0FC, symSize: 0x38 }
  - { offset: 0x104992, size: 0x8, addend: 0x0, symName: __ZZN5realm4List6insertIU8__strongP11objc_object18RLMAccessorContextEEvRT0_mOT_NS_12CreatePolicyEENKUlS8_E_clIPNSt3__18optionalINS_4UUIDEEEEEDaS8_, symObjAddr: 0xB07C, symBinAddr: 0x3EC1B4, symSize: 0x8C }
  - { offset: 0x104A24, size: 0x8, addend: 0x0, symName: __ZZN5realm4List6insertIU8__strongP11objc_object18RLMAccessorContextEEvRT0_mOT_NS_12CreatePolicyEENKUlS8_E_clIPNSt3__18optionalINS_8ObjectIdEEEEEDaS8_, symObjAddr: 0xAFFC, symBinAddr: 0x3EC134, symSize: 0x40 }
  - { offset: 0x104AB8, size: 0x8, addend: 0x0, symName: __ZZN5realm4List6insertIU8__strongP11objc_object18RLMAccessorContextEEvRT0_mOT_NS_12CreatePolicyEENKUlS8_E_clIPNSt3__18optionalIxEEEEDaS8_, symObjAddr: 0xAE1C, symBinAddr: 0x3EBF54, symSize: 0x40 }
  - { offset: 0x104B49, size: 0x8, addend: 0x0, symName: __ZZN5realm4List6insertIU8__strongP11objc_object18RLMAccessorContextEEvRT0_mOT_NS_12CreatePolicyEENKUlS8_E_clIPNSt3__18optionalIbEEEEDaS8_, symObjAddr: 0xAE98, symBinAddr: 0x3EBFD0, symSize: 0x3C }
  - { offset: 0x104BF6, size: 0x8, addend: 0x0, symName: __ZZN5realm4List6insertIU8__strongP11objc_object18RLMAccessorContextEEvRT0_mOT_NS_12CreatePolicyEENKUlS8_E_clIPNSt3__18optionalIfEEEEDaS8_, symObjAddr: 0xAF10, symBinAddr: 0x3EC048, symSize: 0x3C }
  - { offset: 0x104C8A, size: 0x8, addend: 0x0, symName: __ZZN5realm4List6insertIU8__strongP11objc_object18RLMAccessorContextEEvRT0_mOT_NS_12CreatePolicyEENKUlS8_E_clIPNSt3__18optionalIdEEEEDaS8_, symObjAddr: 0xAF84, symBinAddr: 0x3EC0BC, symSize: 0x40 }
  - { offset: 0x104EB6, size: 0x8, addend: 0x0, symName: __ZN5realm4List6assignIRU8__strongP11objc_object18RLMAccessorContextEEvRT0_OT_NS_12CreatePolicyE, symObjAddr: 0xB368, symBinAddr: 0x3EC4A0, symSize: 0xCC }
  - { offset: 0x104FD6, size: 0x8, addend: 0x0, symName: __ZN5realm12object_store10Dictionary6assignIRU8__strongP11objc_object18RLMAccessorContextEEvRT0_OT_NS_12CreatePolicyE, symObjAddr: 0xB434, symBinAddr: 0x3EC56C, symSize: 0x94 }
  - { offset: 0x1050C7, size: 0x8, addend: 0x0, symName: __ZN27RLMStatelessAccessorContext20enumerate_collectionIZN5realm4List6assignIRU8__strongP11objc_object18RLMAccessorContextEEvRT0_OT_NS1_12CreatePolicyEEUlSC_E_EEvS5_SC_, symObjAddr: 0xB4C8, symBinAddr: 0x3EC600, symSize: 0x20C }
  - { offset: 0x1051FE, size: 0x8, addend: 0x0, symName: __ZN27RLMStatelessAccessorContext20enumerate_dictionaryIZN5realm12object_store10Dictionary6assignIRU8__strongP11objc_object18RLMAccessorContextEEvRT0_OT_NS1_12CreatePolicyEEUlNS1_10StringDataESD_E_EEvS6_SD_, symObjAddr: 0xB6D4, symBinAddr: 0x3EC80C, symSize: 0x1D4 }
  - { offset: 0x1053BA, size: 0x8, addend: 0x0, symName: __ZN5realm12object_store10Dictionary6insertINS_5MixedEEEvNS_10StringDataET_, symObjAddr: 0xBB5C, symBinAddr: 0x3ECC94, symSize: 0x78 }
  - { offset: 0x10549A, size: 0x8, addend: 0x0, symName: __ZZN5realm12object_store10Dictionary6insertIRU8__strongP11objc_object18RLMAccessorContextEEvRT0_NS_10StringDataEOT_NS_12CreatePolicyEENKUlSB_E_clIPxEEDaSB_, symObjAddr: 0xBCF4, symBinAddr: 0x3ECE2C, symSize: 0x104 }
  - { offset: 0x1057B4, size: 0x8, addend: 0x0, symName: __ZZN5realm12object_store10Dictionary6insertIRU8__strongP11objc_object18RLMAccessorContextEEvRT0_NS_10StringDataEOT_NS_12CreatePolicyEENKUlSB_E_clIPNS_4UUIDEEEDaSB_, symObjAddr: 0xCF84, symBinAddr: 0x3EE0BC, symSize: 0x108 }
  - { offset: 0x105AC2, size: 0x8, addend: 0x0, symName: __ZZN5realm12object_store10Dictionary6insertIRU8__strongP11objc_object18RLMAccessorContextEEvRT0_NS_10StringDataEOT_NS_12CreatePolicyEENKUlSB_E_clIPNS_9TimestampEEEDaSB_, symObjAddr: 0xC760, symBinAddr: 0x3ED898, symSize: 0x140 }
  - { offset: 0x105DFC, size: 0x8, addend: 0x0, symName: __ZZN5realm12object_store10Dictionary6insertIRU8__strongP11objc_object18RLMAccessorContextEEvRT0_NS_10StringDataEOT_NS_12CreatePolicyEENKUlSB_E_clIPNS_8ObjectIdEEEDaSB_, symObjAddr: 0xCB98, symBinAddr: 0x3EDCD0, symSize: 0x110 }
  - { offset: 0x10611E, size: 0x8, addend: 0x0, symName: __ZZN5realm12object_store10Dictionary6insertIRU8__strongP11objc_object18RLMAccessorContextEEvRT0_NS_10StringDataEOT_NS_12CreatePolicyEENKUlSB_E_clIPSA_EEDaSB_, symObjAddr: 0xC520, symBinAddr: 0x3ED658, symSize: 0x120 }
  - { offset: 0x10642C, size: 0x8, addend: 0x0, symName: __ZZN5realm12object_store10Dictionary6insertIRU8__strongP11objc_object18RLMAccessorContextEEvRT0_NS_10StringDataEOT_NS_12CreatePolicyEENKUlSB_E_clIPNS_10BinaryDataEEEDaSB_, symObjAddr: 0xC640, symBinAddr: 0x3ED778, symSize: 0x120 }
  - { offset: 0x10673A, size: 0x8, addend: 0x0, symName: __ZZN5realm12object_store10Dictionary6insertIRU8__strongP11objc_object18RLMAccessorContextEEvRT0_NS_10StringDataEOT_NS_12CreatePolicyEENKUlSB_E_clIPbEEDaSB_, symObjAddr: 0xBF24, symBinAddr: 0x3ED05C, symSize: 0x104 }
  - { offset: 0x106A4B, size: 0x8, addend: 0x0, symName: __ZZN5realm12object_store10Dictionary6insertIRU8__strongP11objc_object18RLMAccessorContextEEvRT0_NS_10StringDataEOT_NS_12CreatePolicyEENKUlSB_E_clIPNS_3ObjEEEDaSB_, symObjAddr: 0xC8A0, symBinAddr: 0x3ED9D8, symSize: 0x1C8 }
  - { offset: 0x106EA9, size: 0x8, addend: 0x0, symName: __ZZN5realm12object_store10Dictionary6insertIRU8__strongP11objc_object18RLMAccessorContextEEvRT0_NS_10StringDataEOT_NS_12CreatePolicyEENKUlSB_E_clIPNSt3__18optionalINS_8ObjectIdEEEEEDaSB_, symObjAddr: 0xCA68, symBinAddr: 0x3EDBA0, symSize: 0x130 }
  - { offset: 0x106ECA, size: 0x8, addend: 0x0, symName: __ZZN5realm12object_store10Dictionary6insertIRU8__strongP11objc_object18RLMAccessorContextEEvRT0_NS_10StringDataEOT_NS_12CreatePolicyEENKUlSB_E_clIPfEEDaSB_, symObjAddr: 0xC168, symBinAddr: 0x3ED2A0, symSize: 0x13C }
  - { offset: 0x10722E, size: 0x8, addend: 0x0, symName: __ZZN5realm12object_store10Dictionary6insertIRU8__strongP11objc_object18RLMAccessorContextEEvRT0_NS_10StringDataEOT_NS_12CreatePolicyEENKUlSB_E_clIPNS_5MixedEEEDaSB_, symObjAddr: 0xD08C, symBinAddr: 0x3EE1C4, symSize: 0x258 }
  - { offset: 0x10797F, size: 0x8, addend: 0x0, symName: __ZZN5realm12object_store10Dictionary6insertIRU8__strongP11objc_object18RLMAccessorContextEEvRT0_NS_10StringDataEOT_NS_12CreatePolicyEENKUlSB_E_clIPNS_10Decimal128EEEDaSB_, symObjAddr: 0xCCA8, symBinAddr: 0x3EDDE0, symSize: 0x150 }
  - { offset: 0x107CA9, size: 0x8, addend: 0x0, symName: __ZZN5realm12object_store10Dictionary6insertIRU8__strongP11objc_object18RLMAccessorContextEEvRT0_NS_10StringDataEOT_NS_12CreatePolicyEENKUlSB_E_clIPdEEDaSB_, symObjAddr: 0xC3E4, symBinAddr: 0x3ED51C, symSize: 0x13C }
  - { offset: 0x108015, size: 0x8, addend: 0x0, symName: __ZZN5realm12object_store10Dictionary6insertIRU8__strongP11objc_object18RLMAccessorContextEEvRT0_NS_10StringDataEOT_NS_12CreatePolicyEENKUlSB_E_clIPNSt3__18optionalINS_4UUIDEEEEEDaSB_, symObjAddr: 0xCDF8, symBinAddr: 0x3EDF30, symSize: 0x18C }
  - { offset: 0x108312, size: 0x8, addend: 0x0, symName: __ZZN5realm12object_store10Dictionary6insertIRU8__strongP11objc_object18RLMAccessorContextEEvRT0_NS_10StringDataEOT_NS_12CreatePolicyEENKUlSB_E_clIPNSt3__18optionalINS_8ObjectIdEEEEEDaSB_, symObjAddr: 0xCA68, symBinAddr: 0x3EDBA0, symSize: 0x130 }
  - { offset: 0x10868E, size: 0x8, addend: 0x0, symName: __ZZN5realm12object_store10Dictionary6insertIRU8__strongP11objc_object18RLMAccessorContextEEvRT0_NS_10StringDataEOT_NS_12CreatePolicyEENKUlSB_E_clIPNSt3__18optionalIxEEEEDaSB_, symObjAddr: 0xBBD4, symBinAddr: 0x3ECD0C, symSize: 0x120 }
  - { offset: 0x10899C, size: 0x8, addend: 0x0, symName: __ZZN5realm12object_store10Dictionary6insertIRU8__strongP11objc_object18RLMAccessorContextEEvRT0_NS_10StringDataEOT_NS_12CreatePolicyEENKUlSB_E_clIPNSt3__18optionalIbEEEEDaSB_, symObjAddr: 0xBDF8, symBinAddr: 0x3ECF30, symSize: 0x12C }
  - { offset: 0x108D22, size: 0x8, addend: 0x0, symName: __ZZN5realm12object_store10Dictionary6insertIRU8__strongP11objc_object18RLMAccessorContextEEvRT0_NS_10StringDataEOT_NS_12CreatePolicyEENKUlSB_E_clIPNSt3__18optionalIfEEEEDaSB_, symObjAddr: 0xC028, symBinAddr: 0x3ED160, symSize: 0x140 }
  - { offset: 0x109056, size: 0x8, addend: 0x0, symName: __ZZN5realm12object_store10Dictionary6insertIRU8__strongP11objc_object18RLMAccessorContextEEvRT0_NS_10StringDataEOT_NS_12CreatePolicyEENKUlSB_E_clIPNSt3__18optionalIdEEEEDaSB_, symObjAddr: 0xC2A4, symBinAddr: 0x3ED3DC, symSize: 0x140 }
  - { offset: 0x109570, size: 0x8, addend: 0x0, symName: __ZNSt3__112basic_stringIcNS_11char_traitsIcEENS_9allocatorIcEEEC2B8ne180100EPKcm, symObjAddr: 0xD2E4, symBinAddr: 0x3EE41C, symSize: 0xA8 }
  - { offset: 0x10991E, size: 0x8, addend: 0x0, symName: __ZNKSt3__112basic_stringIcNS_11char_traitsIcEENS_9allocatorIcEEE20__throw_length_errorB8ne180100Ev, symObjAddr: 0xD38C, symBinAddr: 0x3EE4C4, symSize: 0x14 }
  - { offset: 0x109B30, size: 0x8, addend: 0x0, symName: __ZNKSt3__112basic_stringIcNS_11char_traitsIcEENS_9allocatorIcEEE20__throw_length_errorB8ne180100Ev, symObjAddr: 0xD38C, symBinAddr: 0x3EE4C4, symSize: 0x14 }
  - { offset: 0x109B5A, size: 0x8, addend: 0x0, symName: __ZNSt3__120__throw_length_errorB8ne180100EPKc, symObjAddr: 0xD3A0, symBinAddr: 0x3EE4D8, symSize: 0x50 }
  - { offset: 0x10A2C2, size: 0x8, addend: 0x0, symName: ____ZN12_GLOBAL__N_110makeSetterIU8__strongPU16objcproto6RLMInt8NSNumberS4_EEP11objc_objectP11RLMProperty_block_invoke, symObjAddr: 0xE888, symBinAddr: 0x3EED24, symSize: 0x68 }
  - { offset: 0x10A319, size: 0x8, addend: 0x0, symName: ____ZN12_GLOBAL__N_110makeSetterIU8__strongPU16objcproto6RLMInt8NSNumberS4_EEP11objc_objectP11RLMProperty_block_invoke_2, symObjAddr: 0xE8F0, symBinAddr: 0x3EED8C, symSize: 0x10 }
  - { offset: 0x10A382, size: 0x8, addend: 0x0, symName: ____ZN12_GLOBAL__N_110makeSetterIcxEEP11objc_objectP11RLMProperty_block_invoke, symObjAddr: 0xE900, symBinAddr: 0x3EED9C, symSize: 0x4C }
  - { offset: 0x10A3D6, size: 0x8, addend: 0x0, symName: ____ZN12_GLOBAL__N_110makeSetterIcxEEP11objc_objectP11RLMProperty_block_invoke_2, symObjAddr: 0xE94C, symBinAddr: 0x3EEDE8, symSize: 0xAC }
  - { offset: 0x10A5E5, size: 0x8, addend: 0x0, symName: ____ZN12_GLOBAL__N_110makeSetterIsxEEP11objc_objectP11RLMProperty_block_invoke, symObjAddr: 0xE9F8, symBinAddr: 0x3EEE94, symSize: 0x4C }
  - { offset: 0x10A639, size: 0x8, addend: 0x0, symName: ____ZN12_GLOBAL__N_110makeSetterIsxEEP11objc_objectP11RLMProperty_block_invoke_2, symObjAddr: 0xEA44, symBinAddr: 0x3EEEE0, symSize: 0xAC }
  - { offset: 0x10A848, size: 0x8, addend: 0x0, symName: ____ZN12_GLOBAL__N_110makeSetterIixEEP11objc_objectP11RLMProperty_block_invoke, symObjAddr: 0xEAF0, symBinAddr: 0x3EEF8C, symSize: 0x4C }
  - { offset: 0x10A89C, size: 0x8, addend: 0x0, symName: ____ZN12_GLOBAL__N_110makeSetterIixEEP11objc_objectP11RLMProperty_block_invoke_2, symObjAddr: 0xEB3C, symBinAddr: 0x3EEFD8, symSize: 0xAC }
  - { offset: 0x10AAAB, size: 0x8, addend: 0x0, symName: ____ZN12_GLOBAL__N_110makeSetterIlxEEP11objc_objectP11RLMProperty_block_invoke, symObjAddr: 0xEBE8, symBinAddr: 0x3EF084, symSize: 0x4C }
  - { offset: 0x10AAFF, size: 0x8, addend: 0x0, symName: ____ZN12_GLOBAL__N_110makeSetterIlxEEP11objc_objectP11RLMProperty_block_invoke_2, symObjAddr: 0xEC34, symBinAddr: 0x3EF0D0, symSize: 0xAC }
  - { offset: 0x10AD0E, size: 0x8, addend: 0x0, symName: ____ZN12_GLOBAL__N_110makeSetterIxxEEP11objc_objectP11RLMProperty_block_invoke, symObjAddr: 0xECE0, symBinAddr: 0x3EF17C, symSize: 0x4C }
  - { offset: 0x10AD62, size: 0x8, addend: 0x0, symName: ____ZN12_GLOBAL__N_110makeSetterIxxEEP11objc_objectP11RLMProperty_block_invoke_2, symObjAddr: 0xED2C, symBinAddr: 0x3EF1C8, symSize: 0x10 }
  - { offset: 0x10ADCB, size: 0x8, addend: 0x0, symName: ____ZN12_GLOBAL__N_110makeSetterIU8__strongPU18objcproto8RLMFloat8NSNumberS4_EEP11objc_objectP11RLMProperty_block_invoke, symObjAddr: 0xED3C, symBinAddr: 0x3EF1D8, symSize: 0x68 }
  - { offset: 0x10AE90, size: 0x8, addend: 0x0, symName: ____ZN12_GLOBAL__N_110makeSetterIU8__strongPU18objcproto8RLMFloat8NSNumberS4_EEP11objc_objectP11RLMProperty_block_invoke_2, symObjAddr: 0xEDA4, symBinAddr: 0x3EF240, symSize: 0x150 }
  - { offset: 0x10B10C, size: 0x8, addend: 0x0, symName: ____ZN12_GLOBAL__N_110makeSetterIffEEP11objc_objectP11RLMProperty_block_invoke, symObjAddr: 0xEEF4, symBinAddr: 0x3EF390, symSize: 0x4C }
  - { offset: 0x10B160, size: 0x8, addend: 0x0, symName: ____ZN12_GLOBAL__N_110makeSetterIffEEP11objc_objectP11RLMProperty_block_invoke_2, symObjAddr: 0xEF40, symBinAddr: 0x3EF3DC, symSize: 0x10 }
  - { offset: 0x10B1CA, size: 0x8, addend: 0x0, symName: ____ZN12_GLOBAL__N_110makeSetterIU8__strongPU19objcproto9RLMDouble8NSNumberS4_EEP11objc_objectP11RLMProperty_block_invoke, symObjAddr: 0xEF50, symBinAddr: 0x3EF3EC, symSize: 0x68 }
  - { offset: 0x10B28F, size: 0x8, addend: 0x0, symName: ____ZN12_GLOBAL__N_110makeSetterIU8__strongPU19objcproto9RLMDouble8NSNumberS4_EEP11objc_objectP11RLMProperty_block_invoke_2, symObjAddr: 0xEFB8, symBinAddr: 0x3EF454, symSize: 0x150 }
  - { offset: 0x10B50B, size: 0x8, addend: 0x0, symName: ____ZN12_GLOBAL__N_110makeSetterIddEEP11objc_objectP11RLMProperty_block_invoke, symObjAddr: 0xF108, symBinAddr: 0x3EF5A4, symSize: 0x4C }
  - { offset: 0x10B55F, size: 0x8, addend: 0x0, symName: ____ZN12_GLOBAL__N_110makeSetterIddEEP11objc_objectP11RLMProperty_block_invoke_2, symObjAddr: 0xF154, symBinAddr: 0x3EF5F0, symSize: 0x10 }
  - { offset: 0x10B5C9, size: 0x8, addend: 0x0, symName: ____ZN12_GLOBAL__N_110makeSetterIU8__strongPU17objcproto7RLMBool8NSNumberS4_EEP11objc_objectP11RLMProperty_block_invoke, symObjAddr: 0xF164, symBinAddr: 0x3EF600, symSize: 0x68 }
  - { offset: 0x10B68E, size: 0x8, addend: 0x0, symName: ____ZN12_GLOBAL__N_110makeSetterIU8__strongPU17objcproto7RLMBool8NSNumberS4_EEP11objc_objectP11RLMProperty_block_invoke_2, symObjAddr: 0xF1CC, symBinAddr: 0x3EF668, symSize: 0x154 }
  - { offset: 0x10B90A, size: 0x8, addend: 0x0, symName: ____ZN12_GLOBAL__N_110makeSetterIbbEEP11objc_objectP11RLMProperty_block_invoke, symObjAddr: 0xF320, symBinAddr: 0x3EF7BC, symSize: 0x4C }
  - { offset: 0x10B95E, size: 0x8, addend: 0x0, symName: ____ZN12_GLOBAL__N_110makeSetterIbbEEP11objc_objectP11RLMProperty_block_invoke_2, symObjAddr: 0xF36C, symBinAddr: 0x3EF808, symSize: 0x10 }
  - { offset: 0x10B9CC, size: 0x8, addend: 0x0, symName: ____ZN12_GLOBAL__N_110makeSetterIU8__strongP8NSStringS3_EEP11objc_objectP11RLMProperty_block_invoke, symObjAddr: 0xF37C, symBinAddr: 0x3EF818, symSize: 0x68 }
  - { offset: 0x10BA23, size: 0x8, addend: 0x0, symName: ____ZN12_GLOBAL__N_110makeSetterIU8__strongP8NSStringS3_EEP11objc_objectP11RLMProperty_block_invoke_2, symObjAddr: 0xF3E4, symBinAddr: 0x3EF880, symSize: 0x10 }
  - { offset: 0x10BA8C, size: 0x8, addend: 0x0, symName: ____ZN12_GLOBAL__N_110makeSetterIU8__strongP6NSDateS3_EEP11objc_objectP11RLMProperty_block_invoke, symObjAddr: 0xF3F4, symBinAddr: 0x3EF890, symSize: 0x68 }
  - { offset: 0x10BAE3, size: 0x8, addend: 0x0, symName: ____ZN12_GLOBAL__N_110makeSetterIU8__strongP6NSDateS3_EEP11objc_objectP11RLMProperty_block_invoke_2, symObjAddr: 0xF45C, symBinAddr: 0x3EF8F8, symSize: 0x10 }
  - { offset: 0x10BB4C, size: 0x8, addend: 0x0, symName: ____ZN12_GLOBAL__N_110makeSetterIU8__strongP6NSDataS3_EEP11objc_objectP11RLMProperty_block_invoke, symObjAddr: 0xF46C, symBinAddr: 0x3EF908, symSize: 0x68 }
  - { offset: 0x10BBA3, size: 0x8, addend: 0x0, symName: ____ZN12_GLOBAL__N_110makeSetterIU8__strongP6NSDataS3_EEP11objc_objectP11RLMProperty_block_invoke_2, symObjAddr: 0xF4D4, symBinAddr: 0x3EF970, symSize: 0x10 }
  - { offset: 0x10BC0C, size: 0x8, addend: 0x0, symName: ____ZN12_GLOBAL__N_110makeSetterIU8__strongPU18objcproto8RLMValue11objc_objectS3_EEP11objc_objectP11RLMProperty_block_invoke, symObjAddr: 0xF4E4, symBinAddr: 0x3EF980, symSize: 0x68 }
  - { offset: 0x10BC63, size: 0x8, addend: 0x0, symName: ____ZN12_GLOBAL__N_110makeSetterIU8__strongPU18objcproto8RLMValue11objc_objectS3_EEP11objc_objectP11RLMProperty_block_invoke_2, symObjAddr: 0xF54C, symBinAddr: 0x3EF9E8, symSize: 0x10 }
  - { offset: 0x10BCCC, size: 0x8, addend: 0x0, symName: ____ZN12_GLOBAL__N_110makeSetterIU8__strongP13RLMObjectBaseS3_EEP11objc_objectP11RLMProperty_block_invoke, symObjAddr: 0xF55C, symBinAddr: 0x3EF9F8, symSize: 0x68 }
  - { offset: 0x10BD23, size: 0x8, addend: 0x0, symName: ____ZN12_GLOBAL__N_110makeSetterIU8__strongP13RLMObjectBaseS3_EEP11objc_objectP11RLMProperty_block_invoke_2, symObjAddr: 0xF5C4, symBinAddr: 0x3EFA60, symSize: 0x10 }
  - { offset: 0x10BD8C, size: 0x8, addend: 0x0, symName: ____ZN12_GLOBAL__N_110makeSetterIU8__strongP11RLMObjectIdS3_EEP11objc_objectP11RLMProperty_block_invoke, symObjAddr: 0xF5D4, symBinAddr: 0x3EFA70, symSize: 0x68 }
  - { offset: 0x10BDE3, size: 0x8, addend: 0x0, symName: ____ZN12_GLOBAL__N_110makeSetterIU8__strongP11RLMObjectIdS3_EEP11objc_objectP11RLMProperty_block_invoke_2, symObjAddr: 0xF63C, symBinAddr: 0x3EFAD8, symSize: 0x10 }
  - { offset: 0x10BE4C, size: 0x8, addend: 0x0, symName: ____ZN12_GLOBAL__N_110makeSetterIU8__strongP13RLMDecimal128S3_EEP11objc_objectP11RLMProperty_block_invoke, symObjAddr: 0xF64C, symBinAddr: 0x3EFAE8, symSize: 0x68 }
  - { offset: 0x10BEA3, size: 0x8, addend: 0x0, symName: ____ZN12_GLOBAL__N_110makeSetterIU8__strongP13RLMDecimal128S3_EEP11objc_objectP11RLMProperty_block_invoke_2, symObjAddr: 0xF6B4, symBinAddr: 0x3EFB50, symSize: 0x10 }
  - { offset: 0x10BF0C, size: 0x8, addend: 0x0, symName: ____ZN12_GLOBAL__N_110makeSetterIU8__strongP6NSUUIDS3_EEP11objc_objectP11RLMProperty_block_invoke, symObjAddr: 0xF6C4, symBinAddr: 0x3EFB60, symSize: 0x68 }
  - { offset: 0x10BF63, size: 0x8, addend: 0x0, symName: ____ZN12_GLOBAL__N_110makeSetterIU8__strongP6NSUUIDS3_EEP11objc_objectP11RLMProperty_block_invoke_2, symObjAddr: 0xF72C, symBinAddr: 0x3EFBC8, symSize: 0x10 }
  - { offset: 0x10BFCB, size: 0x8, addend: 0x0, symName: ____ZN12_GLOBAL__N_115unmanagedGetterEP11RLMPropertyPKc_block_invoke, symObjAddr: 0xF73C, symBinAddr: 0x3EFBD8, symSize: 0x24 }
  - { offset: 0x10C000, size: 0x8, addend: 0x0, symName: ____ZN12_GLOBAL__N_115unmanagedGetterEP11RLMPropertyPKc_block_invoke_2, symObjAddr: 0xF8A8, symBinAddr: 0x3EFD44, symSize: 0xAC }
  - { offset: 0x10C0BA, size: 0x8, addend: 0x0, symName: ___copy_helper_block_ea8_32s40s, symObjAddr: 0xFAF4, symBinAddr: 0x3EFF90, symSize: 0x28 }
  - { offset: 0x10C0E3, size: 0x8, addend: 0x0, symName: ___destroy_helper_block_ea8_32s40s, symObjAddr: 0xFB1C, symBinAddr: 0x3EFFB8, symSize: 0x28 }
  - { offset: 0x10C101, size: 0x8, addend: 0x0, symName: ____ZN12_GLOBAL__N_115unmanagedGetterEP11RLMPropertyPKc_block_invoke.165, symObjAddr: 0xFB44, symBinAddr: 0x3EFFE0, symSize: 0xAC }
  - { offset: 0x10C1CB, size: 0x8, addend: 0x0, symName: ____ZN12_GLOBAL__N_115unmanagedSetterEP11RLMPropertyPKc_block_invoke, symObjAddr: 0xFBF0, symBinAddr: 0x3F008C, symSize: 0x1F0 }
  - { offset: 0x10C29A, size: 0x8, addend: 0x0, symName: __ZN5realm12object_store3Set6assignIRU8__strongP11objc_object18RLMAccessorContextEEvRT0_OT_NS_12CreatePolicyE, symObjAddr: 0x10640, symBinAddr: 0x3F0A8C, symSize: 0x94 }
  - { offset: 0x10C378, size: 0x8, addend: 0x0, symName: __ZN5realm12_GLOBAL__N_112ValueUpdaterIU8__strongP11objc_object18RLMAccessorContextEclIxEEvPT_, symObjAddr: 0x10984, symBinAddr: 0x3F0D7C, symSize: 0x68 }
  - { offset: 0x10C425, size: 0x8, addend: 0x0, symName: __ZN5realm12_GLOBAL__N_112ValueUpdaterIU8__strongP11objc_object18RLMAccessorContextEclINS_9TimestampEEEvPT_, symObjAddr: 0x10F08, symBinAddr: 0x3F1300, symSize: 0xA0 }
  - { offset: 0x10C50F, size: 0x8, addend: 0x0, symName: __ZN5realm12_GLOBAL__N_112ValueUpdaterIU8__strongP11objc_object18RLMAccessorContextEclINS_10Decimal128EEEvPT_, symObjAddr: 0x113B4, symBinAddr: 0x3F17AC, symSize: 0x74 }
  - { offset: 0x10C5DA, size: 0x8, addend: 0x0, symName: __ZN5realm12_GLOBAL__N_112ValueUpdaterIU8__strongP11objc_object18RLMAccessorContextEclINS_10StringDataEEEvPT_, symObjAddr: 0x10DC8, symBinAddr: 0x3F11C0, symSize: 0xA0 }
  - { offset: 0x10C7EE, size: 0x8, addend: 0x0, symName: __ZN5realm12_GLOBAL__N_112ValueUpdaterIU8__strongP11objc_object18RLMAccessorContextEclIbEEvPT_, symObjAddr: 0x10AD0, symBinAddr: 0x3F0EC8, symSize: 0x68 }
  - { offset: 0x10C897, size: 0x8, addend: 0x0, symName: __ZN5realm12_GLOBAL__N_112ValueUpdaterIU8__strongP11objc_object18RLMAccessorContextEclINS_10BinaryDataEEEvPT_, symObjAddr: 0x10E68, symBinAddr: 0x3F1260, symSize: 0xA0 }
  - { offset: 0x10CAAA, size: 0x8, addend: 0x0, symName: __ZN5realm12_GLOBAL__N_112ValueUpdaterIU8__strongP11objc_object18RLMAccessorContextEclEPNS_3ObjE, symObjAddr: 0x10FA8, symBinAddr: 0x3F13A0, symSize: 0x1C0 }
  - { offset: 0x10CD28, size: 0x8, addend: 0x0, symName: __ZN5realm12_GLOBAL__N_112ValueUpdaterIU8__strongP11objc_object18RLMAccessorContextEclINS_8ObjectIdEEEvPT_, symObjAddr: 0x112DC, symBinAddr: 0x3F16D4, symSize: 0xD8 }
  - { offset: 0x10CF09, size: 0x8, addend: 0x0, symName: __ZN5realm12_GLOBAL__N_112ValueUpdaterIU8__strongP11objc_object18RLMAccessorContextEclINS_4UUIDEEEvPT_, symObjAddr: 0x11520, symBinAddr: 0x3F1918, symSize: 0xCC }
  - { offset: 0x10D0EA, size: 0x8, addend: 0x0, symName: __ZN5realm12_GLOBAL__N_112ValueUpdaterIU8__strongP11objc_object18RLMAccessorContextEclIfEEvPT_, symObjAddr: 0x10C14, symBinAddr: 0x3F100C, symSize: 0x68 }
  - { offset: 0x10D197, size: 0x8, addend: 0x0, symName: __ZN5realm12_GLOBAL__N_112ValueUpdaterIU8__strongP11objc_object18RLMAccessorContextEclIdEEvPT_, symObjAddr: 0x10D60, symBinAddr: 0x3F1158, symSize: 0x68 }
  - { offset: 0x10D244, size: 0x8, addend: 0x0, symName: __ZN5realm12_GLOBAL__N_112ValueUpdaterIU8__strongP11objc_object18RLMAccessorContextEclINSt3__18optionalIxEEEEvPT_, symObjAddr: 0x108B4, symBinAddr: 0x3F0CAC, symSize: 0xD0 }
  - { offset: 0x10D394, size: 0x8, addend: 0x0, symName: __ZN5realm12_GLOBAL__N_112ValueUpdaterIU8__strongP11objc_object18RLMAccessorContextEclINSt3__18optionalIbEEEEvPT_, symObjAddr: 0x109EC, symBinAddr: 0x3F0DE4, symSize: 0xE4 }
  - { offset: 0x10D4E4, size: 0x8, addend: 0x0, symName: __ZN5realm12_GLOBAL__N_112ValueUpdaterIU8__strongP11objc_object18RLMAccessorContextEclINSt3__18optionalINS_8ObjectIdEEEEEvPT_, symObjAddr: 0x11168, symBinAddr: 0x3F1560, symSize: 0x174 }
  - { offset: 0x10D794, size: 0x8, addend: 0x0, symName: __ZN5realm12_GLOBAL__N_112ValueUpdaterIU8__strongP11objc_object18RLMAccessorContextEclINSt3__18optionalINS_4UUIDEEEEEvPT_, symObjAddr: 0x11428, symBinAddr: 0x3F1820, symSize: 0xF8 }
  - { offset: 0x10DA0B, size: 0x8, addend: 0x0, symName: __ZN5realm12_GLOBAL__N_112ValueUpdaterIU8__strongP11objc_object18RLMAccessorContextEclINSt3__18optionalIfEEEEvPT_, symObjAddr: 0x10B38, symBinAddr: 0x3F0F30, symSize: 0xDC }
  - { offset: 0x10DB88, size: 0x8, addend: 0x0, symName: __ZN5realm12_GLOBAL__N_112ValueUpdaterIU8__strongP11objc_object18RLMAccessorContextEclINSt3__18optionalIdEEEEvPT_, symObjAddr: 0x10C7C, symBinAddr: 0x3F1074, symSize: 0xE4 }
  - { offset: 0x10DCD7, size: 0x8, addend: 0x0, symName: __ZN27RLMStatelessAccessorContext20enumerate_collectionIZN5realm12object_store3Set6assignIRU8__strongP11objc_object18RLMAccessorContextEEvRT0_OT_NS1_12CreatePolicyEEUlSD_E_EEvS6_SD_, symObjAddr: 0x10728, symBinAddr: 0x3F0B20, symSize: 0x18C }
  - { offset: 0x10DDC5, size: 0x8, addend: 0x0, symName: __ZN27RLMStatelessAccessorContext10null_valueEv, symObjAddr: 0x11D00, symBinAddr: 0x3F20F8, symSize: 0x28 }
  - { offset: 0x10DDF0, size: 0x8, addend: 0x0, symName: __ZN5realm7ResultsC1ENSt3__110shared_ptrINS_5RealmEEERKNS_3ObjENS_8TableKeyENS_6ColKeyE, symObjAddr: 0x11F84, symBinAddr: 0x3F232C, symSize: 0x1B4 }
  - { offset: 0x11355C, size: 0x8, addend: 0x0, symName: __Z17RLMHashBase16DataPKvm, symObjAddr: 0x0, symBinAddr: 0x3F2E68, symSize: 0xB4 }
  - { offset: 0x11527B, size: 0x8, addend: 0x0, symName: __Z17RLMHashBase16DataPKvm, symObjAddr: 0x0, symBinAddr: 0x3F2E68, symSize: 0xB4 }
  - { offset: 0x11535D, size: 0x8, addend: 0x0, symName: __Z16RLMSendAnalyticsP21RLMRealmConfigurationP9RLMSchema, symObjAddr: 0xB4, symBinAddr: 0x3F2F1C, symSize: 0x124 }
  - { offset: 0x11650F, size: 0x8, addend: 0x0, symName: ____Z16RLMSendAnalyticsP21RLMRealmConfigurationP9RLMSchema_block_invoke, symObjAddr: 0x1D8, symBinAddr: 0x3F3040, symSize: 0x1810 }
  - { offset: 0x118A3E, size: 0x8, addend: 0x0, symName: '-[RLMAPIKeyAuth client]', symObjAddr: 0x0, symBinAddr: 0x3F4850, symSize: 0xBC }
  - { offset: 0x15910D, size: 0x8, addend: 0x0, symName: '-[RLMAPIKeyAuth client]', symObjAddr: 0x0, symBinAddr: 0x3F4850, symSize: 0xBC }
  - { offset: 0x159327, size: 0x8, addend: 0x0, symName: '-[RLMAPIKeyAuth currentUser]', symObjAddr: 0xBC, symBinAddr: 0x3F490C, symSize: 0xB8 }
  - { offset: 0x159BFC, size: 0x8, addend: 0x0, symName: '-[RLMAPIKeyAuth createAPIKeyWithName:completion:]', symObjAddr: 0x174, symBinAddr: 0x3F49C4, symSize: 0x198 }
  - { offset: 0x15A3E5, size: 0x8, addend: 0x0, symName: __ZL14wrapCompletionU13block_pointerFvP13RLMUserAPIKeyP7NSErrorE, symObjAddr: 0x30C, symBinAddr: 0x3F4B5C, symSize: 0x54 }
  - { offset: 0x15A8F1, size: 0x8, addend: 0x0, symName: '-[RLMAPIKeyAuth fetchAPIKey:completion:]', symObjAddr: 0x360, symBinAddr: 0x3F4BB0, symSize: 0x1A8 }
  - { offset: 0x15B264, size: 0x8, addend: 0x0, symName: '-[RLMAPIKeyAuth fetchAPIKeysWithCompletion:]', symObjAddr: 0x508, symBinAddr: 0x3F4D58, symSize: 0x170 }
  - { offset: 0x15B96E, size: 0x8, addend: 0x0, symName: '___44-[RLMAPIKeyAuth fetchAPIKeysWithCompletion:]_block_invoke', symObjAddr: 0x678, symBinAddr: 0x3F4EC8, symSize: 0x260 }
  - { offset: 0x15C1AC, size: 0x8, addend: 0x0, symName: __ZNSt3__120__optional_copy_baseINS_12basic_stringIcNS_11char_traitsIcEENS_9allocatorIcEEEELb0EEC2B8ne180100ERKS7_, symObjAddr: 0x124C, symBinAddr: 0x3F5980, symSize: 0x50 }
  - { offset: 0x15C58B, size: 0x8, addend: 0x0, symName: ___copy_helper_block_ea8_32b, symObjAddr: 0x920, symBinAddr: 0x3F5128, symSize: 0x10 }
  - { offset: 0x15C67D, size: 0x8, addend: 0x0, symName: '-[RLMAPIKeyAuth deleteAPIKey:completion:]', symObjAddr: 0x930, symBinAddr: 0x3F5138, symSize: 0x17C }
  - { offset: 0x15C989, size: 0x8, addend: 0x0, symName: '-[RLMAPIKeyAuth enableAPIKey:completion:]', symObjAddr: 0xAAC, symBinAddr: 0x3F52B4, symSize: 0x17C }
  - { offset: 0x15CC95, size: 0x8, addend: 0x0, symName: '-[RLMAPIKeyAuth disableAPIKey:completion:]', symObjAddr: 0xC28, symBinAddr: 0x3F5430, symSize: 0x17C }
  - { offset: 0x15CFBD, size: 0x8, addend: 0x0, symName: '__ZN5realm4util14UniqueFunctionIFvNS_3app3App10UserAPIKeyENSt3__18optionalINS2_8AppErrorEEEEE12SpecificImplIZL14wrapCompletionU13block_pointerFvP13RLMUserAPIKeyP7NSErrorEE3$_0ED1Ev', symObjAddr: 0xDA4, symBinAddr: 0x3F55AC, symSize: 0x28 }
  - { offset: 0x15D05A, size: 0x8, addend: 0x0, symName: '__ZN5realm4util14UniqueFunctionIFvNS_3app3App10UserAPIKeyENSt3__18optionalINS2_8AppErrorEEEEE12SpecificImplIZL14wrapCompletionU13block_pointerFvP13RLMUserAPIKeyP7NSErrorEE3$_0ED0Ev', symObjAddr: 0xDCC, symBinAddr: 0x3F55D4, symSize: 0x28 }
  - { offset: 0x15D6E4, size: 0x8, addend: 0x0, symName: '__ZN5realm4util14UniqueFunctionIFvNS_3app3App10UserAPIKeyENSt3__18optionalINS2_8AppErrorEEEEE12SpecificImplIZL14wrapCompletionU13block_pointerFvP13RLMUserAPIKeyP7NSErrorEE3$_0E4callEOS4_OS8_', symObjAddr: 0xDF4, symBinAddr: 0x3F55FC, symSize: 0x2BC }
  - { offset: 0x15E9CA, size: 0x8, addend: 0x0, symName: __ZNSt3__124__optional_destruct_baseIN5realm3app8AppErrorELb0EED2B8ne180100Ev, symObjAddr: 0x11D4, symBinAddr: 0x3F5908, symSize: 0x78 }
  - { offset: 0x15EDEA, size: 0x8, addend: 0x0, symName: __ZN5realm4util8bind_ptrINS_6Status9ErrorInfoEE6unbindEv, symObjAddr: 0x1184, symBinAddr: 0x3F58B8, symSize: 0x50 }
  - { offset: 0x15F0A4, size: 0x8, addend: 0x0, symName: __ZNSt3__123__optional_storage_baseINS_12basic_stringIcNS_11char_traitsIcEENS_9allocatorIcEEEELb0EE16__construct_fromB8ne180100IRKNS_20__optional_copy_baseIS6_Lb0EEEEEvOT_, symObjAddr: 0x129C, symBinAddr: 0x3F59D0, symSize: 0x58 }
  - { offset: 0x15F280, size: 0x8, addend: 0x0, symName: __ZN5realm4util14UniqueFunctionIFvONS_3app3App10UserAPIKeyENSt3__18optionalINS2_8AppErrorEEEEE12SpecificImplINS1_IFvS4_S9_EEEED1Ev, symObjAddr: 0x1394, symBinAddr: 0x3F5A28, symSize: 0x40 }
  - { offset: 0x15F39A, size: 0x8, addend: 0x0, symName: __ZN5realm4util14UniqueFunctionIFvONS_3app3App10UserAPIKeyENSt3__18optionalINS2_8AppErrorEEEEE12SpecificImplINS1_IFvS4_S9_EEEED0Ev, symObjAddr: 0x13D4, symBinAddr: 0x3F5A68, symSize: 0x40 }
  - { offset: 0x15F52C, size: 0x8, addend: 0x0, symName: __ZN5realm4util14UniqueFunctionIFvONS_3app3App10UserAPIKeyENSt3__18optionalINS2_8AppErrorEEEEE12SpecificImplINS1_IFvS4_S9_EEEE4callES5_OS9_, symObjAddr: 0x1414, symBinAddr: 0x3F5AA8, symSize: 0x198 }
  - { offset: 0x16016C, size: 0x8, addend: 0x0, symName: __ZN5realm4util14UniqueFunctionIFvONSt3__16vectorINS_3app3App10UserAPIKeyENS2_9allocatorIS6_EEEENS2_8optionalINS4_8AppErrorEEEEE12SpecificImplIU8__strongU13block_pointerFvRKS9_SD_EED1Ev, symObjAddr: 0x15AC, symBinAddr: 0x3F5C40, symSize: 0x28 }
  - { offset: 0x1601C9, size: 0x8, addend: 0x0, symName: __ZN5realm4util14UniqueFunctionIFvONSt3__16vectorINS_3app3App10UserAPIKeyENS2_9allocatorIS6_EEEENS2_8optionalINS4_8AppErrorEEEEE12SpecificImplIU8__strongU13block_pointerFvRKS9_SD_EED0Ev, symObjAddr: 0x15D4, symBinAddr: 0x3F5C68, symSize: 0x28 }
  - { offset: 0x160232, size: 0x8, addend: 0x0, symName: __ZN5realm4util14UniqueFunctionIFvONSt3__16vectorINS_3app3App10UserAPIKeyENS2_9allocatorIS6_EEEENS2_8optionalINS4_8AppErrorEEEEE12SpecificImplIU8__strongU13block_pointerFvRKS9_SD_EE4callESA_OSD_, symObjAddr: 0x15FC, symBinAddr: 0x3F5C90, symSize: 0xAC }
  - { offset: 0x162CCC, size: 0x8, addend: 0x0, symName: __MergedGlobals, symObjAddr: 0x244338, symBinAddr: 0x667028, symSize: 0x0 }
  - { offset: 0x162D0D, size: 0x8, addend: 0x0, symName: __ZNSt3__119piecewise_constructE, symObjAddr: 0x98E5, symBinAddr: 0x59AFAE, symSize: 0x0 }
  - { offset: 0x195CAB, size: 0x8, addend: 0x0, symName: __ZNSt3__1ssB8ne180100IcNS_11char_traitsIcEENS_9allocatorIcEEEEDaRKNS_12basic_stringIT_T0_T1_EESC_, symObjAddr: 0x4318, symBinAddr: 0x3F9B94, symSize: 0x38 }
  - { offset: 0x195CEE, size: 0x8, addend: 0x0, symName: __ZNSt3__1ssB8ne180100IcNS_11char_traitsIcEENS_9allocatorIcEEEEDaRKNS_12basic_stringIT_T0_T1_EESC_, symObjAddr: 0x4318, symBinAddr: 0x3F9B94, symSize: 0x38 }
  - { offset: 0x195D0E, size: 0x8, addend: 0x0, symName: __ZNSt3__1ssB8ne180100IcNS_11char_traitsIcEENS_9allocatorIcEEEEDaRKNS_12basic_stringIT_T0_T1_EESC_, symObjAddr: 0x4318, symBinAddr: 0x3F9B94, symSize: 0x38 }
  - { offset: 0x195D2E, size: 0x8, addend: 0x0, symName: __ZNSt3__1ssB8ne180100IcNS_11char_traitsIcEENS_9allocatorIcEEEEDaRKNS_12basic_stringIT_T0_T1_EESC_, symObjAddr: 0x4318, symBinAddr: 0x3F9B94, symSize: 0x38 }
  - { offset: 0x195D4E, size: 0x8, addend: 0x0, symName: __ZNSt3__1ssB8ne180100IcNS_11char_traitsIcEENS_9allocatorIcEEEEDaRKNS_12basic_stringIT_T0_T1_EESC_, symObjAddr: 0x4318, symBinAddr: 0x3F9B94, symSize: 0x38 }
  - { offset: 0x195E15, size: 0x8, addend: 0x0, symName: __ZNSt3__127__tree_balance_after_insertB8ne180100IPNS_16__tree_node_baseIPvEEEEvT_S5_, symObjAddr: 0x43AC, symBinAddr: 0x3F9C28, symSize: 0x198 }
  - { offset: 0x19611D, size: 0x8, addend: 0x0, symName: __ZNSt3__1ssB8ne180100IcNS_11char_traitsIcEEEEDaNS_17basic_string_viewIT_T0_EENS_13type_identityIS7_E4typeE, symObjAddr: 0x4350, symBinAddr: 0x3F9BCC, symSize: 0x5C }
  - { offset: 0x19623B, size: 0x8, addend: 0x0, symName: __ZNSt3__112__destroy_atB8ne180100INS_4pairIKNS_12basic_stringIcNS_11char_traitsIcEENS_9allocatorIcEEEES7_EELi0EEEvPT_, symObjAddr: 0x4588, symBinAddr: 0x3F9E04, symSize: 0x44 }
  - { offset: 0x197A68, size: 0x8, addend: 0x0, symName: __MergedGlobals, symObjAddr: 0x244338, symBinAddr: 0x667028, symSize: 0x0 }
  - { offset: 0x1A8E0D, size: 0x8, addend: 0x0, symName: '-[RLMApp subscribe:]', symObjAddr: 0x29F4, symBinAddr: 0x3F8708, symSize: 0x688 }
  - { offset: 0x1AAF24, size: 0x8, addend: 0x0, symName: '-[RLMAppConfiguration init]', symObjAddr: 0x0, symBinAddr: 0x3F5D3C, symSize: 0x34C }
  - { offset: 0x1AB20C, size: 0x8, addend: 0x0, symName: __ZL22RLMNSStringToStdStringRNSt3__112basic_stringIcNS_11char_traitsIcEENS_9allocatorIcEEEEP8NSString, symObjAddr: 0x34C, symBinAddr: 0x3F6088, symSize: 0xE0 }
  - { offset: 0x1AB369, size: 0x8, addend: 0x0, symName: __ZNSt3__112basic_stringIcNS_11char_traitsIcEENS_9allocatorIcEEE17__assign_externalEPKc, symObjAddr: 0x31B8, symBinAddr: 0x3F8DE8, symSize: 0x34 }
  - { offset: 0x1AB46D, size: 0x8, addend: 0x0, symName: '-[RLMAppConfiguration initWithBaseURL:transport:localAppName:localAppVersion:]', symObjAddr: 0x42C, symBinAddr: 0x3F6168, symSize: 0x8 }
  - { offset: 0x1AB4DA, size: 0x8, addend: 0x0, symName: '-[RLMAppConfiguration initWithBaseURL:transport:localAppName:localAppVersion:defaultRequestTimeoutMS:]', symObjAddr: 0x434, symBinAddr: 0x3F6170, symSize: 0x130 }
  - { offset: 0x1AB561, size: 0x8, addend: 0x0, symName: '-[RLMAppConfiguration initWithBaseURL:transport:]', symObjAddr: 0x564, symBinAddr: 0x3F62A0, symSize: 0x8 }
  - { offset: 0x1AB5B2, size: 0x8, addend: 0x0, symName: '-[RLMAppConfiguration initWithBaseURL:transport:defaultRequestTimeoutMS:]', symObjAddr: 0x56C, symBinAddr: 0x3F62A8, symSize: 0xC8 }
  - { offset: 0x1ABE5D, size: 0x8, addend: 0x0, symName: '-[RLMAppConfiguration copyWithZone:]', symObjAddr: 0x634, symBinAddr: 0x3F6370, symSize: 0x428 }
  - { offset: 0x1ACA81, size: 0x8, addend: 0x0, symName: __ZNSt3__123__optional_storage_baseINS_12basic_stringIcNS_11char_traitsIcEENS_9allocatorIcEEEELb0EE13__assign_fromB8ne180100IRKNS_27__optional_copy_assign_baseIS6_Lb0EEEEEvOT_, symObjAddr: 0x3334, symBinAddr: 0x3F8E1C, symSize: 0x90 }
  - { offset: 0x1ACD36, size: 0x8, addend: 0x0, symName: __ZNSt3__110__function12__value_funcIFNS_10shared_ptrIN5realm4util6LoggerEEENS4_11LogCategory5LevelEEEC2B8ne180100ERKSA_, symObjAddr: 0x33C4, symBinAddr: 0x3F8EAC, symSize: 0x64 }
  - { offset: 0x1ACD89, size: 0x8, addend: 0x0, symName: __ZNSt3__16vectorIcNS_9allocatorIcEEE18__assign_with_sizeB8ne180100IPcS5_EEvT_T0_l, symObjAddr: 0x34C8, symBinAddr: 0x3F8F10, symSize: 0x10C }
  - { offset: 0x1AD454, size: 0x8, addend: 0x0, symName: __ZNSt3__16vectorIcNS_9allocatorIcEEE11__vallocateB8ne180100Em, symObjAddr: 0x35D4, symBinAddr: 0x3F901C, symSize: 0x40 }
  - { offset: 0x1AD473, size: 0x8, addend: 0x0, symName: __ZNSt3__16vectorIcNS_9allocatorIcEEE16__init_with_sizeB8ne180100IPcS5_EEvT_T0_m, symObjAddr: 0x3628, symBinAddr: 0x3F9070, symSize: 0x78 }
  - { offset: 0x1AD92D, size: 0x8, addend: 0x0, symName: '-[RLMAppConfiguration appId]', symObjAddr: 0xA5C, symBinAddr: 0x3F6798, symSize: 0x58 }
  - { offset: 0x1AD9F4, size: 0x8, addend: 0x0, symName: '-[RLMAppConfiguration setAppId:]', symObjAddr: 0xAB4, symBinAddr: 0x3F67F0, symSize: 0x74 }
  - { offset: 0x1ADAF4, size: 0x8, addend: 0x0, symName: '-[RLMAppConfiguration baseURL]', symObjAddr: 0xB28, symBinAddr: 0x3F6864, symSize: 0xAC }
  - { offset: 0x1ADB51, size: 0x8, addend: 0x0, symName: __ZL17getOptionalStringRKNSt3__18optionalINS_12basic_stringIcNS_11char_traitsIcEENS_9allocatorIcEEEEEE, symObjAddr: 0xBD4, symBinAddr: 0x3F6910, symSize: 0x68 }
  - { offset: 0x1ADE10, size: 0x8, addend: 0x0, symName: '-[RLMAppConfiguration setBaseURL:]', symObjAddr: 0xC3C, symBinAddr: 0x3F6978, symSize: 0xB8 }
  - { offset: 0x1AE219, size: 0x8, addend: 0x0, symName: '-[RLMAppConfiguration transport]', symObjAddr: 0xCF4, symBinAddr: 0x3F6A30, symSize: 0xC }
  - { offset: 0x1AE253, size: 0x8, addend: 0x0, symName: '-[RLMAppConfiguration transport]', symObjAddr: 0xCF4, symBinAddr: 0x3F6A30, symSize: 0xC }
  - { offset: 0x1AE55E, size: 0x8, addend: 0x0, symName: '-[RLMAppConfiguration setTransport:]', symObjAddr: 0xD00, symBinAddr: 0x3F6A3C, symSize: 0xCC }
  - { offset: 0x1AE908, size: 0x8, addend: 0x0, symName: '-[RLMAppConfiguration defaultRequestTimeoutMS]', symObjAddr: 0xDCC, symBinAddr: 0x3F6B08, symSize: 0x18 }
  - { offset: 0x1AE942, size: 0x8, addend: 0x0, symName: '-[RLMAppConfiguration defaultRequestTimeoutMS]', symObjAddr: 0xDCC, symBinAddr: 0x3F6B08, symSize: 0x18 }
  - { offset: 0x1AE962, size: 0x8, addend: 0x0, symName: '-[RLMAppConfiguration defaultRequestTimeoutMS]', symObjAddr: 0xDCC, symBinAddr: 0x3F6B08, symSize: 0x18 }
  - { offset: 0x1AE982, size: 0x8, addend: 0x0, symName: '-[RLMAppConfiguration setDefaultRequestTimeoutMS:]', symObjAddr: 0xDE4, symBinAddr: 0x3F6B20, symSize: 0x10 }
  - { offset: 0x1AE9C1, size: 0x8, addend: 0x0, symName: '-[RLMAppConfiguration enableSessionMultiplexing]', symObjAddr: 0xDF4, symBinAddr: 0x3F6B30, symSize: 0x8 }
  - { offset: 0x1AE9F8, size: 0x8, addend: 0x0, symName: '-[RLMAppConfiguration setEnableSessionMultiplexing:]', symObjAddr: 0xDFC, symBinAddr: 0x3F6B38, symSize: 0x8 }
  - { offset: 0x1AEA35, size: 0x8, addend: 0x0, symName: '-[RLMAppConfiguration encryptMetadata]', symObjAddr: 0xE04, symBinAddr: 0x3F6B40, symSize: 0x10 }
  - { offset: 0x1AEA6D, size: 0x8, addend: 0x0, symName: '-[RLMAppConfiguration setEncryptMetadata:]', symObjAddr: 0xE14, symBinAddr: 0x3F6B50, symSize: 0x8 }
  - { offset: 0x1AEAB3, size: 0x8, addend: 0x0, symName: '-[RLMAppConfiguration rootDirectory]', symObjAddr: 0xE1C, symBinAddr: 0x3F6B58, symSize: 0xA4 }
  - { offset: 0x1AEB7D, size: 0x8, addend: 0x0, symName: '-[RLMAppConfiguration setRootDirectory:]', symObjAddr: 0xEC0, symBinAddr: 0x3F6BFC, symSize: 0x54 }
  - { offset: 0x1AEBCF, size: 0x8, addend: 0x0, symName: '-[RLMAppConfiguration syncTimeouts]', symObjAddr: 0xF14, symBinAddr: 0x3F6C50, symSize: 0x4C }
  - { offset: 0x1AEC07, size: 0x8, addend: 0x0, symName: '-[RLMAppConfiguration setSyncTimeouts:]', symObjAddr: 0xF60, symBinAddr: 0x3F6C9C, symSize: 0x20 }
  - { offset: 0x1AEC48, size: 0x8, addend: 0x0, symName: '-[RLMAppConfiguration localAppName]', symObjAddr: 0xF80, symBinAddr: 0x3F6CBC, symSize: 0x8 }
  - { offset: 0x1AEC7F, size: 0x8, addend: 0x0, symName: '-[RLMAppConfiguration setLocalAppName:]', symObjAddr: 0xF88, symBinAddr: 0x3F6CC4, symSize: 0xC }
  - { offset: 0x1AECC0, size: 0x8, addend: 0x0, symName: '-[RLMAppConfiguration localAppVersion]', symObjAddr: 0xF94, symBinAddr: 0x3F6CD0, symSize: 0x8 }
  - { offset: 0x1AECF7, size: 0x8, addend: 0x0, symName: '-[RLMAppConfiguration setLocalAppVersion:]', symObjAddr: 0xF9C, symBinAddr: 0x3F6CD8, symSize: 0xC }
  - { offset: 0x1AED54, size: 0x8, addend: 0x0, symName: '-[RLMAppConfiguration .cxx_destruct]', symObjAddr: 0xFA8, symBinAddr: 0x3F6CE4, symSize: 0x38 }
  - { offset: 0x1AF9AB, size: 0x8, addend: 0x0, symName: '-[RLMAppConfiguration .cxx_construct]', symObjAddr: 0xFE0, symBinAddr: 0x3F6D1C, symSize: 0x1A4 }
  - { offset: 0x1B0E7E, size: 0x8, addend: 0x0, symName: '-[RLMAppSubscriptionToken initWithApp:token:]', symObjAddr: 0x1184, symBinAddr: 0x3F6EC0, symSize: 0x80 }
  - { offset: 0x1B0F57, size: 0x8, addend: 0x0, symName: __ZNSt3__110shared_ptrIN5realm3app3AppEEaSB8ne180100EOS4_, symObjAddr: 0x1204, symBinAddr: 0x3F6F40, symSize: 0x5C }
  - { offset: 0x1B11AF, size: 0x8, addend: 0x0, symName: '-[RLMAppSubscriptionToken unsubscribe]', symObjAddr: 0x1260, symBinAddr: 0x3F6F9C, symSize: 0x34 }
  - { offset: 0x1B1239, size: 0x8, addend: 0x0, symName: __ZN5realm12SubscribableINS_3app3AppEE5TokenD2Ev, symObjAddr: 0x4A00, symBinAddr: 0x3F9F68, symSize: 0x224 }
  - { offset: 0x1B18C2, size: 0x8, addend: 0x0, symName: __ZNSt3__110shared_ptrIN5realm3app3AppEE5resetB8ne180100Ev, symObjAddr: 0x1294, symBinAddr: 0x3F6FD0, symSize: 0x54 }
  - { offset: 0x1B1AC8, size: 0x8, addend: 0x0, symName: '-[RLMAppSubscriptionToken .cxx_destruct]', symObjAddr: 0x12E8, symBinAddr: 0x3F7024, symSize: 0x30 }
  - { offset: 0x1B1CE5, size: 0x8, addend: 0x0, symName: '-[RLMAppSubscriptionToken .cxx_construct]', symObjAddr: 0x1318, symBinAddr: 0x3F7054, symSize: 0x10 }
  - { offset: 0x1B1D1E, size: 0x8, addend: 0x0, symName: '-[RLMAppSubscriptionToken .cxx_construct]', symObjAddr: 0x1318, symBinAddr: 0x3F7054, symSize: 0x10 }
  - { offset: 0x1B1D3E, size: 0x8, addend: 0x0, symName: '-[RLMAppSubscriptionToken .cxx_construct]', symObjAddr: 0x1318, symBinAddr: 0x3F7054, symSize: 0x10 }
  - { offset: 0x1B1D5E, size: 0x8, addend: 0x0, symName: '-[RLMAppSubscriptionToken .cxx_construct]', symObjAddr: 0x1318, symBinAddr: 0x3F7054, symSize: 0x10 }
  - { offset: 0x1B1D7E, size: 0x8, addend: 0x0, symName: '-[RLMAppSubscriptionToken .cxx_construct]', symObjAddr: 0x1318, symBinAddr: 0x3F7054, symSize: 0x10 }
  - { offset: 0x1B1D9E, size: 0x8, addend: 0x0, symName: '-[RLMAppSubscriptionToken .cxx_construct]', symObjAddr: 0x1318, symBinAddr: 0x3F7054, symSize: 0x10 }
  - { offset: 0x1B1DBE, size: 0x8, addend: 0x0, symName: '-[RLMAppSubscriptionToken .cxx_construct]', symObjAddr: 0x1318, symBinAddr: 0x3F7054, symSize: 0x10 }
  - { offset: 0x1B1DDE, size: 0x8, addend: 0x0, symName: '-[RLMAppSubscriptionToken .cxx_construct]', symObjAddr: 0x1318, symBinAddr: 0x3F7054, symSize: 0x10 }
  - { offset: 0x1B1DFE, size: 0x8, addend: 0x0, symName: '-[RLMAppSubscriptionToken .cxx_construct]', symObjAddr: 0x1318, symBinAddr: 0x3F7054, symSize: 0x10 }
  - { offset: 0x1B1E23, size: 0x8, addend: 0x0, symName: '+[RLMApp initialize]', symObjAddr: 0x1328, symBinAddr: 0x3F7064, symSize: 0x24 }
  - { offset: 0x1B1EF5, size: 0x8, addend: 0x0, symName: '-[RLMApp initWithApp:config:]', symObjAddr: 0x134C, symBinAddr: 0x3F7088, symSize: 0x140 }
  - { offset: 0x1B2193, size: 0x8, addend: 0x0, symName: '-[RLMApp initWithConfiguration:]', symObjAddr: 0x148C, symBinAddr: 0x3F71C8, symSize: 0x1C8 }
  - { offset: 0x1B264C, size: 0x8, addend: 0x0, symName: '+[RLMApp allApps]', symObjAddr: 0x1654, symBinAddr: 0x3F7390, symSize: 0x64 }
  - { offset: 0x1B27E1, size: 0x8, addend: 0x0, symName: '+[RLMApp resetAppCache]', symObjAddr: 0x16B8, symBinAddr: 0x3F73F4, symSize: 0x54 }
  - { offset: 0x1B2946, size: 0x8, addend: 0x0, symName: '+[RLMApp appWithConfiguration:]', symObjAddr: 0x170C, symBinAddr: 0x3F7448, symSize: 0x130 }
  - { offset: 0x1B2AEA, size: 0x8, addend: 0x0, symName: '+[RLMApp appWithId:configuration:]', symObjAddr: 0x183C, symBinAddr: 0x3F7578, symSize: 0x130 }
  - { offset: 0x1B2C8E, size: 0x8, addend: 0x0, symName: '+[RLMApp appWithId:]', symObjAddr: 0x196C, symBinAddr: 0x3F76A8, symSize: 0x108 }
  - { offset: 0x1B2E32, size: 0x8, addend: 0x0, symName: '+[RLMApp cachedAppWithId:]', symObjAddr: 0x1A74, symBinAddr: 0x3F77B0, symSize: 0x84 }
  - { offset: 0x1B2FDC, size: 0x8, addend: 0x0, symName: '-[RLMApp appId]', symObjAddr: 0x1AF8, symBinAddr: 0x3F7834, symSize: 0x28 }
  - { offset: 0x1B329F, size: 0x8, addend: 0x0, symName: '-[RLMApp allUsers]', symObjAddr: 0x1B48, symBinAddr: 0x3F785C, symSize: 0x1BC }
  - { offset: 0x1B3929, size: 0x8, addend: 0x0, symName: __ZNSt3__16vectorINS_10shared_ptrIN5realm3app4UserEEENS_9allocatorIS5_EEE16__destroy_vectorclB8ne180100Ev, symObjAddr: 0x3830, symBinAddr: 0x3F90E8, symSize: 0x70 }
  - { offset: 0x1B3BB1, size: 0x8, addend: 0x0, symName: '-[RLMApp currentUser]', symObjAddr: 0x1D04, symBinAddr: 0x3F7A18, symSize: 0xF4 }
  - { offset: 0x1B3EB0, size: 0x8, addend: 0x0, symName: '-[RLMApp emailPasswordAuth]', symObjAddr: 0x1DF8, symBinAddr: 0x3F7B0C, symSize: 0x9C }
  - { offset: 0x1B4225, size: 0x8, addend: 0x0, symName: '-[RLMApp baseURL]', symObjAddr: 0x1E94, symBinAddr: 0x3F7BA8, symSize: 0x114 }
  - { offset: 0x1B4ADD, size: 0x8, addend: 0x0, symName: '-[RLMApp updateBaseURL:completion:]', symObjAddr: 0x1FA8, symBinAddr: 0x3F7CBC, symSize: 0x234 }
  - { offset: 0x1B543C, size: 0x8, addend: 0x0, symName: '___35-[RLMApp updateBaseURL:completion:]_block_invoke', symObjAddr: 0x21DC, symBinAddr: 0x3F7EF0, symSize: 0x78 }
  - { offset: 0x1B5502, size: 0x8, addend: 0x0, symName: '-[RLMApp loginWithCredential:completion:]', symObjAddr: 0x2254, symBinAddr: 0x3F7F68, symSize: 0x19C }
  - { offset: 0x1B5D00, size: 0x8, addend: 0x0, symName: '___41-[RLMApp loginWithCredential:completion:]_block_invoke', symObjAddr: 0x23F0, symBinAddr: 0x3F8104, symSize: 0x11C }
  - { offset: 0x1B5F3F, size: 0x8, addend: 0x0, symName: '-[RLMApp switchToUser:]', symObjAddr: 0x250C, symBinAddr: 0x3F8220, symSize: 0xF4 }
  - { offset: 0x1B6138, size: 0x8, addend: 0x0, symName: '-[RLMApp pushClientWithServiceName:]', symObjAddr: 0x2600, symBinAddr: 0x3F8314, symSize: 0x128 }
  - { offset: 0x1B656A, size: 0x8, addend: 0x0, symName: '-[RLMApp setAuthorizationDelegate:]', symObjAddr: 0x2728, symBinAddr: 0x3F843C, symSize: 0xC }
  - { offset: 0x1B65AE, size: 0x8, addend: 0x0, symName: '-[RLMApp authorizationDelegate]', symObjAddr: 0x2734, symBinAddr: 0x3F8448, symSize: 0x18 }
  - { offset: 0x1B65E6, size: 0x8, addend: 0x0, symName: '-[RLMApp setASAuthorizationControllerDelegateForController:]', symObjAddr: 0x274C, symBinAddr: 0x3F8460, symSize: 0x10 }
  - { offset: 0x1B662A, size: 0x8, addend: 0x0, symName: '-[RLMApp authorizationController:didCompleteWithAuthorization:]', symObjAddr: 0x275C, symBinAddr: 0x3F8470, symSize: 0x15C }
  - { offset: 0x1B668B, size: 0x8, addend: 0x0, symName: '___63-[RLMApp authorizationController:didCompleteWithAuthorization:]_block_invoke', symObjAddr: 0x28B8, symBinAddr: 0x3F85CC, symSize: 0xC0 }
  - { offset: 0x1B66EC, size: 0x8, addend: 0x0, symName: '-[RLMApp authorizationController:didCompleteWithError:]', symObjAddr: 0x2978, symBinAddr: 0x3F868C, symSize: 0x7C }
  - { offset: 0x1B750F, size: 0x8, addend: 0x0, symName: __ZNSt3__110__function12__value_funcIFvRKN5realm3app3AppEEEC2B8ne180100EOS8_, symObjAddr: 0x4CC4, symBinAddr: 0x3FA18C, symSize: 0x64 }
  - { offset: 0x1B7556, size: 0x8, addend: 0x0, symName: '-[RLMApp configuration]', symObjAddr: 0x307C, symBinAddr: 0x3F8D90, symSize: 0x8 }
  - { offset: 0x1B758D, size: 0x8, addend: 0x0, symName: '-[RLMApp syncManager]', symObjAddr: 0x3084, symBinAddr: 0x3F8D98, symSize: 0x8 }
  - { offset: 0x1B75C4, size: 0x8, addend: 0x0, symName: '-[RLMApp .cxx_destruct]', symObjAddr: 0x308C, symBinAddr: 0x3F8DA0, symSize: 0x40 }
  - { offset: 0x1B764B, size: 0x8, addend: 0x0, symName: '-[RLMApp .cxx_construct]', symObjAddr: 0x30CC, symBinAddr: 0x3F8DE0, symSize: 0x8 }
  - { offset: 0x1B7684, size: 0x8, addend: 0x0, symName: '-[RLMApp .cxx_construct]', symObjAddr: 0x30CC, symBinAddr: 0x3F8DE0, symSize: 0x8 }
  - { offset: 0x1B76A4, size: 0x8, addend: 0x0, symName: '-[RLMApp .cxx_construct]', symObjAddr: 0x30CC, symBinAddr: 0x3F8DE0, symSize: 0x8 }
  - { offset: 0x1B7B82, size: 0x8, addend: 0x0, symName: __ZNSt3__16vectorIcNS_9allocatorIcEEE11__vallocateB8ne180100Em, symObjAddr: 0x35D4, symBinAddr: 0x3F901C, symSize: 0x40 }
  - { offset: 0x1B7C61, size: 0x8, addend: 0x0, symName: __ZNKSt3__16vectorIcNS_9allocatorIcEEE20__throw_length_errorB8ne180100Ev, symObjAddr: 0x3614, symBinAddr: 0x3F905C, symSize: 0x14 }
  - { offset: 0x1B7C6C, size: 0x8, addend: 0x0, symName: __ZNKSt3__16vectorIcNS_9allocatorIcEEE20__throw_length_errorB8ne180100Ev, symObjAddr: 0x3614, symBinAddr: 0x3F905C, symSize: 0x14 }
  - { offset: 0x1B7F2F, size: 0x8, addend: 0x0, symName: __ZN5realm4util14UniqueFunctionIFvNSt3__18optionalINS_3app8AppErrorEEEEE12SpecificImplIU8__strongU13block_pointerS7_ED1Ev, symObjAddr: 0x38A0, symBinAddr: 0x3F9158, symSize: 0x28 }
  - { offset: 0x1B7F8C, size: 0x8, addend: 0x0, symName: __ZN5realm4util14UniqueFunctionIFvNSt3__18optionalINS_3app8AppErrorEEEEE12SpecificImplIU8__strongU13block_pointerS7_ED0Ev, symObjAddr: 0x38C8, symBinAddr: 0x3F9180, symSize: 0x28 }
  - { offset: 0x1B8383, size: 0x8, addend: 0x0, symName: __ZN5realm4util14UniqueFunctionIFvNSt3__18optionalINS_3app8AppErrorEEEEE12SpecificImplIU8__strongU13block_pointerS7_E4callEOS6_, symObjAddr: 0x38F0, symBinAddr: 0x3F91A8, symSize: 0xAC }
  - { offset: 0x1B88E1, size: 0x8, addend: 0x0, symName: __ZN5realm4util14UniqueFunctionIFvRKNSt3__110shared_ptrINS_3app4UserEEENS2_8optionalINS4_8AppErrorEEEEE12SpecificImplIU8__strongU13block_pointerFvS6_SB_EED1Ev, symObjAddr: 0x399C, symBinAddr: 0x3F9254, symSize: 0x28 }
  - { offset: 0x1B893E, size: 0x8, addend: 0x0, symName: __ZN5realm4util14UniqueFunctionIFvRKNSt3__110shared_ptrINS_3app4UserEEENS2_8optionalINS4_8AppErrorEEEEE12SpecificImplIU8__strongU13block_pointerFvS6_SB_EED0Ev, symObjAddr: 0x39C4, symBinAddr: 0x3F927C, symSize: 0x28 }
  - { offset: 0x1B89F5, size: 0x8, addend: 0x0, symName: __ZN5realm4util14UniqueFunctionIFvRKNSt3__110shared_ptrINS_3app4UserEEENS2_8optionalINS4_8AppErrorEEEEE12SpecificImplIU8__strongU13block_pointerFvS6_SB_EE4callES8_OSB_, symObjAddr: 0x39EC, symBinAddr: 0x3F92A4, symSize: 0x100 }
  - { offset: 0x1B90DB, size: 0x8, addend: 0x0, symName: __ZNSt3__120__shared_ptr_emplaceIN12_GLOBAL__N_121CocoaNetworkTransportENS_9allocatorIS2_EEED1Ev, symObjAddr: 0x3AEC, symBinAddr: 0x3F93A4, symSize: 0x10 }
  - { offset: 0x1B90FF, size: 0x8, addend: 0x0, symName: __ZNSt3__120__shared_ptr_emplaceIN12_GLOBAL__N_121CocoaNetworkTransportENS_9allocatorIS2_EEED1Ev, symObjAddr: 0x3AEC, symBinAddr: 0x3F93A4, symSize: 0x10 }
  - { offset: 0x1B9136, size: 0x8, addend: 0x0, symName: __ZNSt3__120__shared_ptr_emplaceIN12_GLOBAL__N_121CocoaNetworkTransportENS_9allocatorIS2_EEED0Ev, symObjAddr: 0x3AFC, symBinAddr: 0x3F93B4, symSize: 0x20 }
  - { offset: 0x1B9209, size: 0x8, addend: 0x0, symName: __ZNSt3__120__shared_ptr_emplaceIN12_GLOBAL__N_121CocoaNetworkTransportENS_9allocatorIS2_EEE16__on_zero_sharedEv, symObjAddr: 0x3B1C, symBinAddr: 0x3F93D4, symSize: 0xC }
  - { offset: 0x1B9233, size: 0x8, addend: 0x0, symName: __ZNSt3__120__shared_ptr_emplaceIN12_GLOBAL__N_121CocoaNetworkTransportENS_9allocatorIS2_EEE16__on_zero_sharedEv, symObjAddr: 0x3B1C, symBinAddr: 0x3F93D4, symSize: 0xC }
  - { offset: 0x1B9253, size: 0x8, addend: 0x0, symName: __ZNSt3__120__shared_ptr_emplaceIN12_GLOBAL__N_121CocoaNetworkTransportENS_9allocatorIS2_EEE16__on_zero_sharedEv, symObjAddr: 0x3B1C, symBinAddr: 0x3F93D4, symSize: 0xC }
  - { offset: 0x1B9273, size: 0x8, addend: 0x0, symName: __ZNSt3__120__shared_ptr_emplaceIN12_GLOBAL__N_121CocoaNetworkTransportENS_9allocatorIS2_EEE16__on_zero_sharedEv, symObjAddr: 0x3B1C, symBinAddr: 0x3F93D4, symSize: 0xC }
  - { offset: 0x1B92FC, size: 0x8, addend: 0x0, symName: __ZNSt3__120__shared_ptr_emplaceIN12_GLOBAL__N_121CocoaNetworkTransportENS_9allocatorIS2_EEE21__on_zero_shared_weakEv, symObjAddr: 0x3B28, symBinAddr: 0x3F93E0, symSize: 0x4 }
  - { offset: 0x1B9331, size: 0x8, addend: 0x0, symName: __ZNSt3__120__shared_ptr_emplaceIN12_GLOBAL__N_121CocoaNetworkTransportENS_9allocatorIS2_EEE21__on_zero_shared_weakEv, symObjAddr: 0x3B28, symBinAddr: 0x3F93E0, symSize: 0x4 }
  - { offset: 0x1B9356, size: 0x8, addend: 0x0, symName: __ZNSt3__120__shared_ptr_emplaceIN12_GLOBAL__N_121CocoaNetworkTransportENS_9allocatorIS2_EEE21__on_zero_shared_weakEv, symObjAddr: 0x3B28, symBinAddr: 0x3F93E0, symSize: 0x4 }
  - { offset: 0x1B937B, size: 0x8, addend: 0x0, symName: __ZNSt3__120__shared_ptr_emplaceIN12_GLOBAL__N_121CocoaNetworkTransportENS_9allocatorIS2_EEE21__on_zero_shared_weakEv, symObjAddr: 0x3B28, symBinAddr: 0x3F93E0, symSize: 0x4 }
  - { offset: 0x1B93AB, size: 0x8, addend: 0x0, symName: __ZNSt3__120__shared_ptr_emplaceIN12_GLOBAL__N_121CocoaNetworkTransportENS_9allocatorIS2_EEE21__on_zero_shared_weakEv, symObjAddr: 0x3B28, symBinAddr: 0x3F93E0, symSize: 0x4 }
  - { offset: 0x1B93D5, size: 0x8, addend: 0x0, symName: __ZNSt3__120__shared_ptr_emplaceIN12_GLOBAL__N_121CocoaNetworkTransportENS_9allocatorIS2_EEE21__on_zero_shared_weakEv, symObjAddr: 0x3B28, symBinAddr: 0x3F93E0, symSize: 0x4 }
  - { offset: 0x1B941D, size: 0x8, addend: 0x0, symName: __ZN12_GLOBAL__N_121CocoaNetworkTransportD1Ev, symObjAddr: 0x3B2C, symBinAddr: 0x3F93E4, symSize: 0x28 }
  - { offset: 0x1B947A, size: 0x8, addend: 0x0, symName: __ZN12_GLOBAL__N_121CocoaNetworkTransportD0Ev, symObjAddr: 0x3B54, symBinAddr: 0x3F940C, symSize: 0x28 }
  - { offset: 0x1B95D4, size: 0x8, addend: 0x0, symName: __ZN12_GLOBAL__N_121CocoaNetworkTransport22send_request_to_serverERKN5realm3app7RequestEONS1_4util14UniqueFunctionIFvRKNS2_8ResponseEEEE, symObjAddr: 0x3B7C, symBinAddr: 0x3F9434, symSize: 0x27C }
  - { offset: 0x1B9E22, size: 0x8, addend: 0x0, symName: ____ZN12_GLOBAL__N_121CocoaNetworkTransport22send_request_to_serverERKN5realm3app7RequestEONS1_4util14UniqueFunctionIFvRKNS2_8ResponseEEEE_block_invoke, symObjAddr: 0x3DF8, symBinAddr: 0x3F96B0, symSize: 0x258 }
  - { offset: 0x1BA6D0, size: 0x8, addend: 0x0, symName: __ZNSt3__13mapINS_12basic_stringIcNS_11char_traitsIcEENS_9allocatorIcEEEES6_NS_4lessIS6_EENS4_INS_4pairIKS6_S6_EEEEEC2B8ne180100ERKSD_, symObjAddr: 0x45CC, symBinAddr: 0x3F9E48, symSize: 0x54 }
  - { offset: 0x1BA87F, size: 0x8, addend: 0x0, symName: __ZNSt3__16__treeINS_12__value_typeINS_12basic_stringIcNS_11char_traitsIcEENS_9allocatorIcEEEES7_EENS_19__map_value_compareIS7_S8_NS_4lessIS7_EELb1EEENS5_IS8_EEE7destroyEPNS_11__tree_nodeIS8_PvEE, symObjAddr: 0x49B8, symBinAddr: 0x3F9F20, symSize: 0x48 }
  - { offset: 0x1BB07A, size: 0x8, addend: 0x0, symName: ____ZN12_GLOBAL__N_121CocoaNetworkTransport22send_request_to_serverERKN5realm3app7RequestEONS1_4util14UniqueFunctionIFvRKNS2_8ResponseEEEE_block_invoke_2, symObjAddr: 0x4050, symBinAddr: 0x3F9908, symSize: 0x198 }
  - { offset: 0x1BB82A, size: 0x8, addend: 0x0, symName: __ZNSt3__16__treeINS_12__value_typeINS_12basic_stringIcNS_11char_traitsIcEENS_9allocatorIcEEEES7_EENS_19__map_value_compareIS7_S8_NS_4lessIS7_EELb1EEENS5_IS8_EEE12__find_equalIS7_EERPNS_16__tree_node_baseIPvEERPNS_15__tree_end_nodeISJ_EERKT_, symObjAddr: 0x4234, symBinAddr: 0x3F9AB0, symSize: 0x90 }
  - { offset: 0x1BB99C, size: 0x8, addend: 0x0, symName: __ZNSt3__16__treeINS_12__value_typeINS_12basic_stringIcNS_11char_traitsIcEENS_9allocatorIcEEEES7_EENS_19__map_value_compareIS7_S8_NS_4lessIS7_EELb1EEENS5_IS8_EEE16__insert_node_atEPNS_15__tree_end_nodeIPNS_16__tree_node_baseIPvEEEERSJ_SJ_, symObjAddr: 0x42C4, symBinAddr: 0x3F9B40, symSize: 0x54 }
  - { offset: 0x1BBA03, size: 0x8, addend: 0x0, symName: __ZNSt3__110unique_ptrINS_11__tree_nodeINS_12__value_typeINS_12basic_stringIcNS_11char_traitsIcEENS_9allocatorIcEEEES8_EEPvEENS_22__tree_node_destructorINS6_ISB_EEEEE5resetB8ne180100EPSB_, symObjAddr: 0x4544, symBinAddr: 0x3F9DC0, symSize: 0x44 }
  - { offset: 0x1BBB73, size: 0x8, addend: 0x0, symName: ___copy_helper_block_ea8_32c164_ZTSKZZN12_GLOBAL__N_121CocoaNetworkTransport22send_request_to_serverERKN5realm3app7RequestEONS1_4util14UniqueFunctionIFvRKNS2_8ResponseEEEEEUb_EUlP8NSStringSF_PbE_, symObjAddr: 0x41E8, symBinAddr: 0x3F9AA0, symSize: 0xC }
  - { offset: 0x1BBB98, size: 0x8, addend: 0x0, symName: ___destroy_helper_block_ea8_32, symObjAddr: 0x41F4, symBinAddr: 0x3F9AAC, symSize: 0x4 }
  - { offset: 0x1BBF38, size: 0x8, addend: 0x0, symName: __ZNSt3__13mapINS_12basic_stringIcNS_11char_traitsIcEENS_9allocatorIcEEEES6_NS_4lessIS6_EENS4_INS_4pairIKS6_S6_EEEEE6insertB8ne180100INS_20__map_const_iteratorINS_21__tree_const_iteratorINS_12__value_typeIS6_S6_EEPNS_11__tree_nodeISI_PvEElEEEEEEvT_SP_, symObjAddr: 0x4620, symBinAddr: 0x3F9E9C, symSize: 0x84 }
  - { offset: 0x1BBF7D, size: 0x8, addend: 0x0, symName: __ZNSt3__13mapINS_12basic_stringIcNS_11char_traitsIcEENS_9allocatorIcEEEES6_NS_4lessIS6_EENS4_INS_4pairIKS6_S6_EEEEE6insertB8ne180100INS_20__map_const_iteratorINS_21__tree_const_iteratorINS_12__value_typeIS6_S6_EEPNS_11__tree_nodeISI_PvEElEEEEEEvT_SP_, symObjAddr: 0x4620, symBinAddr: 0x3F9E9C, symSize: 0x84 }
  - { offset: 0x1BCC53, size: 0x8, addend: 0x0, symName: '__ZNSt3__110__function6__funcIZ20-[RLMApp subscribe:]E3$_5NS_9allocatorIS2_EEFvRKN5realm3app3AppEEED1Ev', symObjAddr: 0x4D28, symBinAddr: 0x3FA1F0, symSize: 0x30 }
  - { offset: 0x1BCD91, size: 0x8, addend: 0x0, symName: '__ZNSt3__110__function6__funcIZ20-[RLMApp subscribe:]E3$_5NS_9allocatorIS2_EEFvRKN5realm3app3AppEEED0Ev', symObjAddr: 0x4D58, symBinAddr: 0x3FA220, symSize: 0x30 }
  - { offset: 0x1BD113, size: 0x8, addend: 0x0, symName: '__ZNKSt3__110__function6__funcIZ20-[RLMApp subscribe:]E3$_5NS_9allocatorIS2_EEFvRKN5realm3app3AppEEE7__cloneEv', symObjAddr: 0x4D88, symBinAddr: 0x3FA250, symSize: 0x50 }
  - { offset: 0x1BD4BB, size: 0x8, addend: 0x0, symName: '__ZNKSt3__110__function6__funcIZ20-[RLMApp subscribe:]E3$_5NS_9allocatorIS2_EEFvRKN5realm3app3AppEEE7__cloneEPNS0_6__baseISA_EE', symObjAddr: 0x4DD8, symBinAddr: 0x3FA2A0, symSize: 0x44 }
  - { offset: 0x1BD6C0, size: 0x8, addend: 0x0, symName: '__ZNSt3__110__function6__funcIZ20-[RLMApp subscribe:]E3$_5NS_9allocatorIS2_EEFvRKN5realm3app3AppEEE7destroyEv', symObjAddr: 0x4E1C, symBinAddr: 0x3FA2E4, symSize: 0x28 }
  - { offset: 0x1BD7D9, size: 0x8, addend: 0x0, symName: '__ZNSt3__110__function6__funcIZ20-[RLMApp subscribe:]E3$_5NS_9allocatorIS2_EEFvRKN5realm3app3AppEEE18destroy_deallocateEv', symObjAddr: 0x4E44, symBinAddr: 0x3FA30C, symSize: 0x30 }
  - { offset: 0x1BDA0E, size: 0x8, addend: 0x0, symName: '__ZNSt3__110__function6__funcIZ20-[RLMApp subscribe:]E3$_5NS_9allocatorIS2_EEFvRKN5realm3app3AppEEEclES9_', symObjAddr: 0x4E74, symBinAddr: 0x3FA33C, symSize: 0x10 }
  - { offset: 0x1BDA47, size: 0x8, addend: 0x0, symName: '__ZNSt3__110__function6__funcIZ20-[RLMApp subscribe:]E3$_5NS_9allocatorIS2_EEFvRKN5realm3app3AppEEEclES9_', symObjAddr: 0x4E74, symBinAddr: 0x3FA33C, symSize: 0x10 }
  - { offset: 0x1BDA67, size: 0x8, addend: 0x0, symName: '__ZNSt3__110__function6__funcIZ20-[RLMApp subscribe:]E3$_5NS_9allocatorIS2_EEFvRKN5realm3app3AppEEEclES9_', symObjAddr: 0x4E74, symBinAddr: 0x3FA33C, symSize: 0x10 }
  - { offset: 0x1BDA86, size: 0x8, addend: 0x0, symName: '__ZNSt3__110__function6__funcIZ20-[RLMApp subscribe:]E3$_5NS_9allocatorIS2_EEFvRKN5realm3app3AppEEEclES9_', symObjAddr: 0x4E74, symBinAddr: 0x3FA33C, symSize: 0x10 }
  - { offset: 0x1BDAA6, size: 0x8, addend: 0x0, symName: '__ZNSt3__110__function6__funcIZ20-[RLMApp subscribe:]E3$_5NS_9allocatorIS2_EEFvRKN5realm3app3AppEEEclES9_', symObjAddr: 0x4E74, symBinAddr: 0x3FA33C, symSize: 0x10 }
  - { offset: 0x1BDAD3, size: 0x8, addend: 0x0, symName: '__ZNKSt3__110__function6__funcIZ20-[RLMApp subscribe:]E3$_5NS_9allocatorIS2_EEFvRKN5realm3app3AppEEE6targetERKSt9type_info', symObjAddr: 0x4E84, symBinAddr: 0x3FA34C, symSize: 0x3C }
  - { offset: 0x1BDB1A, size: 0x8, addend: 0x0, symName: __ZNKSt9type_infoeqB8ne180100ERKS_, symObjAddr: 0x4ECC, symBinAddr: 0x3FA394, symSize: 0x4C }
  - { offset: 0x1BDBC6, size: 0x8, addend: 0x0, symName: '__ZNKSt3__110__function6__funcIZ20-[RLMApp subscribe:]E3$_5NS_9allocatorIS2_EEFvRKN5realm3app3AppEEE11target_typeEv', symObjAddr: 0x4EC0, symBinAddr: 0x3FA388, symSize: 0xC }
  - { offset: 0x1C0047, size: 0x8, addend: 0x0, symName: '-[RLMArray initWithObjectClassName:keyType:]', symObjAddr: 0x0, symBinAddr: 0x3FA418, symSize: 0x4 }
  - { offset: 0x208CF1, size: 0x8, addend: 0x0, symName: '-[RLMArray initWithObjectClassName:keyType:]', symObjAddr: 0x0, symBinAddr: 0x3FA418, symSize: 0x4 }
  - { offset: 0x208D40, size: 0x8, addend: 0x0, symName: '-[RLMArray initWithObjectType:optional:keyType:]', symObjAddr: 0x4, symBinAddr: 0x3FA41C, symSize: 0x4 }
  - { offset: 0x208DDB, size: 0x8, addend: 0x0, symName: '-[RLMArray initWithObjectClassName:]', symObjAddr: 0x8, symBinAddr: 0x3FA420, symSize: 0xB0 }
  - { offset: 0x208E76, size: 0x8, addend: 0x0, symName: '-[RLMArray initWithObjectType:optional:]', symObjAddr: 0xB8, symBinAddr: 0x3FA4D0, symSize: 0x78 }
  - { offset: 0x208F0C, size: 0x8, addend: 0x0, symName: '-[RLMArray setParent:property:]', symObjAddr: 0x130, symBinAddr: 0x3FA548, symSize: 0x88 }
  - { offset: 0x208F17, size: 0x8, addend: 0x0, symName: '-[RLMArray setParent:property:]', symObjAddr: 0x130, symBinAddr: 0x3FA548, symSize: 0x88 }
  - { offset: 0x208F6A, size: 0x8, addend: 0x0, symName: '-[RLMArray addObjects:]', symObjAddr: 0x1B8, symBinAddr: 0x3FA5D0, symSize: 0x12C }
  - { offset: 0x208FC4, size: 0x8, addend: 0x0, symName: '-[RLMArray addObject:]', symObjAddr: 0x2E4, symBinAddr: 0x3FA6FC, symSize: 0x58 }
  - { offset: 0x209007, size: 0x8, addend: 0x0, symName: '-[RLMArray removeLastObject]', symObjAddr: 0x33C, symBinAddr: 0x3FA754, symSize: 0x38 }
  - { offset: 0x20904A, size: 0x8, addend: 0x0, symName: '-[RLMArray objectAtIndexedSubscript:]', symObjAddr: 0x374, symBinAddr: 0x3FA78C, symSize: 0x4 }
  - { offset: 0x20908D, size: 0x8, addend: 0x0, symName: '-[RLMArray setObject:atIndexedSubscript:]', symObjAddr: 0x378, symBinAddr: 0x3FA790, symSize: 0x10 }
  - { offset: 0x2090DE, size: 0x8, addend: 0x0, symName: '-[RLMArray sortedResultsUsingKeyPath:ascending:]', symObjAddr: 0x388, symBinAddr: 0x3FA7A0, symSize: 0x11C }
  - { offset: 0x209135, size: 0x8, addend: 0x0, symName: '-[RLMArray indexOfObjectWhere:]', symObjAddr: 0x4A4, symBinAddr: 0x3FA8BC, symSize: 0x28 }
  - { offset: 0x20919D, size: 0x8, addend: 0x0, symName: '-[RLMArray indexOfObjectWhere:args:]', symObjAddr: 0x4CC, symBinAddr: 0x3FA8E4, symSize: 0x64 }
  - { offset: 0x2091F4, size: 0x8, addend: 0x0, symName: '-[RLMArray addNotificationBlock:]', symObjAddr: 0x530, symBinAddr: 0x3FA948, symSize: 0x68 }
  - { offset: 0x209280, size: 0x8, addend: 0x0, symName: '-[RLMArray addNotificationBlock:queue:]', symObjAddr: 0x598, symBinAddr: 0x3FA9B0, symSize: 0x90 }
  - { offset: 0x2092E5, size: 0x8, addend: 0x0, symName: '-[RLMArray addNotificationBlock:keyPaths:]', symObjAddr: 0x628, symBinAddr: 0x3FAA40, symSize: 0x90 }
  - { offset: 0x20934A, size: 0x8, addend: 0x0, symName: '-[RLMArray addNotificationBlock:keyPaths:queue:]', symObjAddr: 0x6B8, symBinAddr: 0x3FAAD0, symSize: 0xB0 }
  - { offset: 0x2093BF, size: 0x8, addend: 0x0, symName: '-[RLMArray realm]', symObjAddr: 0x768, symBinAddr: 0x3FAB80, symSize: 0x8 }
  - { offset: 0x2093F2, size: 0x8, addend: 0x0, symName: '-[RLMArray firstObject]', symObjAddr: 0x770, symBinAddr: 0x3FAB88, symSize: 0x38 }
  - { offset: 0x209429, size: 0x8, addend: 0x0, symName: '-[RLMArray lastObject]', symObjAddr: 0x7A8, symBinAddr: 0x3FABC0, symSize: 0x38 }
  - { offset: 0x209470, size: 0x8, addend: 0x0, symName: '-[RLMArray objectAtIndex:]', symObjAddr: 0x7E0, symBinAddr: 0x3FABF8, symSize: 0x38 }
  - { offset: 0x2094C5, size: 0x8, addend: 0x0, symName: __ZL19validateArrayBoundsP8RLMArraymb, symObjAddr: 0x818, symBinAddr: 0x3FAC30, symSize: 0x58 }
  - { offset: 0x209546, size: 0x8, addend: 0x0, symName: '-[RLMArray count]', symObjAddr: 0x870, symBinAddr: 0x3FAC88, symSize: 0x8 }
  - { offset: 0x20957D, size: 0x8, addend: 0x0, symName: '-[RLMArray isInvalidated]', symObjAddr: 0x878, symBinAddr: 0x3FAC90, symSize: 0x8 }
  - { offset: 0x2095B0, size: 0x8, addend: 0x0, symName: '-[RLMArray countByEnumeratingWithState:objects:count:]', symObjAddr: 0x880, symBinAddr: 0x3FAC98, symSize: 0xC }
  - { offset: 0x2096B9, size: 0x8, addend: 0x0, symName: __Z34RLMArrayValidateMatchingObjectTypeP8RLMArrayP11objc_object, symObjAddr: 0x88C, symBinAddr: 0x3FACA4, symSize: 0x24C }
  - { offset: 0x2097AE, size: 0x8, addend: 0x0, symName: __ZL15RLMTypeToString15RLMPropertyType, symObjAddr: 0xAD8, symBinAddr: 0x3FAEF0, symSize: 0x24 }
  - { offset: 0x2097DD, size: 0x8, addend: 0x0, symName: '-[RLMArray addObjectsFromArray:]', symObjAddr: 0xAFC, symBinAddr: 0x3FAF14, symSize: 0x1BC }
  - { offset: 0x209854, size: 0x8, addend: 0x0, symName: __ZL11changeArrayP8RLMArray16NSKeyValueChange8_NSRangeU13block_pointerFvvE, symObjAddr: 0xCB8, symBinAddr: 0x3FB0D0, symSize: 0x190 }
  - { offset: 0x209A04, size: 0x8, addend: 0x0, symName: '___32-[RLMArray addObjectsFromArray:]_block_invoke', symObjAddr: 0xE48, symBinAddr: 0x3FB260, symSize: 0xC }
  - { offset: 0x209A55, size: 0x8, addend: 0x0, symName: '-[RLMArray insertObject:atIndex:]', symObjAddr: 0xE54, symBinAddr: 0x3FB26C, symSize: 0xE0 }
  - { offset: 0x209AD3, size: 0x8, addend: 0x0, symName: __ZL11changeArrayP8RLMArray16NSKeyValueChangemU13block_pointerFvvE, symObjAddr: 0xF34, symBinAddr: 0x3FB34C, symSize: 0x188 }
  - { offset: 0x209C51, size: 0x8, addend: 0x0, symName: '___33-[RLMArray insertObject:atIndex:]_block_invoke', symObjAddr: 0x10BC, symBinAddr: 0x3FB4D4, symSize: 0x14 }
  - { offset: 0x209CB2, size: 0x8, addend: 0x0, symName: '-[RLMArray insertObjects:atIndexes:]', symObjAddr: 0x10D0, symBinAddr: 0x3FB4E8, symSize: 0xF4 }
  - { offset: 0x209D14, size: 0x8, addend: 0x0, symName: __ZL11changeArrayP8RLMArray16NSKeyValueChangeP10NSIndexSetU13block_pointerFvvE, symObjAddr: 0x11C4, symBinAddr: 0x3FB5DC, symSize: 0x1BC }
  - { offset: 0x209F27, size: 0x8, addend: 0x0, symName: '___36-[RLMArray insertObjects:atIndexes:]_block_invoke', symObjAddr: 0x1380, symBinAddr: 0x3FB798, symSize: 0x154 }
  - { offset: 0x209FC4, size: 0x8, addend: 0x0, symName: ___copy_helper_block_ea8_32s40s48s, symObjAddr: 0x14D4, symBinAddr: 0x3FB8EC, symSize: 0x30 }
  - { offset: 0x209FED, size: 0x8, addend: 0x0, symName: ___destroy_helper_block_ea8_32s40s48s, symObjAddr: 0x1504, symBinAddr: 0x3FB91C, symSize: 0x30 }
  - { offset: 0x20A00C, size: 0x8, addend: 0x0, symName: '-[RLMArray removeObjectAtIndex:]', symObjAddr: 0x1534, symBinAddr: 0x3FB94C, symSize: 0x80 }
  - { offset: 0x20A06C, size: 0x8, addend: 0x0, symName: '___32-[RLMArray removeObjectAtIndex:]_block_invoke', symObjAddr: 0x15B4, symBinAddr: 0x3FB9CC, symSize: 0xC }
  - { offset: 0x20A0BD, size: 0x8, addend: 0x0, symName: '-[RLMArray removeObjectsAtIndexes:]', symObjAddr: 0x15C0, symBinAddr: 0x3FB9D8, symSize: 0xA4 }
  - { offset: 0x20A10F, size: 0x8, addend: 0x0, symName: '___35-[RLMArray removeObjectsAtIndexes:]_block_invoke', symObjAddr: 0x1664, symBinAddr: 0x3FBA7C, symSize: 0xC }
  - { offset: 0x20A160, size: 0x8, addend: 0x0, symName: '-[RLMArray replaceObjectAtIndex:withObject:]', symObjAddr: 0x1670, symBinAddr: 0x3FBA88, symSize: 0xE4 }
  - { offset: 0x20A1DE, size: 0x8, addend: 0x0, symName: '___44-[RLMArray replaceObjectAtIndex:withObject:]_block_invoke', symObjAddr: 0x1754, symBinAddr: 0x3FBB6C, symSize: 0x14 }
  - { offset: 0x20A23F, size: 0x8, addend: 0x0, symName: '-[RLMArray moveObjectAtIndex:toIndex:]', symObjAddr: 0x1768, symBinAddr: 0x3FBB80, symSize: 0x108 }
  - { offset: 0x20A2ED, size: 0x8, addend: 0x0, symName: '___38-[RLMArray moveObjectAtIndex:toIndex:]_block_invoke', symObjAddr: 0x1870, symBinAddr: 0x3FBC88, symSize: 0x38 }
  - { offset: 0x20A3C4, size: 0x8, addend: 0x0, symName: '-[RLMArray exchangeObjectAtIndex:withObjectAtIndex:]', symObjAddr: 0x18A8, symBinAddr: 0x3FBCC0, symSize: 0x1D4 }
  - { offset: 0x20A533, size: 0x8, addend: 0x0, symName: '___52-[RLMArray exchangeObjectAtIndex:withObjectAtIndex:]_block_invoke', symObjAddr: 0x1A7C, symBinAddr: 0x3FBE94, symSize: 0x14 }
  - { offset: 0x20A594, size: 0x8, addend: 0x0, symName: '-[RLMArray indexOfObject:]', symObjAddr: 0x1A90, symBinAddr: 0x3FBEA8, symSize: 0x198 }
  - { offset: 0x20A636, size: 0x8, addend: 0x0, symName: '-[RLMArray removeAllObjects]', symObjAddr: 0x1C28, symBinAddr: 0x3FC040, symSize: 0x78 }
  - { offset: 0x20A678, size: 0x8, addend: 0x0, symName: '___28-[RLMArray removeAllObjects]_block_invoke', symObjAddr: 0x1CA0, symBinAddr: 0x3FC0B8, symSize: 0xC }
  - { offset: 0x20A6B9, size: 0x8, addend: 0x0, symName: '-[RLMArray replaceAllObjectsWithObjects:]', symObjAddr: 0x1CAC, symBinAddr: 0x3FC0C4, symSize: 0x148 }
  - { offset: 0x20A719, size: 0x8, addend: 0x0, symName: '___41-[RLMArray replaceAllObjectsWithObjects:]_block_invoke', symObjAddr: 0x1DF4, symBinAddr: 0x3FC20C, symSize: 0xC }
  - { offset: 0x20A75A, size: 0x8, addend: 0x0, symName: '___41-[RLMArray replaceAllObjectsWithObjects:]_block_invoke_2', symObjAddr: 0x1E00, symBinAddr: 0x3FC218, symSize: 0x11C }
  - { offset: 0x20A7C2, size: 0x8, addend: 0x0, symName: '-[RLMArray objectsWhere:]', symObjAddr: 0x1F1C, symBinAddr: 0x3FC334, symSize: 0x30 }
  - { offset: 0x20A82B, size: 0x8, addend: 0x0, symName: '-[RLMArray objectsWhere:args:]', symObjAddr: 0x1F4C, symBinAddr: 0x3FC364, symSize: 0x6C }
  - { offset: 0x20A883, size: 0x8, addend: 0x0, symName: '-[RLMArray typeForProperty:]', symObjAddr: 0x1FB8, symBinAddr: 0x3FC3D0, symSize: 0x140 }
  - { offset: 0x20A92E, size: 0x8, addend: 0x0, symName: '-[RLMArray aggregateProperty:operation:method:]', symObjAddr: 0x20F8, symBinAddr: 0x3FC510, symSize: 0x3E8 }
  - { offset: 0x20AAA3, size: 0x8, addend: 0x0, symName: '___47-[RLMArray aggregateProperty:operation:method:]_block_invoke', symObjAddr: 0x24E0, symBinAddr: 0x3FC8F8, symSize: 0x64 }
  - { offset: 0x20AAF2, size: 0x8, addend: 0x0, symName: '-[RLMArray valueForKeyPath:]', symObjAddr: 0x2544, symBinAddr: 0x3FC95C, symSize: 0x1A0 }
  - { offset: 0x20AB6A, size: 0x8, addend: 0x0, symName: '-[RLMArray valueForKey:]', symObjAddr: 0x26E4, symBinAddr: 0x3FCAFC, symSize: 0xB4 }
  - { offset: 0x20ABB2, size: 0x8, addend: 0x0, symName: '-[RLMArray setValue:forKey:]', symObjAddr: 0x2798, symBinAddr: 0x3FCBB0, symSize: 0xF8 }
  - { offset: 0x20AC3F, size: 0x8, addend: 0x0, symName: '-[RLMArray minOfProperty:]', symObjAddr: 0x2890, symBinAddr: 0x3FCCA8, symSize: 0x28 }
  - { offset: 0x20AC8B, size: 0x8, addend: 0x0, symName: '-[RLMArray maxOfProperty:]', symObjAddr: 0x28B8, symBinAddr: 0x3FCCD0, symSize: 0x28 }
  - { offset: 0x20ACD7, size: 0x8, addend: 0x0, symName: '-[RLMArray sumOfProperty:]', symObjAddr: 0x28E0, symBinAddr: 0x3FCCF8, symSize: 0x28 }
  - { offset: 0x20AD23, size: 0x8, addend: 0x0, symName: '-[RLMArray averageOfProperty:]', symObjAddr: 0x2908, symBinAddr: 0x3FCD20, symSize: 0x28 }
  - { offset: 0x20AD6F, size: 0x8, addend: 0x0, symName: '-[RLMArray indexOfObjectWithPredicate:]', symObjAddr: 0x2930, symBinAddr: 0x3FCD48, symSize: 0xC4 }
  - { offset: 0x20ADB7, size: 0x8, addend: 0x0, symName: '___39-[RLMArray indexOfObjectWithPredicate:]_block_invoke', symObjAddr: 0x29F4, symBinAddr: 0x3FCE0C, symSize: 0xC }
  - { offset: 0x20AE19, size: 0x8, addend: 0x0, symName: '-[RLMArray objectsAtIndexes:]', symObjAddr: 0x2A00, symBinAddr: 0x3FCE18, symSize: 0xB4 }
  - { offset: 0x20AE89, size: 0x8, addend: 0x0, symName: '-[RLMArray isEqual:]', symObjAddr: 0x2AB4, symBinAddr: 0x3FCECC, symSize: 0x110 }
  - { offset: 0x20AF16, size: 0x8, addend: 0x0, symName: '-[RLMArray addObserver:forKeyPath:options:context:]', symObjAddr: 0x2BC4, symBinAddr: 0x3FCFDC, symSize: 0xB8 }
  - { offset: 0x20AFAF, size: 0x8, addend: 0x0, symName: '-[RLMArray objectsWithPredicate:]', symObjAddr: 0x2C7C, symBinAddr: 0x3FD094, symSize: 0x4C }
  - { offset: 0x20B001, size: 0x8, addend: 0x0, symName: '-[RLMArray sortedResultsUsingDescriptors:]', symObjAddr: 0x2CC8, symBinAddr: 0x3FD0E0, symSize: 0x4C }
  - { offset: 0x20B053, size: 0x8, addend: 0x0, symName: '-[RLMArray distinctResultsUsingKeyPaths:]', symObjAddr: 0x2D14, symBinAddr: 0x3FD12C, symSize: 0x4C }
  - { offset: 0x20B0A5, size: 0x8, addend: 0x0, symName: '-[RLMArray sectionedResultsSortedUsingKeyPath:ascending:keyBlock:]', symObjAddr: 0x2D60, symBinAddr: 0x3FD178, symSize: 0x68 }
  - { offset: 0x20B114, size: 0x8, addend: 0x0, symName: '-[RLMArray sectionedResultsUsingSortDescriptors:keyBlock:]', symObjAddr: 0x2DC8, symBinAddr: 0x3FD1E0, symSize: 0x68 }
  - { offset: 0x20B176, size: 0x8, addend: 0x0, symName: '-[RLMArray freeze]', symObjAddr: 0x2E30, symBinAddr: 0x3FD248, symSize: 0x24 }
  - { offset: 0x20B1B8, size: 0x8, addend: 0x0, symName: '-[RLMArray thaw]', symObjAddr: 0x2E54, symBinAddr: 0x3FD26C, symSize: 0x24 }
  - { offset: 0x20B1FA, size: 0x8, addend: 0x0, symName: '-[RLMArray makeThreadSafeReference]', symObjAddr: 0x2E78, symBinAddr: 0x3FD290, symSize: 0x2C }
  - { offset: 0x20B26E, size: 0x8, addend: 0x0, symName: '-[RLMArray objectiveCMetadata]', symObjAddr: 0x2EA4, symBinAddr: 0x3FD2BC, symSize: 0x2C }
  - { offset: 0x20B279, size: 0x8, addend: 0x0, symName: '-[RLMArray objectiveCMetadata]', symObjAddr: 0x2EA4, symBinAddr: 0x3FD2BC, symSize: 0x2C }
  - { offset: 0x20B2ED, size: 0x8, addend: 0x0, symName: '+[RLMArray objectWithThreadSafeReference:metadata:realm:]', symObjAddr: 0x2ED0, symBinAddr: 0x3FD2E8, symSize: 0x44 }
  - { offset: 0x20B2F8, size: 0x8, addend: 0x0, symName: '+[RLMArray objectWithThreadSafeReference:metadata:realm:]', symObjAddr: 0x2ED0, symBinAddr: 0x3FD2E8, symSize: 0x44 }
  - { offset: 0x20B399, size: 0x8, addend: 0x0, symName: '-[RLMArray description]', symObjAddr: 0x2F14, symBinAddr: 0x3FD32C, symSize: 0x8 }
  - { offset: 0x20B3A4, size: 0x8, addend: 0x0, symName: '-[RLMArray description]', symObjAddr: 0x2F14, symBinAddr: 0x3FD32C, symSize: 0x8 }
  - { offset: 0x20B3DA, size: 0x8, addend: 0x0, symName: '-[RLMArray descriptionWithMaxDepth:]', symObjAddr: 0x2F1C, symBinAddr: 0x3FD334, symSize: 0x10 }
  - { offset: 0x20B44B, size: 0x8, addend: 0x0, symName: '-[RLMArray propertyKey]', symObjAddr: 0x2F2C, symBinAddr: 0x3FD344, symSize: 0x8 }
  - { offset: 0x20B483, size: 0x8, addend: 0x0, symName: '-[RLMArray type]', symObjAddr: 0x2F34, symBinAddr: 0x3FD34C, symSize: 0x8 }
  - { offset: 0x20B4BA, size: 0x8, addend: 0x0, symName: '-[RLMArray isOptional]', symObjAddr: 0x2F3C, symBinAddr: 0x3FD354, symSize: 0x8 }
  - { offset: 0x20B4F1, size: 0x8, addend: 0x0, symName: '-[RLMArray objectClassName]', symObjAddr: 0x2F44, symBinAddr: 0x3FD35C, symSize: 0x8 }
  - { offset: 0x20B528, size: 0x8, addend: 0x0, symName: '-[RLMArray isFrozen]', symObjAddr: 0x2F4C, symBinAddr: 0x3FD364, symSize: 0x8 }
  - { offset: 0x20B55F, size: 0x8, addend: 0x0, symName: '-[RLMArray isLegacyProperty]', symObjAddr: 0x2F54, symBinAddr: 0x3FD36C, symSize: 0x8 }
  - { offset: 0x20B596, size: 0x8, addend: 0x0, symName: '-[RLMArray .cxx_destruct]', symObjAddr: 0x2F5C, symBinAddr: 0x3FD374, symSize: 0x44 }
  - { offset: 0x20B5C9, size: 0x8, addend: 0x0, symName: '+[RLMSortDescriptor sortDescriptorWithKeyPath:ascending:]', symObjAddr: 0x2FA0, symBinAddr: 0x3FD3B8, symSize: 0x6C }
  - { offset: 0x20B62D, size: 0x8, addend: 0x0, symName: '-[RLMSortDescriptor reversedSortDescriptor]', symObjAddr: 0x300C, symBinAddr: 0x3FD424, symSize: 0x30 }
  - { offset: 0x20B665, size: 0x8, addend: 0x0, symName: '-[RLMSortDescriptor keyPath]', symObjAddr: 0x303C, symBinAddr: 0x3FD454, symSize: 0x8 }
  - { offset: 0x20B69D, size: 0x8, addend: 0x0, symName: '-[RLMSortDescriptor ascending]', symObjAddr: 0x3044, symBinAddr: 0x3FD45C, symSize: 0x8 }
  - { offset: 0x20B6D5, size: 0x8, addend: 0x0, symName: '-[RLMSortDescriptor .cxx_destruct]', symObjAddr: 0x304C, symBinAddr: 0x3FD464, symSize: 0xC }
  - { offset: 0x20DE01, size: 0x8, addend: 0x0, symName: '-[RLMAsymmetricObject init]', symObjAddr: 0x0, symBinAddr: 0x3FD470, symSize: 0x34 }
  - { offset: 0x21922E, size: 0x8, addend: 0x0, symName: '-[RLMAsymmetricObject init]', symObjAddr: 0x0, symBinAddr: 0x3FD470, symSize: 0x34 }
  - { offset: 0x219265, size: 0x8, addend: 0x0, symName: '-[RLMAsymmetricObject initWithValue:]', symObjAddr: 0x34, symBinAddr: 0x3FD4A4, symSize: 0xC8 }
  - { offset: 0x2192D7, size: 0x8, addend: 0x0, symName: '+[RLMAsymmetricObject createInRealm:withValue:]', symObjAddr: 0xFC, symBinAddr: 0x3FD56C, symSize: 0xB0 }
  - { offset: 0x21932E, size: 0x8, addend: 0x0, symName: '-[RLMAsymmetricObject objectForKeyedSubscript:]', symObjAddr: 0x1AC, symBinAddr: 0x3FD61C, symSize: 0x20 }
  - { offset: 0x219375, size: 0x8, addend: 0x0, symName: '-[RLMAsymmetricObject setObject:forKeyedSubscript:]', symObjAddr: 0x1CC, symBinAddr: 0x3FD63C, symSize: 0x8 }
  - { offset: 0x2193C4, size: 0x8, addend: 0x0, symName: '+[RLMAsymmetricObject className]', symObjAddr: 0x1D4, symBinAddr: 0x3FD644, symSize: 0x3C }
  - { offset: 0x2193FB, size: 0x8, addend: 0x0, symName: '+[RLMAsymmetricObject primaryKey]', symObjAddr: 0x210, symBinAddr: 0x3FD680, symSize: 0x8 }
  - { offset: 0x21942E, size: 0x8, addend: 0x0, symName: '+[RLMAsymmetricObject indexedProperties]', symObjAddr: 0x218, symBinAddr: 0x3FD688, symSize: 0x10 }
  - { offset: 0x219461, size: 0x8, addend: 0x0, symName: '+[RLMAsymmetricObject linkingObjectsProperties]', symObjAddr: 0x228, symBinAddr: 0x3FD698, symSize: 0x10 }
  - { offset: 0x219494, size: 0x8, addend: 0x0, symName: '+[RLMAsymmetricObject defaultPropertyValues]', symObjAddr: 0x238, symBinAddr: 0x3FD6A8, symSize: 0x8 }
  - { offset: 0x2194C7, size: 0x8, addend: 0x0, symName: '+[RLMAsymmetricObject ignoredProperties]', symObjAddr: 0x240, symBinAddr: 0x3FD6B0, symSize: 0x8 }
  - { offset: 0x2194FA, size: 0x8, addend: 0x0, symName: '+[RLMAsymmetricObject requiredProperties]', symObjAddr: 0x248, symBinAddr: 0x3FD6B8, symSize: 0x10 }
  - { offset: 0x21952D, size: 0x8, addend: 0x0, symName: '+[RLMAsymmetricObject _realmIgnoreClass]', symObjAddr: 0x258, symBinAddr: 0x3FD6C8, symSize: 0x8 }
  - { offset: 0x219560, size: 0x8, addend: 0x0, symName: '+[RLMAsymmetricObject isAsymmetric]', symObjAddr: 0x260, symBinAddr: 0x3FD6D0, symSize: 0x8 }
  - { offset: 0x21B320, size: 0x8, addend: 0x0, symName: __MergedGlobals, symObjAddr: 0x252528, symBinAddr: 0x667038, symSize: 0x0 }
  - { offset: 0x21B33A, size: 0x8, addend: 0x0, symName: __MergedGlobals, symObjAddr: 0x252528, symBinAddr: 0x667038, symSize: 0x0 }
  - { offset: 0x21B368, size: 0x8, addend: 0x0, symName: '+[RLMAsyncRefreshTask completedRefresh]', symObjAddr: 0x1938, symBinAddr: 0x3FEFB4, symSize: 0x7C }
  - { offset: 0x21B394, size: 0x8, addend: 0x0, symName: __MergedGlobals, symObjAddr: 0x252528, symBinAddr: 0x667038, symSize: 0x0 }
  - { offset: 0x26C8BD, size: 0x8, addend: 0x0, symName: '-[RLMAsyncSubscriptionTask waitForSync]', symObjAddr: 0x1F40, symBinAddr: 0x3FF5BC, symSize: 0x26C }
  - { offset: 0x26EA0D, size: 0x8, addend: 0x0, symName: _RLMSetAsyncOpenQueue, symObjAddr: 0x0, symBinAddr: 0x3FD6D8, symSize: 0x10 }
  - { offset: 0x26F1C0, size: 0x8, addend: 0x0, symName: '-[RLMAsyncOpenTask addSyncProgressNotificationOnQueue:block:]', symObjAddr: 0x10, symBinAddr: 0x3FD6E8, symSize: 0x300 }
  - { offset: 0x26FAA7, size: 0x8, addend: 0x0, symName: '___61-[RLMAsyncOpenTask addSyncProgressNotificationOnQueue:block:]_block_invoke', symObjAddr: 0x310, symBinAddr: 0x3FD9E8, symSize: 0x74 }
  - { offset: 0x26FB43, size: 0x8, addend: 0x0, symName: '___61-[RLMAsyncOpenTask addSyncProgressNotificationOnQueue:block:]_block_invoke_2', symObjAddr: 0x384, symBinAddr: 0x3FDA5C, symSize: 0x54 }
  - { offset: 0x26FBD8, size: 0x8, addend: 0x0, symName: ___copy_helper_block_ea8_32s40b, symObjAddr: 0x3D8, symBinAddr: 0x3FDAB0, symSize: 0x34 }
  - { offset: 0x26FC01, size: 0x8, addend: 0x0, symName: '-[RLMAsyncOpenTask addProgressNotificationOnQueue:block:]', symObjAddr: 0x40C, symBinAddr: 0x3FDAE4, symSize: 0xAC }
  - { offset: 0x26FC54, size: 0x8, addend: 0x0, symName: '___57-[RLMAsyncOpenTask addProgressNotificationOnQueue:block:]_block_invoke', symObjAddr: 0x4B8, symBinAddr: 0x3FDB90, symSize: 0x14 }
  - { offset: 0x26FCAB, size: 0x8, addend: 0x0, symName: '-[RLMAsyncOpenTask addProgressNotificationBlock:]', symObjAddr: 0x4CC, symBinAddr: 0x3FDBA4, symSize: 0x10 }
  - { offset: 0x26FCEC, size: 0x8, addend: 0x0, symName: '-[RLMAsyncOpenTask addSyncProgressNotificationBlock:]', symObjAddr: 0x4DC, symBinAddr: 0x3FDBB4, symSize: 0x10 }
  - { offset: 0x26FD96, size: 0x8, addend: 0x0, symName: '-[RLMAsyncOpenTask cancel]', symObjAddr: 0x4EC, symBinAddr: 0x3FDBC4, symSize: 0x88 }
  - { offset: 0x270029, size: 0x8, addend: 0x0, symName: '-[RLMAsyncOpenTask reportError:]', symObjAddr: 0x574, symBinAddr: 0x3FDC4C, symSize: 0x124 }
  - { offset: 0x27008C, size: 0x8, addend: 0x0, symName: '-[RLMAsyncOpenTask releaseResources]', symObjAddr: 0x13A0, symBinAddr: 0x3FEA78, symSize: 0x48 }
  - { offset: 0x2700B4, size: 0x8, addend: 0x0, symName: '-[RLMAsyncOpenTask initWithConfiguration:confinedTo:download:]', symObjAddr: 0x698, symBinAddr: 0x3FDD70, symSize: 0xF0 }
  - { offset: 0x270117, size: 0x8, addend: 0x0, symName: '-[RLMAsyncOpenTask initWithConfiguration:confinedTo:download:completion:]', symObjAddr: 0x788, symBinAddr: 0x3FDE60, symSize: 0xD8 }
  - { offset: 0x27018D, size: 0x8, addend: 0x0, symName: '-[RLMAsyncOpenTask waitForOpen:]', symObjAddr: 0x860, symBinAddr: 0x3FDF38, symSize: 0xF0 }
  - { offset: 0x2701D5, size: 0x8, addend: 0x0, symName: '___32-[RLMAsyncOpenTask waitForOpen:]_block_invoke', symObjAddr: 0x950, symBinAddr: 0x3FE028, symSize: 0xA4 }
  - { offset: 0x270271, size: 0x8, addend: 0x0, symName: ___copy_helper_block_ea8_32b40w, symObjAddr: 0x9F4, symBinAddr: 0x3FE0CC, symSize: 0x38 }
  - { offset: 0x27029A, size: 0x8, addend: 0x0, symName: ___destroy_helper_block_ea8_32s40w, symObjAddr: 0xA2C, symBinAddr: 0x3FE104, symSize: 0x28 }
  - { offset: 0x2702B9, size: 0x8, addend: 0x0, symName: '-[RLMAsyncOpenTask waitWithCompletion:]', symObjAddr: 0xA54, symBinAddr: 0x3FE12C, symSize: 0xDC }
  - { offset: 0x270A9F, size: 0x8, addend: 0x0, symName: '___39-[RLMAsyncOpenTask waitWithCompletion:]_block_invoke', symObjAddr: 0xB30, symBinAddr: 0x3FE208, symSize: 0x350 }
  - { offset: 0x271651, size: 0x8, addend: 0x0, symName: '-[RLMAsyncOpenTask checkCancellation]', symObjAddr: 0xE80, symBinAddr: 0x3FE558, symSize: 0x5C }
  - { offset: 0x271687, size: 0x8, addend: 0x0, symName: __ZNSt3__111unique_lockI14RLMUnfairMutexE6unlockEv, symObjAddr: 0xEDC, symBinAddr: 0x3FE5B4, symSize: 0x40 }
  - { offset: 0x2716DE, size: 0x8, addend: 0x0, symName: '-[RLMAsyncOpenTask downloadCompleted]', symObjAddr: 0xF1C, symBinAddr: 0x3FE5F4, symSize: 0x234 }
  - { offset: 0x2716E9, size: 0x8, addend: 0x0, symName: '-[RLMAsyncOpenTask downloadCompleted]', symObjAddr: 0xF1C, symBinAddr: 0x3FE5F4, symSize: 0x234 }
  - { offset: 0x271E04, size: 0x8, addend: 0x0, symName: '-[RLMAsyncOpenTask asyncOpenCompleted]', symObjAddr: 0x11D8, symBinAddr: 0x3FE8B0, symSize: 0x9C }
  - { offset: 0x271F65, size: 0x8, addend: 0x0, symName: '___37-[RLMAsyncOpenTask downloadCompleted]_block_invoke', symObjAddr: 0x1150, symBinAddr: 0x3FE828, symSize: 0x88 }
  - { offset: 0x27214C, size: 0x8, addend: 0x0, symName: '___38-[RLMAsyncOpenTask asyncOpenCompleted]_block_invoke', symObjAddr: 0x1274, symBinAddr: 0x3FE94C, symSize: 0x12C }
  - { offset: 0x272357, size: 0x8, addend: 0x0, symName: '___32-[RLMAsyncOpenTask reportError:]_block_invoke', symObjAddr: 0x13E8, symBinAddr: 0x3FEAC0, symSize: 0x10 }
  - { offset: 0x2723AF, size: 0x8, addend: 0x0, symName: '-[RLMAsyncOpenTask localRealm]', symObjAddr: 0x13F8, symBinAddr: 0x3FEAD0, symSize: 0x8 }
  - { offset: 0x2723E6, size: 0x8, addend: 0x0, symName: '-[RLMAsyncOpenTask setLocalRealm:]', symObjAddr: 0x1400, symBinAddr: 0x3FEAD8, symSize: 0xC }
  - { offset: 0x272476, size: 0x8, addend: 0x0, symName: '-[RLMAsyncOpenTask .cxx_destruct]', symObjAddr: 0x140C, symBinAddr: 0x3FEAE4, symSize: 0xD0 }
  - { offset: 0x27271E, size: 0x8, addend: 0x0, symName: '-[RLMAsyncOpenTask .cxx_construct]', symObjAddr: 0x14DC, symBinAddr: 0x3FEBB4, symSize: 0x14 }
  - { offset: 0x272756, size: 0x8, addend: 0x0, symName: '-[RLMAsyncOpenTask .cxx_construct]', symObjAddr: 0x14DC, symBinAddr: 0x3FEBB4, symSize: 0x14 }
  - { offset: 0x272775, size: 0x8, addend: 0x0, symName: '-[RLMAsyncOpenTask .cxx_construct]', symObjAddr: 0x14DC, symBinAddr: 0x3FEBB4, symSize: 0x14 }
  - { offset: 0x272829, size: 0x8, addend: 0x0, symName: '-[RLMAsyncDownloadTask initWithRealm:]', symObjAddr: 0x14F0, symBinAddr: 0x3FEBC8, symSize: 0xD4 }
  - { offset: 0x272AD2, size: 0x8, addend: 0x0, symName: '-[RLMAsyncDownloadTask waitWithCompletion:]', symObjAddr: 0x1620, symBinAddr: 0x3FEC9C, symSize: 0x140 }
  - { offset: 0x2733AB, size: 0x8, addend: 0x0, symName: '-[RLMAsyncDownloadTask cancel]', symObjAddr: 0x1760, symBinAddr: 0x3FEDDC, symSize: 0x98 }
  - { offset: 0x27362C, size: 0x8, addend: 0x0, symName: '-[RLMAsyncDownloadTask .cxx_destruct]', symObjAddr: 0x17F8, symBinAddr: 0x3FEE74, symSize: 0x8 }
  - { offset: 0x27370F, size: 0x8, addend: 0x0, symName: '-[RLMAsyncDownloadTask .cxx_construct]', symObjAddr: 0x1800, symBinAddr: 0x3FEE7C, symSize: 0xC }
  - { offset: 0x273748, size: 0x8, addend: 0x0, symName: '-[RLMAsyncDownloadTask .cxx_construct]', symObjAddr: 0x1800, symBinAddr: 0x3FEE7C, symSize: 0xC }
  - { offset: 0x273768, size: 0x8, addend: 0x0, symName: '-[RLMAsyncDownloadTask .cxx_construct]', symObjAddr: 0x1800, symBinAddr: 0x3FEE7C, symSize: 0xC }
  - { offset: 0x273831, size: 0x8, addend: 0x0, symName: '-[RLMAsyncRefreshTask complete:]', symObjAddr: 0x180C, symBinAddr: 0x3FEE88, symSize: 0x90 }
  - { offset: 0x273999, size: 0x8, addend: 0x0, symName: '-[RLMAsyncRefreshTask wait:]', symObjAddr: 0x189C, symBinAddr: 0x3FEF18, symSize: 0x9C }
  - { offset: 0x273AD1, size: 0x8, addend: 0x0, symName: '__ZZ39+[RLMAsyncRefreshTask completedRefresh]ENK3$_2clEv', symObjAddr: 0x19B4, symBinAddr: 0x3FF030, symSize: 0x28 }
  - { offset: 0x273B04, size: 0x8, addend: 0x0, symName: '-[RLMAsyncRefreshTask .cxx_destruct]', symObjAddr: 0x19DC, symBinAddr: 0x3FF058, symSize: 0xC }
  - { offset: 0x273B38, size: 0x8, addend: 0x0, symName: '-[RLMAsyncRefreshTask .cxx_construct]', symObjAddr: 0x19E8, symBinAddr: 0x3FF064, symSize: 0x8 }
  - { offset: 0x273B71, size: 0x8, addend: 0x0, symName: '-[RLMAsyncRefreshTask .cxx_construct]', symObjAddr: 0x19E8, symBinAddr: 0x3FF064, symSize: 0x8 }
  - { offset: 0x273B91, size: 0x8, addend: 0x0, symName: '-[RLMAsyncRefreshTask .cxx_construct]', symObjAddr: 0x19E8, symBinAddr: 0x3FF064, symSize: 0x8 }
  - { offset: 0x273BB0, size: 0x8, addend: 0x0, symName: '-[RLMAsyncWriteTask initWithRealm:]', symObjAddr: 0x19F0, symBinAddr: 0x3FF06C, symSize: 0x8C }
  - { offset: 0x273BF8, size: 0x8, addend: 0x0, symName: '-[RLMAsyncWriteTask setTransactionId:]', symObjAddr: 0x1A7C, symBinAddr: 0x3FF0F8, symSize: 0x8 }
  - { offset: 0x273C7F, size: 0x8, addend: 0x0, symName: '-[RLMAsyncWriteTask complete:]', symObjAddr: 0x1A84, symBinAddr: 0x3FF100, symSize: 0xA0 }
  - { offset: 0x273E40, size: 0x8, addend: 0x0, symName: '-[RLMAsyncWriteTask wait:]', symObjAddr: 0x1B24, symBinAddr: 0x3FF1A0, symSize: 0x94 }
  - { offset: 0x273FC9, size: 0x8, addend: 0x0, symName: '-[RLMAsyncWriteTask .cxx_destruct]', symObjAddr: 0x1BB8, symBinAddr: 0x3FF234, symSize: 0x30 }
  - { offset: 0x273FFD, size: 0x8, addend: 0x0, symName: '-[RLMAsyncWriteTask .cxx_construct]', symObjAddr: 0x1BE8, symBinAddr: 0x3FF264, symSize: 0x8 }
  - { offset: 0x274036, size: 0x8, addend: 0x0, symName: '-[RLMAsyncWriteTask .cxx_construct]', symObjAddr: 0x1BE8, symBinAddr: 0x3FF264, symSize: 0x8 }
  - { offset: 0x274056, size: 0x8, addend: 0x0, symName: '-[RLMAsyncWriteTask .cxx_construct]', symObjAddr: 0x1BE8, symBinAddr: 0x3FF264, symSize: 0x8 }
  - { offset: 0x274075, size: 0x8, addend: 0x0, symName: '-[RLMAsyncSubscriptionTask initWithSubscriptionSet:queue:timeout:completion:]', symObjAddr: 0x1BF0, symBinAddr: 0x3FF26C, symSize: 0x118 }
  - { offset: 0x2740ED, size: 0x8, addend: 0x0, symName: '-[RLMAsyncSubscriptionTask waitForSubscription]', symObjAddr: 0x1D08, symBinAddr: 0x3FF384, symSize: 0xF0 }
  - { offset: 0x2742BE, size: 0x8, addend: 0x0, symName: '___47-[RLMAsyncSubscriptionTask waitForSubscription]_block_invoke', symObjAddr: 0x1DF8, symBinAddr: 0x3FF474, symSize: 0x148 }
  - { offset: 0x274EBD, size: 0x8, addend: 0x0, symName: __ZNK5realm4util14UniqueFunctionIFvPNS0_14future_details15SharedStateBaseEEEclES4_, symObjAddr: 0x2C30, symBinAddr: 0x400050, symSize: 0x50 }
  - { offset: 0x274F90, size: 0x8, addend: 0x0, symName: '-[RLMAsyncSubscriptionTask invokeCompletionWithError:]', symObjAddr: 0x21AC, symBinAddr: 0x3FF828, symSize: 0x12C }
  - { offset: 0x275123, size: 0x8, addend: 0x0, symName: '___54-[RLMAsyncSubscriptionTask invokeCompletionWithError:]_block_invoke', symObjAddr: 0x22D8, symBinAddr: 0x3FF954, symSize: 0x10 }
  - { offset: 0x27517B, size: 0x8, addend: 0x0, symName: '-[RLMAsyncSubscriptionTask .cxx_destruct]', symObjAddr: 0x22E8, symBinAddr: 0x3FF964, symSize: 0x48 }
  - { offset: 0x2751AF, size: 0x8, addend: 0x0, symName: '-[RLMAsyncSubscriptionTask .cxx_construct]', symObjAddr: 0x2330, symBinAddr: 0x3FF9AC, symSize: 0x8 }
  - { offset: 0x2751E8, size: 0x8, addend: 0x0, symName: '-[RLMAsyncSubscriptionTask .cxx_construct]', symObjAddr: 0x2330, symBinAddr: 0x3FF9AC, symSize: 0x8 }
  - { offset: 0x275208, size: 0x8, addend: 0x0, symName: '-[RLMAsyncSubscriptionTask .cxx_construct]', symObjAddr: 0x2330, symBinAddr: 0x3FF9AC, symSize: 0x8 }
  - { offset: 0x275768, size: 0x8, addend: 0x0, symName: __ZNSt3__110__function6__funcIU8__strongU13block_pointerFvmmdENS_9allocatorIS4_EEFvyydEED1Ev, symObjAddr: 0x2594, symBinAddr: 0x3FF9B4, symSize: 0x28 }
  - { offset: 0x2757C5, size: 0x8, addend: 0x0, symName: __ZNSt3__110__function6__funcIU8__strongU13block_pointerFvmmdENS_9allocatorIS4_EEFvyydEED0Ev, symObjAddr: 0x25BC, symBinAddr: 0x3FF9DC, symSize: 0x28 }
  - { offset: 0x27582E, size: 0x8, addend: 0x0, symName: __ZNKSt3__110__function6__funcIU8__strongU13block_pointerFvmmdENS_9allocatorIS4_EEFvyydEE7__cloneEv, symObjAddr: 0x25E4, symBinAddr: 0x3FFA04, symSize: 0x8 }
  - { offset: 0x27589F, size: 0x8, addend: 0x0, symName: __ZNKSt3__110__function6__funcIU8__strongU13block_pointerFvmmdENS_9allocatorIS4_EEFvyydEE7__cloneEPNS0_6__baseIS7_EE, symObjAddr: 0x25EC, symBinAddr: 0x3FFA0C, symSize: 0x34 }
  - { offset: 0x275928, size: 0x8, addend: 0x0, symName: __ZNSt3__110__function6__funcIU8__strongU13block_pointerFvmmdENS_9allocatorIS4_EEFvyydEE7destroyEv, symObjAddr: 0x2620, symBinAddr: 0x3FFA40, symSize: 0x10 }
  - { offset: 0x27594F, size: 0x8, addend: 0x0, symName: __ZNSt3__110__function6__funcIU8__strongU13block_pointerFvmmdENS_9allocatorIS4_EEFvyydEE18destroy_deallocateEv, symObjAddr: 0x2630, symBinAddr: 0x3FFA50, symSize: 0x4 }
  - { offset: 0x275972, size: 0x8, addend: 0x0, symName: __ZNSt3__110__function6__funcIU8__strongU13block_pointerFvmmdENS_9allocatorIS4_EEFvyydEEclEOyS9_Od, symObjAddr: 0x2634, symBinAddr: 0x3FFA54, symSize: 0x18 }
  - { offset: 0x2759CC, size: 0x8, addend: 0x0, symName: __ZNSt3__110__function6__funcIU8__strongU13block_pointerFvmmdENS_9allocatorIS4_EEFvyydEEclEOyS9_Od, symObjAddr: 0x2634, symBinAddr: 0x3FFA54, symSize: 0x18 }
  - { offset: 0x275A14, size: 0x8, addend: 0x0, symName: __ZNKSt3__110__function6__funcIU8__strongU13block_pointerFvmmdENS_9allocatorIS4_EEFvyydEE6targetERKSt9type_info, symObjAddr: 0x264C, symBinAddr: 0x3FFA6C, symSize: 0x3C }
  - { offset: 0x275A4B, size: 0x8, addend: 0x0, symName: __ZNKSt3__110__function6__funcIU8__strongU13block_pointerFvmmdENS_9allocatorIS4_EEFvyydEE11target_typeEv, symObjAddr: 0x2688, symBinAddr: 0x3FFAA8, symSize: 0xC }
  - { offset: 0x275A8A, size: 0x8, addend: 0x0, symName: '__ZN5realm4util14UniqueFunctionIFvNS_19ThreadSafeReferenceESt13exception_ptrEE12SpecificImplIZ34-[RLMAsyncOpenTask startAsyncOpen]E3$_0ED1Ev', symObjAddr: 0x2694, symBinAddr: 0x3FFAB4, symSize: 0x28 }
  - { offset: 0x275B27, size: 0x8, addend: 0x0, symName: '__ZN5realm4util14UniqueFunctionIFvNS_19ThreadSafeReferenceESt13exception_ptrEE12SpecificImplIZ34-[RLMAsyncOpenTask startAsyncOpen]E3$_0ED0Ev', symObjAddr: 0x26BC, symBinAddr: 0x3FFADC, symSize: 0x28 }
  - { offset: 0x275D85, size: 0x8, addend: 0x0, symName: '__ZN5realm4util14UniqueFunctionIFvNS_19ThreadSafeReferenceESt13exception_ptrEE12SpecificImplIZ34-[RLMAsyncOpenTask startAsyncOpen]E3$_0E4callEOS2_OS3_', symObjAddr: 0x26E4, symBinAddr: 0x3FFB04, symSize: 0x2A8 }
  - { offset: 0x276314, size: 0x8, addend: 0x0, symName: '____ZZ34-[RLMAsyncOpenTask startAsyncOpen]ENK3$_0clEN5realm19ThreadSafeReferenceESt13exception_ptr_block_invoke', symObjAddr: 0x298C, symBinAddr: 0x3FFDAC, symSize: 0x30 }
  - { offset: 0x276371, size: 0x8, addend: 0x0, symName: ___copy_helper_block_ea8_32s40c40_ZTSNSt3__110shared_ptrIN5realm5RealmEEE, symObjAddr: 0x29BC, symBinAddr: 0x3FFDDC, symSize: 0x40 }
  - { offset: 0x27644D, size: 0x8, addend: 0x0, symName: ___destroy_helper_block_ea8_32s40c40_ZTSNSt3__110shared_ptrIN5realm5RealmEEE, symObjAddr: 0x29FC, symBinAddr: 0x3FFE1C, symSize: 0x28 }
  - { offset: 0x2764A5, size: 0x8, addend: 0x0, symName: '__ZN5realm4util14UniqueFunctionIFvNS_6StatusEEE12SpecificImplIZ43-[RLMAsyncDownloadTask waitWithCompletion:]E3$_1ED1Ev', symObjAddr: 0x2A24, symBinAddr: 0x3FFE44, symSize: 0x28 }
  - { offset: 0x276543, size: 0x8, addend: 0x0, symName: '__ZN5realm4util14UniqueFunctionIFvNS_6StatusEEE12SpecificImplIZ43-[RLMAsyncDownloadTask waitWithCompletion:]E3$_1ED0Ev', symObjAddr: 0x2A4C, symBinAddr: 0x3FFE6C, symSize: 0x28 }
  - { offset: 0x27661F, size: 0x8, addend: 0x0, symName: '__ZN5realm4util14UniqueFunctionIFvNS_6StatusEEE12SpecificImplIZ43-[RLMAsyncDownloadTask waitWithCompletion:]E3$_1E4callEOS2_', symObjAddr: 0x2A74, symBinAddr: 0x3FFE94, symSize: 0x88 }
  - { offset: 0x276876, size: 0x8, addend: 0x0, symName: '__ZN5realm4util14UniqueFunctionIFvPNS0_14future_details15SharedStateBaseEEE12SpecificImplIZZNOS2_6FutureINS_4sync15SubscriptionSet5StateEE9get_asyncIZ39-[RLMAsyncSubscriptionTask waitForSync]E3$_3EEvOT_ENKUlvE_clEvEUlS4_E_ED1Ev', symObjAddr: 0x2AFC, symBinAddr: 0x3FFF1C, symSize: 0x28 }
  - { offset: 0x276956, size: 0x8, addend: 0x0, symName: '__ZN5realm4util14UniqueFunctionIFvPNS0_14future_details15SharedStateBaseEEE12SpecificImplIZZNOS2_6FutureINS_4sync15SubscriptionSet5StateEE9get_asyncIZ39-[RLMAsyncSubscriptionTask waitForSync]E3$_3EEvOT_ENKUlvE_clEvEUlS4_E_ED0Ev', symObjAddr: 0x2B24, symBinAddr: 0x3FFF44, symSize: 0x28 }
  - { offset: 0x276AB2, size: 0x8, addend: 0x0, symName: '__ZN5realm4util14UniqueFunctionIFvPNS0_14future_details15SharedStateBaseEEE12SpecificImplIZZNOS2_6FutureINS_4sync15SubscriptionSet5StateEE9get_asyncIZ39-[RLMAsyncSubscriptionTask waitForSync]E3$_3EEvOT_ENKUlvE_clEvEUlS4_E_E4callEOS4_', symObjAddr: 0x2B4C, symBinAddr: 0x3FFF6C, symSize: 0xE4 }
  - { offset: 0x2799DA, size: 0x8, addend: 0x0, symName: '-[NSNull(RLMBSON) bsonType]', symObjAddr: 0x0, symBinAddr: 0x4001B4, symSize: 0x8 }
  - { offset: 0x283FEB, size: 0x8, addend: 0x0, symName: __ZNSt3__119__allocate_at_leastB8ne180100INS_9allocatorIN5realm4bson4BsonEEEEENS_19__allocation_resultINS_16allocator_traitsIT_E7pointerEEERS8_m, symObjAddr: 0x1EC8, symBinAddr: 0x401FF4, symSize: 0x44 }
  - { offset: 0x28462D, size: 0x8, addend: 0x0, symName: __ZNSt3__119__allocate_at_leastB8ne180100INS_9allocatorINS_12basic_stringIcNS_11char_traitsIcEENS1_IcEEEEEEEENS_19__allocation_resultINS_16allocator_traitsIT_E7pointerEEERSA_m, symObjAddr: 0x289C, symBinAddr: 0x402288, symSize: 0x44 }
  - { offset: 0x284727, size: 0x8, addend: 0x0, symName: __ZNSt3__142__uninitialized_allocator_move_if_noexceptB8ne180100INS_9allocatorINS_12basic_stringIcNS_11char_traitsIcEENS1_IcEEEEEENS_16reverse_iteratorIPS6_EESA_SA_EET2_RT_T0_T1_SB_, symObjAddr: 0x28E0, symBinAddr: 0x4022CC, symSize: 0x9C }
  - { offset: 0x284E00, size: 0x8, addend: 0x0, symName: __ZNSt3__112__destroy_atB8ne180100INS_4pairIKNS_12basic_stringIcNS_11char_traitsIcEENS_9allocatorIcEEEEN5realm4bson4BsonEEELi0EEEvPT_, symObjAddr: 0x3028, symBinAddr: 0x402544, symSize: 0x3C }
  - { offset: 0x285185, size: 0x8, addend: 0x0, symName: __ZNSt3__135__uninitialized_allocator_copy_implB8ne180100INS_9allocatorINS_12basic_stringIcNS_11char_traitsIcEENS1_IcEEEEEEPS6_S8_S8_EET2_RT_T0_T1_S9_, symObjAddr: 0x36E4, symBinAddr: 0x402898, symSize: 0xBC }
  - { offset: 0x28565D, size: 0x8, addend: 0x0, symName: __ZNSt3__135__uninitialized_allocator_copy_implB8ne180100INS_9allocatorIN5realm4bson4BsonEEEPS4_S6_S6_EET2_RT_T0_T1_S7_, symObjAddr: 0x38EC, symBinAddr: 0x402AA0, symSize: 0x80 }
  - { offset: 0x2888E9, size: 0x8, addend: 0x0, symName: __ZNSt3__16vectorIN5realm4bson4BsonENS_9allocatorIS3_EEE26__swap_out_circular_bufferERNS_14__split_bufferIS3_RS5_EE, symObjAddr: 0x1E30, symBinAddr: 0x401F70, symSize: 0x84 }
  - { offset: 0x288B95, size: 0x8, addend: 0x0, symName: __ZNSt3__16vectorINS_12basic_stringIcNS_11char_traitsIcEENS_9allocatorIcEEEENS4_IS6_EEE26__swap_out_circular_bufferERNS_14__split_bufferIS6_RS7_EE, symObjAddr: 0x2814, symBinAddr: 0x402214, symSize: 0x74 }
  - { offset: 0x288E2D, size: 0x8, addend: 0x0, symName: '-[NSNull(RLMBSON) bsonType]', symObjAddr: 0x0, symBinAddr: 0x4001B4, symSize: 0x8 }
  - { offset: 0x288E60, size: 0x8, addend: 0x0, symName: '-[RLMObjectId(RLMBSON) bsonType]', symObjAddr: 0x8, symBinAddr: 0x4001BC, symSize: 0x8 }
  - { offset: 0x288E93, size: 0x8, addend: 0x0, symName: '-[RLMDecimal128(RLMBSON) bsonType]', symObjAddr: 0x10, symBinAddr: 0x4001C4, symSize: 0x8 }
  - { offset: 0x288EC6, size: 0x8, addend: 0x0, symName: '-[NSString(RLMBSON) bsonType]', symObjAddr: 0x18, symBinAddr: 0x4001CC, symSize: 0x8 }
  - { offset: 0x288EF9, size: 0x8, addend: 0x0, symName: '-[NSNumber(RLMBSON) bsonType]', symObjAddr: 0x20, symBinAddr: 0x4001D4, symSize: 0x84 }
  - { offset: 0x288F3C, size: 0x8, addend: 0x0, symName: '-[NSMutableArray(RLMBSON) bsonType]', symObjAddr: 0xA4, symBinAddr: 0x400258, symSize: 0x8 }
  - { offset: 0x288FA7, size: 0x8, addend: 0x0, symName: '-[NSMutableArray(RLMBSON) initWithBsonArray:]', symObjAddr: 0xAC, symBinAddr: 0x400260, symSize: 0xA4 }
  - { offset: 0x289077, size: 0x8, addend: 0x0, symName: __Z23RLMConvertBsonToRLMBSONRKN5realm4bson4BsonE, symObjAddr: 0x150, symBinAddr: 0x400304, symSize: 0x67C }
  - { offset: 0x28A868, size: 0x8, addend: 0x0, symName: __ZN5realm4bson10IndexedMapINS0_4BsonEEC2ERKS3_, symObjAddr: 0x31D4, symBinAddr: 0x4026F0, symSize: 0x60 }
  - { offset: 0x28A9B6, size: 0x8, addend: 0x0, symName: __ZNSt3__16vectorINS_12basic_stringIcNS_11char_traitsIcEENS_9allocatorIcEEEENS4_IS6_EEE16__destroy_vectorclB8ne180100Ev, symObjAddr: 0x3064, symBinAddr: 0x402580, symSize: 0x40 }
  - { offset: 0x28AA8C, size: 0x8, addend: 0x0, symName: __ZNSt3__112__hash_tableINS_17__hash_value_typeINS_12basic_stringIcNS_11char_traitsIcEENS_9allocatorIcEEEEN5realm4bson4BsonEEENS_22__unordered_map_hasherIS7_SB_NS_4hashIS7_EENS_8equal_toIS7_EELb1EEENS_21__unordered_map_equalIS7_SB_SG_SE_Lb1EEENS5_ISB_EEED2Ev, symObjAddr: 0x30F0, symBinAddr: 0x40260C, symSize: 0x38 }
  - { offset: 0x28AC13, size: 0x8, addend: 0x0, symName: __ZNSt3__16vectorIN5realm4bson4BsonENS_9allocatorIS3_EEE16__init_with_sizeB8ne180100IPS3_S8_EEvT_T0_m, symObjAddr: 0x3818, symBinAddr: 0x4029CC, symSize: 0x84 }
  - { offset: 0x28AE8F, size: 0x8, addend: 0x0, symName: __ZNSt3__16vectorIN5realm4bson4BsonENS_9allocatorIS3_EEE16__destroy_vectorclB8ne180100Ev, symObjAddr: 0x1F58, symBinAddr: 0x402084, symSize: 0x70 }
  - { offset: 0x28B10F, size: 0x8, addend: 0x0, symName: '-[NSArray(RLMBSON) bsonArrayValue]', symObjAddr: 0x7CC, symBinAddr: 0x400980, symSize: 0x150 }
  - { offset: 0x28B2A3, size: 0x8, addend: 0x0, symName: __Z23RLMConvertRLMBSONToBsonPU17objcproto7RLMBSON11objc_object, symObjAddr: 0xA3C, symBinAddr: 0x400BF0, symSize: 0x490 }
  - { offset: 0x28C124, size: 0x8, addend: 0x0, symName: __ZNSt3__16vectorIN5realm4bson4BsonENS_9allocatorIS3_EEE9push_backB8ne180100EOS3_, symObjAddr: 0x91C, symBinAddr: 0x400AD0, symSize: 0x120 }
  - { offset: 0x28C7E8, size: 0x8, addend: 0x0, symName: __ZNSt3__114__split_bufferIN5realm4bson4BsonERNS_9allocatorIS3_EEED2Ev, symObjAddr: 0x1F0C, symBinAddr: 0x402038, symSize: 0x4C }
  - { offset: 0x28D393, size: 0x8, addend: 0x0, symName: __ZN5realm4bson4BsonC1EPKc, symObjAddr: 0x1864, symBinAddr: 0x4019A4, symSize: 0x6C }
  - { offset: 0x28D541, size: 0x8, addend: 0x0, symName: __ZNSt3__112__hash_tableINS_17__hash_value_typeINS_12basic_stringIcNS_11char_traitsIcEENS_9allocatorIcEEEEN5realm4bson4BsonEEENS_22__unordered_map_hasherIS7_SB_NS_4hashIS7_EENS_8equal_toIS7_EELb1EEENS_21__unordered_map_equalIS7_SB_SG_SE_Lb1EEENS5_ISB_EEEC2EOSL_, symObjAddr: 0x3164, symBinAddr: 0x402680, symSize: 0x70 }
  - { offset: 0x28D57F, size: 0x8, addend: 0x0, symName: __ZNSt3__112__hash_tableINS_17__hash_value_typeINS_12basic_stringIcNS_11char_traitsIcEENS_9allocatorIcEEEEN5realm4bson4BsonEEENS_22__unordered_map_hasherIS7_SB_NS_4hashIS7_EENS_8equal_toIS7_EELb1EEENS_21__unordered_map_equalIS7_SB_SG_SE_Lb1EEENS5_ISB_EEEC2EOSL_, symObjAddr: 0x3164, symBinAddr: 0x402680, symSize: 0x70 }
  - { offset: 0x28D5A5, size: 0x8, addend: 0x0, symName: __ZNSt3__112__hash_tableINS_17__hash_value_typeINS_12basic_stringIcNS_11char_traitsIcEENS_9allocatorIcEEEEN5realm4bson4BsonEEENS_22__unordered_map_hasherIS7_SB_NS_4hashIS7_EENS_8equal_toIS7_EELb1EEENS_21__unordered_map_equalIS7_SB_SG_SE_Lb1EEENS5_ISB_EEEC2EOSL_, symObjAddr: 0x3164, symBinAddr: 0x402680, symSize: 0x70 }
  - { offset: 0x28D5CB, size: 0x8, addend: 0x0, symName: __ZNSt3__112__hash_tableINS_17__hash_value_typeINS_12basic_stringIcNS_11char_traitsIcEENS_9allocatorIcEEEEN5realm4bson4BsonEEENS_22__unordered_map_hasherIS7_SB_NS_4hashIS7_EENS_8equal_toIS7_EELb1EEENS_21__unordered_map_equalIS7_SB_SG_SE_Lb1EEENS5_ISB_EEEC2EOSL_, symObjAddr: 0x3164, symBinAddr: 0x402680, symSize: 0x70 }
  - { offset: 0x28D75E, size: 0x8, addend: 0x0, symName: '-[NSArray(RLMBSON) bsonType]', symObjAddr: 0xECC, symBinAddr: 0x401080, symSize: 0x8 }
  - { offset: 0x28D791, size: 0x8, addend: 0x0, symName: '-[NSMutableDictionary(RLMBSON) bsonType]', symObjAddr: 0xED4, symBinAddr: 0x401088, symSize: 0x8 }
  - { offset: 0x28DADE, size: 0x8, addend: 0x0, symName: '-[NSMutableDictionary(RLMBSON) bsonDocumentValue]', symObjAddr: 0xEDC, symBinAddr: 0x401090, symSize: 0x1D8 }
  - { offset: 0x28E1B7, size: 0x8, addend: 0x0, symName: '-[NSMutableDictionary(RLMBSON) initWithBsonDocument:]', symObjAddr: 0x10F0, symBinAddr: 0x401268, symSize: 0x17C }
  - { offset: 0x28E8C9, size: 0x8, addend: 0x0, symName: '-[NSDictionary(RLMBSON) bsonType]', symObjAddr: 0x12A4, symBinAddr: 0x4013E4, symSize: 0x8 }
  - { offset: 0x28E8FC, size: 0x8, addend: 0x0, symName: '-[NSDictionary(RLMBSON) bsonDocumentValue]', symObjAddr: 0x12AC, symBinAddr: 0x4013EC, symSize: 0x1D8 }
  - { offset: 0x28EE68, size: 0x8, addend: 0x0, symName: '-[NSData(RLMBSON) bsonType]', symObjAddr: 0x1484, symBinAddr: 0x4015C4, symSize: 0x8 }
  - { offset: 0x28EEB1, size: 0x8, addend: 0x0, symName: '-[NSData(RLMBSON) initWithBsonBinary:]', symObjAddr: 0x148C, symBinAddr: 0x4015CC, symSize: 0x74 }
  - { offset: 0x28EF34, size: 0x8, addend: 0x0, symName: '-[NSDate(RLMBSON) bsonType]', symObjAddr: 0x1500, symBinAddr: 0x401640, symSize: 0x8 }
  - { offset: 0x28EF67, size: 0x8, addend: 0x0, symName: '-[NSUUID(RLMBSON) bsonType]', symObjAddr: 0x1508, symBinAddr: 0x401648, symSize: 0x8 }
  - { offset: 0x28EF9A, size: 0x8, addend: 0x0, symName: '-[NSRegularExpression(RLMBSON) bsonType]', symObjAddr: 0x1510, symBinAddr: 0x401650, symSize: 0x8 }
  - { offset: 0x28F0D2, size: 0x8, addend: 0x0, symName: '-[NSRegularExpression(RLMBSON) regularExpressionValue]', symObjAddr: 0x1518, symBinAddr: 0x401658, symSize: 0x118 }
  - { offset: 0x28F752, size: 0x8, addend: 0x0, symName: '-[NSRegularExpression(RLMBSON) initWithRegularExpression:]', symObjAddr: 0x1630, symBinAddr: 0x401770, symSize: 0x11C }
  - { offset: 0x28FA75, size: 0x8, addend: 0x0, symName: '-[RLMMaxKey isEqual:]', symObjAddr: 0x174C, symBinAddr: 0x40188C, symSize: 0x7C }
  - { offset: 0x28FABD, size: 0x8, addend: 0x0, symName: '-[RLMMaxKey hash]', symObjAddr: 0x17C8, symBinAddr: 0x401908, symSize: 0x8 }
  - { offset: 0x28FAF1, size: 0x8, addend: 0x0, symName: '-[RLMMinKey isEqual:]', symObjAddr: 0x17D0, symBinAddr: 0x401910, symSize: 0x7C }
  - { offset: 0x28FB39, size: 0x8, addend: 0x0, symName: '-[RLMMinKey hash]', symObjAddr: 0x184C, symBinAddr: 0x40198C, symSize: 0x8 }
  - { offset: 0x28FB6D, size: 0x8, addend: 0x0, symName: '-[RLMMaxKey(RLMBSON) bsonType]', symObjAddr: 0x1854, symBinAddr: 0x401994, symSize: 0x8 }
  - { offset: 0x28FBA1, size: 0x8, addend: 0x0, symName: '-[RLMMinKey(RLMBSON) bsonType]', symObjAddr: 0x185C, symBinAddr: 0x40199C, symSize: 0x8 }
  - { offset: 0x28FD52, size: 0x8, addend: 0x0, symName: __Z36RLMConvertRLMBSONArrayToBsonDocumentP7NSArrayIPU17objcproto7RLMBSON11objc_objectE, symObjAddr: 0x18D0, symBinAddr: 0x401A10, symSize: 0x190 }
  - { offset: 0x290058, size: 0x8, addend: 0x0, symName: ____Z36RLMConvertRLMBSONArrayToBsonDocumentP7NSArrayIPU17objcproto7RLMBSON11objc_objectE_block_invoke, symObjAddr: 0x1A60, symBinAddr: 0x401BA0, symSize: 0x120 }
  - { offset: 0x2903C7, size: 0x8, addend: 0x0, symName: '___copy_helper_block_ea8_32c94_ZTSKZ36RLMConvertRLMBSONArrayToBsonDocumentP7NSArrayIPU17objcproto7RLMBSON11objc_objectEE3$_0', symObjAddr: 0x1B80, symBinAddr: 0x401CC0, symSize: 0xC }
  - { offset: 0x2903EC, size: 0x8, addend: 0x0, symName: ___destroy_helper_block_ea8_32, symObjAddr: 0x1B8C, symBinAddr: 0x401CCC, symSize: 0x4 }
  - { offset: 0x29049F, size: 0x8, addend: 0x0, symName: __Z31RLMConvertBsonDocumentToRLMBSONNSt3__18optionalIN5realm4bson12BsonDocumentEEE, symObjAddr: 0x1B90, symBinAddr: 0x401CD0, symSize: 0xC4 }
  - { offset: 0x29063B, size: 0x8, addend: 0x0, symName: __Z36RLMConvertBsonDocumentToRLMBSONArrayNSt3__18optionalIN5realm4bson12BsonDocumentEEE, symObjAddr: 0x1C54, symBinAddr: 0x401D94, symSize: 0x1DC }
  - { offset: 0x290E6C, size: 0x8, addend: 0x0, symName: __ZNSt3__16vectorINS_12basic_stringIcNS_11char_traitsIcEENS_9allocatorIcEEEENS4_IS6_EEE21__push_back_slow_pathIRKS6_EEPS6_OT_, symObjAddr: 0x26F4, symBinAddr: 0x4020F4, symSize: 0x120 }
  - { offset: 0x292343, size: 0x8, addend: 0x0, symName: __ZNSt3__114__split_bufferINS_12basic_stringIcNS_11char_traitsIcEENS_9allocatorIcEEEERNS4_IS6_EEED2Ev, symObjAddr: 0x29F4, symBinAddr: 0x4023E0, symSize: 0x34 }
  - { offset: 0x292568, size: 0x8, addend: 0x0, symName: __ZNSt3__128__exception_guard_exceptionsINS_29_AllocatorDestroyRangeReverseINS_9allocatorINS_12basic_stringIcNS_11char_traitsIcEENS2_IcEEEEEENS_16reverse_iteratorIPS7_EEEEED2B8ne180100Ev, symObjAddr: 0x297C, symBinAddr: 0x402368, symSize: 0x34 }
  - { offset: 0x2925A1, size: 0x8, addend: 0x0, symName: __ZNKSt3__129_AllocatorDestroyRangeReverseINS_9allocatorINS_12basic_stringIcNS_11char_traitsIcEENS1_IcEEEEEENS_16reverse_iteratorIPS6_EEEclB8ne180100Ev, symObjAddr: 0x29B0, symBinAddr: 0x40239C, symSize: 0x44 }
  - { offset: 0x29284A, size: 0x8, addend: 0x0, symName: __ZNSt3__114__split_bufferINS_12basic_stringIcNS_11char_traitsIcEENS_9allocatorIcEEEERNS4_IS6_EEE17__destruct_at_endB8ne180100EPS6_, symObjAddr: 0x2A28, symBinAddr: 0x402414, symSize: 0x54 }
  - { offset: 0x292DA0, size: 0x8, addend: 0x0, symName: __ZNSt3__112__hash_tableINS_17__hash_value_typeINS_12basic_stringIcNS_11char_traitsIcEENS_9allocatorIcEEEEN5realm4bson4BsonEEENS_22__unordered_map_hasherIS7_SB_NS_4hashIS7_EENS_8equal_toIS7_EELb1EEENS_21__unordered_map_equalIS7_SB_SG_SE_Lb1EEENS5_ISB_EEE8__rehashILb1EEEvm, symObjAddr: 0x2DB0, symBinAddr: 0x402468, symSize: 0xDC }
  - { offset: 0x29387B, size: 0x8, addend: 0x0, symName: __ZNSt3__16vectorINS_12basic_stringIcNS_11char_traitsIcEENS_9allocatorIcEEEENS4_IS6_EEE7__clearB8ne180100Ev, symObjAddr: 0x30A4, symBinAddr: 0x4025C0, symSize: 0x4C }
  - { offset: 0x293AAE, size: 0x8, addend: 0x0, symName: __ZNSt3__112__hash_tableINS_17__hash_value_typeINS_12basic_stringIcNS_11char_traitsIcEENS_9allocatorIcEEEEN5realm4bson4BsonEEENS_22__unordered_map_hasherIS7_SB_NS_4hashIS7_EENS_8equal_toIS7_EELb1EEENS_21__unordered_map_equalIS7_SB_SG_SE_Lb1EEENS5_ISB_EEE17__deallocate_nodeEPNS_16__hash_node_baseIPNS_11__hash_nodeISB_PvEEEE, symObjAddr: 0x3128, symBinAddr: 0x402644, symSize: 0x3C }
  - { offset: 0x293E49, size: 0x8, addend: 0x0, symName: __ZNSt3__113unordered_mapINS_12basic_stringIcNS_11char_traitsIcEENS_9allocatorIcEEEEN5realm4bson4BsonENS_4hashIS6_EENS_8equal_toIS6_EENS4_INS_4pairIKS6_S9_EEEEEC2ERKSI_, symObjAddr: 0x3234, symBinAddr: 0x402750, symSize: 0x74 }
  - { offset: 0x29419A, size: 0x8, addend: 0x0, symName: __ZNSt3__16vectorINS_12basic_stringIcNS_11char_traitsIcEENS_9allocatorIcEEEENS4_IS6_EEE16__init_with_sizeB8ne180100IPS6_SA_EEvT_T0_m, symObjAddr: 0x3610, symBinAddr: 0x4027C4, symSize: 0x84 }
  - { offset: 0x294E87, size: 0x8, addend: 0x0, symName: __ZNSt3__16vectorINS_12basic_stringIcNS_11char_traitsIcEENS_9allocatorIcEEEENS4_IS6_EEE11__vallocateB8ne180100Em, symObjAddr: 0x3694, symBinAddr: 0x402848, symSize: 0x50 }
  - { offset: 0x294EFE, size: 0x8, addend: 0x0, symName: __ZNSt3__135__uninitialized_allocator_copy_implB8ne180100INS_9allocatorINS_12basic_stringIcNS_11char_traitsIcEENS1_IcEEEEEEPS6_S8_S8_EET2_RT_T0_T1_S9_, symObjAddr: 0x36E4, symBinAddr: 0x402898, symSize: 0xBC }
  - { offset: 0x294FD0, size: 0x8, addend: 0x0, symName: __ZNSt3__128__exception_guard_exceptionsINS_29_AllocatorDestroyRangeReverseINS_9allocatorINS_12basic_stringIcNS_11char_traitsIcEENS2_IcEEEEEEPS7_EEED2B8ne180100Ev, symObjAddr: 0x37A0, symBinAddr: 0x402954, symSize: 0x34 }
  - { offset: 0x295009, size: 0x8, addend: 0x0, symName: __ZNKSt3__129_AllocatorDestroyRangeReverseINS_9allocatorINS_12basic_stringIcNS_11char_traitsIcEENS1_IcEEEEEEPS6_EclB8ne180100Ev, symObjAddr: 0x37D4, symBinAddr: 0x402988, symSize: 0x44 }
  - { offset: 0x29531B, size: 0x8, addend: 0x0, symName: __ZNSt3__16vectorIN5realm4bson4BsonENS_9allocatorIS3_EEE11__vallocateB8ne180100Em, symObjAddr: 0x389C, symBinAddr: 0x402A50, symSize: 0x50 }
  - { offset: 0x295392, size: 0x8, addend: 0x0, symName: __ZNSt3__135__uninitialized_allocator_copy_implB8ne180100INS_9allocatorIN5realm4bson4BsonEEEPS4_S6_S6_EET2_RT_T0_T1_S7_, symObjAddr: 0x38EC, symBinAddr: 0x402AA0, symSize: 0x80 }
  - { offset: 0x2976FB, size: 0x8, addend: 0x0, symName: __ZN12RLMClassInfoC2EP8RLMRealmP15RLMObjectSchemaPKN5realm12ObjectSchemaE, symObjAddr: 0x0, symBinAddr: 0x402B20, symSize: 0x1C }
  - { offset: 0x2C25AB, size: 0x8, addend: 0x0, symName: __ZNSt3__112__destroy_atB8ne180100INS_4pairIU8__strongKP8NSString12RLMClassInfoEELi0EEEvPT_, symObjAddr: 0x1504, symBinAddr: 0x403FFC, symSize: 0x44 }
  - { offset: 0x2D3578, size: 0x8, addend: 0x0, symName: __ZN12RLMClassInfoC2EP8RLMRealmP15RLMObjectSchemaPKN5realm12ObjectSchemaE, symObjAddr: 0x0, symBinAddr: 0x402B20, symSize: 0x1C }
  - { offset: 0x2D3691, size: 0x8, addend: 0x0, symName: __ZN12RLMClassInfoC1EP8RLMRealmP15RLMObjectSchemaPKN5realm12ObjectSchemaE, symObjAddr: 0x1C, symBinAddr: 0x402B3C, symSize: 0x1C }
  - { offset: 0x2D36CD, size: 0x8, addend: 0x0, symName: __ZN12RLMClassInfoC1EP8RLMRealmP15RLMObjectSchemaPKN5realm12ObjectSchemaE, symObjAddr: 0x1C, symBinAddr: 0x402B3C, symSize: 0x1C }
  - { offset: 0x2D392D, size: 0x8, addend: 0x0, symName: __ZN12RLMClassInfoC2EP8RLMRealmP15RLMObjectSchemaNSt3__110unique_ptrIN5realm12ObjectSchemaENS4_14default_deleteIS7_EEEE, symObjAddr: 0x38, symBinAddr: 0x402B58, symSize: 0x54 }
  - { offset: 0x2D3AD0, size: 0x8, addend: 0x0, symName: __ZN12RLMClassInfoC1EP8RLMRealmP15RLMObjectSchemaNSt3__110unique_ptrIN5realm12ObjectSchemaENS4_14default_deleteIS7_EEEE, symObjAddr: 0x8C, symBinAddr: 0x402BAC, symSize: 0x54 }
  - { offset: 0x2D3CC6, size: 0x8, addend: 0x0, symName: __ZNK12RLMClassInfo5tableEv, symObjAddr: 0xE0, symBinAddr: 0x402C00, symSize: 0x8C }
  - { offset: 0x2D3D8B, size: 0x8, addend: 0x0, symName: __ZNK12RLMClassInfo22propertyForTableColumnEN5realm6ColKeyE, symObjAddr: 0x16C, symBinAddr: 0x402C8C, symSize: 0xA8 }
  - { offset: 0x2D3E00, size: 0x8, addend: 0x0, symName: __ZNK12RLMClassInfo21propertyForPrimaryKeyEv, symObjAddr: 0x214, symBinAddr: 0x402D34, symSize: 0x24 }
  - { offset: 0x2D3E7C, size: 0x8, addend: 0x0, symName: __ZNK12RLMClassInfo11tableColumnEP8NSString, symObjAddr: 0x238, symBinAddr: 0x402D58, symSize: 0x68 }
  - { offset: 0x2D3F2E, size: 0x8, addend: 0x0, symName: __ZNK12RLMClassInfo11tableColumnEP11RLMProperty, symObjAddr: 0x2A0, symBinAddr: 0x402DC0, symSize: 0x34 }
  - { offset: 0x2D3F83, size: 0x8, addend: 0x0, symName: __ZNK12RLMClassInfo19computedTableColumnEP11RLMProperty, symObjAddr: 0x2D4, symBinAddr: 0x402DF4, symSize: 0x134 }
  - { offset: 0x2D4070, size: 0x8, addend: 0x0, symName: __ZN13RLMSchemaInfoixEP8NSString, symObjAddr: 0x408, symBinAddr: 0x402F28, symSize: 0x144 }
  - { offset: 0x2D4444, size: 0x8, addend: 0x0, symName: __ZN12RLMClassInfo14linkTargetTypeEm, symObjAddr: 0x54C, symBinAddr: 0x40306C, symSize: 0xC0 }
  - { offset: 0x2D44C4, size: 0x8, addend: 0x0, symName: __ZN12RLMClassInfo14linkTargetTypeERKN5realm8PropertyE, symObjAddr: 0x60C, symBinAddr: 0x40312C, symSize: 0x64 }
  - { offset: 0x2D458E, size: 0x8, addend: 0x0, symName: __ZN12RLMClassInfo7resolveEP8RLMRealm, symObjAddr: 0x670, symBinAddr: 0x403190, symSize: 0x60 }
  - { offset: 0x2D459F, size: 0x8, addend: 0x0, symName: __ZN12RLMClassInfo7resolveEP8RLMRealm, symObjAddr: 0x670, symBinAddr: 0x403190, symSize: 0x60 }
  - { offset: 0x2D45E5, size: 0x8, addend: 0x0, symName: __ZNK12RLMClassInfo12isSwiftClassEv, symObjAddr: 0x6D0, symBinAddr: 0x4031F0, symSize: 0x1C }
  - { offset: 0x2D4624, size: 0x8, addend: 0x0, symName: __ZNK12RLMClassInfo9isDynamicEv, symObjAddr: 0x6EC, symBinAddr: 0x40320C, symSize: 0x10 }
  - { offset: 0x2D464A, size: 0x8, addend: 0x0, symName: __ZNK12RLMClassInfo9isDynamicEv, symObjAddr: 0x6EC, symBinAddr: 0x40320C, symSize: 0x10 }
  - { offset: 0x2D52F4, size: 0x8, addend: 0x0, symName: __ZNK12RLMClassInfo27keyPathArrayFromStringArrayEP7NSArrayIP8NSStringE, symObjAddr: 0x6FC, symBinAddr: 0x40321C, symSize: 0x7C8 }
  - { offset: 0x2D65FD, size: 0x8, addend: 0x0, symName: __ZNSt3__16vectorINS0_INS_4pairIN5realm8TableKeyENS2_6ColKeyEEENS_9allocatorIS5_EEEENS6_IS8_EEE16__destroy_vectorclB8ne180100Ev, symObjAddr: 0x13D4, symBinAddr: 0x403EF4, symSize: 0x40 }
  - { offset: 0x2D672B, size: 0x8, addend: 0x0, symName: __ZN13RLMSchemaInfo5beginEv, symObjAddr: 0xEC4, symBinAddr: 0x4039E4, symSize: 0x8 }
  - { offset: 0x2D6757, size: 0x8, addend: 0x0, symName: __ZN13RLMSchemaInfo5beginEv, symObjAddr: 0xEC4, symBinAddr: 0x4039E4, symSize: 0x8 }
  - { offset: 0x2D6774, size: 0x8, addend: 0x0, symName: __ZN13RLMSchemaInfo5beginEv, symObjAddr: 0xEC4, symBinAddr: 0x4039E4, symSize: 0x8 }
  - { offset: 0x2D6791, size: 0x8, addend: 0x0, symName: __ZN13RLMSchemaInfo3endEv, symObjAddr: 0xECC, symBinAddr: 0x4039EC, symSize: 0x8 }
  - { offset: 0x2D67ED, size: 0x8, addend: 0x0, symName: __ZNK13RLMSchemaInfo5beginEv, symObjAddr: 0xED4, symBinAddr: 0x4039F4, symSize: 0x8 }
  - { offset: 0x2D6819, size: 0x8, addend: 0x0, symName: __ZNK13RLMSchemaInfo5beginEv, symObjAddr: 0xED4, symBinAddr: 0x4039F4, symSize: 0x8 }
  - { offset: 0x2D6836, size: 0x8, addend: 0x0, symName: __ZNK13RLMSchemaInfo5beginEv, symObjAddr: 0xED4, symBinAddr: 0x4039F4, symSize: 0x8 }
  - { offset: 0x2D6853, size: 0x8, addend: 0x0, symName: __ZNK13RLMSchemaInfo3endEv, symObjAddr: 0xEDC, symBinAddr: 0x4039FC, symSize: 0x8 }
  - { offset: 0x2D689E, size: 0x8, addend: 0x0, symName: __ZN13RLMSchemaInfoixEN5realm8TableKeyE, symObjAddr: 0xEE4, symBinAddr: 0x403A04, symSize: 0x2C }
  - { offset: 0x2D68D3, size: 0x8, addend: 0x0, symName: __ZN13RLMSchemaInfoixEN5realm8TableKeyE, symObjAddr: 0xEE4, symBinAddr: 0x403A04, symSize: 0x2C }
  - { offset: 0x2D690D, size: 0x8, addend: 0x0, symName: __ZN13RLMSchemaInfoixEN5realm8TableKeyE, symObjAddr: 0xEE4, symBinAddr: 0x403A04, symSize: 0x2C }
  - { offset: 0x2D692A, size: 0x8, addend: 0x0, symName: __ZN13RLMSchemaInfoixEN5realm8TableKeyE, symObjAddr: 0xEE4, symBinAddr: 0x403A04, symSize: 0x2C }
  - { offset: 0x2D7480, size: 0x8, addend: 0x0, symName: __ZN13RLMSchemaInfoC2EP8RLMRealm, symObjAddr: 0xF10, symBinAddr: 0x403A30, symSize: 0x314 }
  - { offset: 0x2D7E4B, size: 0x8, addend: 0x0, symName: __ZNSt3__112__hash_tableINS_17__hash_value_typeIU8__strongP8NSString12RLMClassInfoEENS_22__unordered_map_hasherIS4_S6_NS_4hashIS4_EENS_8equal_toIS4_EELb1EEENS_21__unordered_map_equalIS4_S6_SB_S9_Lb1EEENS_9allocatorIS6_EEE8__rehashILb1EEEvm, symObjAddr: 0x1574, symBinAddr: 0x40406C, symSize: 0xDC }
  - { offset: 0x2D7F49, size: 0x8, addend: 0x0, symName: __ZNSt3__112__hash_tableINS_17__hash_value_typeIU8__strongP8NSString12RLMClassInfoEENS_22__unordered_map_hasherIS4_S6_NS_4hashIS4_EENS_8equal_toIS4_EELb1EEENS_21__unordered_map_equalIS4_S6_SB_S9_Lb1EEENS_9allocatorIS6_EEE20__node_insert_uniqueEPNS_11__hash_nodeIS6_PvEE, symObjAddr: 0x17A8, symBinAddr: 0x4042A0, symSize: 0x6C }
  - { offset: 0x2D8014, size: 0x8, addend: 0x0, symName: __ZNSt3__110unique_ptrINS_11__hash_nodeINS_17__hash_value_typeIU8__strongP8NSString12RLMClassInfoEEPvEENS_22__hash_node_destructorINS_9allocatorIS9_EEEEE5resetB8ne180100EPS9_, symObjAddr: 0x1A10, symBinAddr: 0x404508, symSize: 0x44 }
  - { offset: 0x2D81A3, size: 0x8, addend: 0x0, symName: __ZNSt3__112__hash_tableINS_17__hash_value_typeIU8__strongP8NSString12RLMClassInfoEENS_22__unordered_map_hasherIS4_S6_NS_4hashIS4_EENS_8equal_toIS4_EELb1EEENS_21__unordered_map_equalIS4_S6_SB_S9_Lb1EEENS_9allocatorIS6_EEED2Ev, symObjAddr: 0x1490, symBinAddr: 0x403F88, symSize: 0x38 }
  - { offset: 0x2D832A, size: 0x8, addend: 0x0, symName: __ZN13RLMSchemaInfoC1EP8RLMRealm, symObjAddr: 0x1224, symBinAddr: 0x403D44, symSize: 0x4 }
  - { offset: 0x2D8366, size: 0x8, addend: 0x0, symName: __ZN13RLMSchemaInfoC1EP8RLMRealm, symObjAddr: 0x1224, symBinAddr: 0x403D44, symSize: 0x4 }
  - { offset: 0x2D883D, size: 0x8, addend: 0x0, symName: __ZN13RLMSchemaInfo5cloneERKN5realm6SchemaEP8RLMRealm, symObjAddr: 0x1228, symBinAddr: 0x403D48, symSize: 0xF0 }
  - { offset: 0x2D8ED8, size: 0x8, addend: 0x0, symName: __ZNSt3__112__hash_tableINS_17__hash_value_typeIU8__strongP8NSString12RLMClassInfoEENS_22__unordered_map_hasherIS4_S6_NS_4hashIS4_EENS_8equal_toIS4_EELb1EEENS_21__unordered_map_equalIS4_S6_SB_S9_Lb1EEENS_9allocatorIS6_EEE21__emplace_unique_implIJRKNS_21piecewise_construct_tENS_5tupleIJRU8__strongKS3_EEENSM_IJRKP8RLMRealmRKP15RLMObjectSchemaOPKN5realm12ObjectSchemaEEEEEEENS_4pairINS_15__hash_iteratorIPNS_11__hash_nodeIS6_PvEEEEbEEDpOT_, symObjAddr: 0x1A54, symBinAddr: 0x40454C, symSize: 0x74 }
  - { offset: 0x2D9451, size: 0x8, addend: 0x0, symName: __ZN13RLMSchemaInfo25appendDynamicObjectSchemaENSt3__110unique_ptrIN5realm12ObjectSchemaENS0_14default_deleteIS3_EEEEP15RLMObjectSchemaP8RLMRealm, symObjAddr: 0x1318, symBinAddr: 0x403E38, symSize: 0xBC }
  - { offset: 0x2D96A1, size: 0x8, addend: 0x0, symName: __ZNSt3__112__hash_tableINS_17__hash_value_typeIU8__strongP8NSString12RLMClassInfoEENS_22__unordered_map_hasherIS4_S6_NS_4hashIS4_EENS_8equal_toIS4_EELb1EEENS_21__unordered_map_equalIS4_S6_SB_S9_Lb1EEENS_9allocatorIS6_EEE21__emplace_unique_implIJRKNS_21piecewise_construct_tENS_5tupleIJOS4_EEENSM_IJRKP8RLMRealmRU8__strongP15RLMObjectSchemaONS_10unique_ptrIN5realm12ObjectSchemaENS_14default_deleteISZ_EEEEEEEEEENS_4pairINS_15__hash_iteratorIPNS_11__hash_nodeIS6_PvEEEEbEEDpOT_, symObjAddr: 0x1B74, symBinAddr: 0x40466C, symSize: 0x74 }
  - { offset: 0x2D982F, size: 0x8, addend: 0x0, symName: __ZNSt3__16vectorINS0_INS_4pairIN5realm8TableKeyENS2_6ColKeyEEENS_9allocatorIS5_EEEENS6_IS8_EEE7__clearB8ne180100Ev, symObjAddr: 0x1414, symBinAddr: 0x403F34, symSize: 0x54 }
  - { offset: 0x2D9B45, size: 0x8, addend: 0x0, symName: __ZNSt3__112__hash_tableINS_17__hash_value_typeIU8__strongP8NSString12RLMClassInfoEENS_22__unordered_map_hasherIS4_S6_NS_4hashIS4_EENS_8equal_toIS4_EELb1EEENS_21__unordered_map_equalIS4_S6_SB_S9_Lb1EEENS_9allocatorIS6_EEE17__deallocate_nodeEPNS_16__hash_node_baseIPNS_11__hash_nodeIS6_PvEEEE, symObjAddr: 0x14C8, symBinAddr: 0x403FC0, symSize: 0x3C }
  - { offset: 0x2D9ED4, size: 0x8, addend: 0x0, symName: __ZNSt3__110unique_ptrIN5realm12ObjectSchemaENS_14default_deleteIS2_EEE5resetB8ne180100EPS2_, symObjAddr: 0x1548, symBinAddr: 0x404040, symSize: 0x2C }
  - { offset: 0x2D9F61, size: 0x8, addend: 0x0, symName: __ZNSt3__112__hash_tableINS_17__hash_value_typeIU8__strongP8NSString12RLMClassInfoEENS_22__unordered_map_hasherIS4_S6_NS_4hashIS4_EENS_8equal_toIS4_EELb1EEENS_21__unordered_map_equalIS4_S6_SB_S9_Lb1EEENS_9allocatorIS6_EEE11__do_rehashILb1EEEvm, symObjAddr: 0x1650, symBinAddr: 0x404148, symSize: 0x158 }
  - { offset: 0x2DA4BA, size: 0x8, addend: 0x0, symName: __ZNSt3__112__hash_tableINS_17__hash_value_typeIU8__strongP8NSString12RLMClassInfoEENS_22__unordered_map_hasherIS4_S6_NS_4hashIS4_EENS_8equal_toIS4_EELb1EEENS_21__unordered_map_equalIS4_S6_SB_S9_Lb1EEENS_9allocatorIS6_EEE28__node_insert_unique_prepareB8ne180100EmRS6_, symObjAddr: 0x1814, symBinAddr: 0x40430C, symSize: 0x144 }
  - { offset: 0x2DA6CA, size: 0x8, addend: 0x0, symName: __ZNSt3__112__hash_tableINS_17__hash_value_typeIU8__strongP8NSString12RLMClassInfoEENS_22__unordered_map_hasherIS4_S6_NS_4hashIS4_EENS_8equal_toIS4_EELb1EEENS_21__unordered_map_equalIS4_S6_SB_S9_Lb1EEENS_9allocatorIS6_EEE28__node_insert_unique_performB8ne180100EPNS_11__hash_nodeIS6_PvEE, symObjAddr: 0x1958, symBinAddr: 0x404450, symSize: 0xB8 }
  - { offset: 0x2DA733, size: 0x8, addend: 0x0, symName: __ZNSt3__112__hash_tableINS_17__hash_value_typeIU8__strongP8NSString12RLMClassInfoEENS_22__unordered_map_hasherIS4_S6_NS_4hashIS4_EENS_8equal_toIS4_EELb1EEENS_21__unordered_map_equalIS4_S6_SB_S9_Lb1EEENS_9allocatorIS6_EEE28__node_insert_unique_performB8ne180100EPNS_11__hash_nodeIS6_PvEE, symObjAddr: 0x1958, symBinAddr: 0x404450, symSize: 0xB8 }
  - { offset: 0x2DA751, size: 0x8, addend: 0x0, symName: __ZNSt3__112__hash_tableINS_17__hash_value_typeIU8__strongP8NSString12RLMClassInfoEENS_22__unordered_map_hasherIS4_S6_NS_4hashIS4_EENS_8equal_toIS4_EELb1EEENS_21__unordered_map_equalIS4_S6_SB_S9_Lb1EEENS_9allocatorIS6_EEE28__node_insert_unique_performB8ne180100EPNS_11__hash_nodeIS6_PvEE, symObjAddr: 0x1958, symBinAddr: 0x404450, symSize: 0xB8 }
  - { offset: 0x2DA8CF, size: 0x8, addend: 0x0, symName: __ZNSt3__112__hash_tableINS_17__hash_value_typeIU8__strongP8NSString12RLMClassInfoEENS_22__unordered_map_hasherIS4_S6_NS_4hashIS4_EENS_8equal_toIS4_EELb1EEENS_21__unordered_map_equalIS4_S6_SB_S9_Lb1EEENS_9allocatorIS6_EEE16__construct_nodeIJRKNS_21piecewise_construct_tENS_5tupleIJRU8__strongKS3_EEENSM_IJRKP8RLMRealmRKP15RLMObjectSchemaOPKN5realm12ObjectSchemaEEEEEEENS_10unique_ptrINS_11__hash_nodeIS6_PvEENS_22__hash_node_destructorINSF_IS17_EEEEEEDpOT_, symObjAddr: 0x1AC8, symBinAddr: 0x4045C0, symSize: 0xAC }
  - { offset: 0x2DB01E, size: 0x8, addend: 0x0, symName: __ZNSt3__112__hash_tableINS_17__hash_value_typeIU8__strongP8NSString12RLMClassInfoEENS_22__unordered_map_hasherIS4_S6_NS_4hashIS4_EENS_8equal_toIS4_EELb1EEENS_21__unordered_map_equalIS4_S6_SB_S9_Lb1EEENS_9allocatorIS6_EEE16__construct_nodeIJRKNS_21piecewise_construct_tENS_5tupleIJOS4_EEENSM_IJRKP8RLMRealmRU8__strongP15RLMObjectSchemaONS_10unique_ptrIN5realm12ObjectSchemaENS_14default_deleteISZ_EEEEEEEEEENSX_INS_11__hash_nodeIS6_PvEENS_22__hash_node_destructorINSF_IS17_EEEEEEDpOT_, symObjAddr: 0x1BE8, symBinAddr: 0x4046E0, symSize: 0xB4 }
  - { offset: 0x2DD56E, size: 0x8, addend: 0x0, symName: '-[RLMFastEnumerator initWithBackingCollection:collection:classInfo:parentInfo:property:]', symObjAddr: 0x0, symBinAddr: 0x404794, symSize: 0x1BC }
  - { offset: 0x2E82FD, size: 0x8, addend: 0x0, symName: __ZN5realm5_impl9box_mixedI18RLMAccessorContextEEDaRT_RKNS_12object_store10CollectionERKNS_11PathElementENS_5MixedE, symObjAddr: 0x390C, symBinAddr: 0x4080A0, symSize: 0xD8 }
  - { offset: 0x3316BE, size: 0x8, addend: 0x0, symName: __ZNSt3__119__allocate_at_leastB8ne180100INS_9allocatorINS_4pairINS_12basic_stringIcNS_11char_traitsIcEENS1_IcEEEEbEEEEEENS_19__allocation_resultINS_16allocator_traitsIT_E7pointerEEERSC_m, symObjAddr: 0x3FF8, symBinAddr: 0x408778, symSize: 0x34 }
  - { offset: 0x339EA9, size: 0x8, addend: 0x0, symName: '-[RLMFastEnumerator initWithBackingCollection:collection:classInfo:parentInfo:property:]', symObjAddr: 0x0, symBinAddr: 0x404794, symSize: 0x1BC }
  - { offset: 0x339F21, size: 0x8, addend: 0x0, symName: '-[RLMFastEnumerator initWithBackingDictionary:dictionary:classInfo:parentInfo:property:]', symObjAddr: 0x1BC, symBinAddr: 0x404950, symSize: 0x1BC }
  - { offset: 0x339F99, size: 0x8, addend: 0x0, symName: '-[RLMFastEnumerator initWithResults:collection:classInfo:]', symObjAddr: 0x378, symBinAddr: 0x404B0C, symSize: 0x130 }
  - { offset: 0x339FF1, size: 0x8, addend: 0x0, symName: '-[RLMFastEnumerator dealloc]', symObjAddr: 0x4A8, symBinAddr: 0x404C3C, symSize: 0x84 }
  - { offset: 0x33A024, size: 0x8, addend: 0x0, symName: '-[RLMFastEnumerator detach]', symObjAddr: 0x52C, symBinAddr: 0x404CC0, symSize: 0x78 }
  - { offset: 0x33A1ED, size: 0x8, addend: 0x0, symName: '-[RLMFastEnumerator countByEnumeratingWithState:count:]', symObjAddr: 0x5A4, symBinAddr: 0x404D38, symSize: 0x1F4 }
  - { offset: 0x33A370, size: 0x8, addend: 0x0, symName: __ZN5realm7Results3getI18RLMAccessorContextEEDaRT_m, symObjAddr: 0x798, symBinAddr: 0x404F2C, symSize: 0x38 }
  - { offset: 0x33A6A8, size: 0x8, addend: 0x0, symName: __ZNK5realm7Results8dispatchIZNS0_3getI18RLMAccessorContextEEDaRT_mEUlS5_E_EES4_OS5_, symObjAddr: 0x3530, symBinAddr: 0x407CC4, symSize: 0x2E0 }
  - { offset: 0x33A9E5, size: 0x8, addend: 0x0, symName: '-[RLMFastEnumerator .cxx_destruct]', symObjAddr: 0x7D0, symBinAddr: 0x404F64, symSize: 0x60 }
  - { offset: 0x33AA18, size: 0x8, addend: 0x0, symName: '-[RLMFastEnumerator .cxx_construct]', symObjAddr: 0x830, symBinAddr: 0x404FC4, symSize: 0x28 }
  - { offset: 0x33AA4F, size: 0x8, addend: 0x0, symName: __Z16RLMFastEnumerateP22NSFastEnumerationStatemPU31objcproto20RLMCollectionPrivate11objc_object, symObjAddr: 0x858, symBinAddr: 0x404FEC, symSize: 0xA8 }
  - { offset: 0x33AB63, size: 0x8, addend: 0x0, symName: __Z25RLMUnmanagedFastEnumerateP11objc_objectP22NSFastEnumerationState, symObjAddr: 0x900, symBinAddr: 0x405094, symSize: 0x1FC }
  - { offset: 0x33AC9C, size: 0x8, addend: 0x0, symName: __ZNKSt3__114default_deleteIA_U8__strongP11objc_objectEclB8ne180100IS3_EENS5_20_EnableIfConvertibleIT_E4typeEPS8_, symObjAddr: 0x437C, symBinAddr: 0x408ABC, symSize: 0x48 }
  - { offset: 0x33AD39, size: 0x8, addend: 0x0, symName: '-[RLMArrayHolder .cxx_destruct]', symObjAddr: 0xAFC, symBinAddr: 0x405290, symSize: 0x18 }
  - { offset: 0x33AEEF, size: 0x8, addend: 0x0, symName: '-[RLMArrayHolder .cxx_construct]', symObjAddr: 0xB14, symBinAddr: 0x4052A8, symSize: 0x8 }
  - { offset: 0x33AF27, size: 0x8, addend: 0x0, symName: '-[RLMArrayHolder .cxx_construct]', symObjAddr: 0xB14, symBinAddr: 0x4052A8, symSize: 0x8 }
  - { offset: 0x33AF46, size: 0x8, addend: 0x0, symName: '-[RLMArrayHolder .cxx_construct]', symObjAddr: 0xB14, symBinAddr: 0x4052A8, symSize: 0x8 }
  - { offset: 0x33AF66, size: 0x8, addend: 0x0, symName: '-[RLMArrayHolder .cxx_construct]', symObjAddr: 0xB14, symBinAddr: 0x4052A8, symSize: 0x8 }
  - { offset: 0x33AF86, size: 0x8, addend: 0x0, symName: '-[RLMArrayHolder .cxx_construct]', symObjAddr: 0xB14, symBinAddr: 0x4052A8, symSize: 0x8 }
  - { offset: 0x33AFA5, size: 0x8, addend: 0x0, symName: '-[RLMArrayHolder .cxx_construct]', symObjAddr: 0xB14, symBinAddr: 0x4052A8, symSize: 0x8 }
  - { offset: 0x33AFE1, size: 0x8, addend: 0x0, symName: __Z17columnForPropertyP8NSStringRKN5realm12object_store10CollectionEP12RLMClassInfo15RLMPropertyType17RLMCollectionType, symObjAddr: 0xB1C, symBinAddr: 0x4052B0, symSize: 0x11C }
  - { offset: 0x33B0C8, size: 0x8, addend: 0x0, symName: __ZL15RLMTypeToString15RLMPropertyType, symObjAddr: 0xC38, symBinAddr: 0x4053CC, symSize: 0x24 }
  - { offset: 0x33B0E7, size: 0x8, addend: 0x0, symName: __Z24RLMCollectionValueForKeyIN5realm7ResultsEEP7NSArrayRT_P8NSStringR12RLMClassInfo, symObjAddr: 0xC5C, symBinAddr: 0x4053F0, symSize: 0x540 }
  - { offset: 0x33B5F5, size: 0x8, addend: 0x0, symName: __Z24RLMCollectionValueForKeyIN5realm4ListEEP7NSArrayRT_P8NSStringR12RLMClassInfo, symObjAddr: 0x119C, symBinAddr: 0x405930, symSize: 0x53C }
  - { offset: 0x33BB12, size: 0x8, addend: 0x0, symName: __ZNK5realm4List3getI18RLMAccessorContextEEDaRT_m, symObjAddr: 0x16D8, symBinAddr: 0x405E6C, symSize: 0xE8 }
  - { offset: 0x33C273, size: 0x8, addend: 0x0, symName: __ZNK5realm4List8dispatchIZNKS0_3getI18RLMAccessorContextEEDaRT_mEUlS5_E_EES4_OS5_, symObjAddr: 0x39E4, symBinAddr: 0x408178, symSize: 0x300 }
  - { offset: 0x33C5E5, size: 0x8, addend: 0x0, symName: __Z24RLMCollectionValueForKeyIN5realm12object_store3SetEEP7NSArrayRT_P8NSStringR12RLMClassInfo, symObjAddr: 0x17C0, symBinAddr: 0x405F54, symSize: 0x53C }
  - { offset: 0x33CB02, size: 0x8, addend: 0x0, symName: __ZNK5realm12object_store3Set3getI18RLMAccessorContextEEDaRT_m, symObjAddr: 0x1CFC, symBinAddr: 0x406490, symSize: 0x38 }
  - { offset: 0x33CE0D, size: 0x8, addend: 0x0, symName: __ZNK5realm12object_store3Set8dispatchIZNKS1_3getI18RLMAccessorContextEEDaRT_mEUlS6_E_EES5_OS6_, symObjAddr: 0x3CE4, symBinAddr: 0x408478, symSize: 0x300 }
  - { offset: 0x33D1F1, size: 0x8, addend: 0x0, symName: __Z27RLMCollectionSetValueForKeyPU31objcproto20RLMCollectionPrivate11objc_objectP8NSStringP11objc_object, symObjAddr: 0x1D34, symBinAddr: 0x4064C8, symSize: 0x1C0 }
  - { offset: 0x33D376, size: 0x8, addend: 0x0, symName: _RLMAssignToCollection, symObjAddr: 0x1EF4, symBinAddr: 0x406688, symSize: 0x8 }
  - { offset: 0x33D3CB, size: 0x8, addend: 0x0, symName: _RLMDescriptionWithMaxDepth, symObjAddr: 0x1EFC, symBinAddr: 0x406690, symSize: 0x37C }
  - { offset: 0x33DAEE, size: 0x8, addend: 0x0, symName: __Z32RLMSortDescriptorsToKeypathArrayP7NSArrayIP17RLMSortDescriptorE, symObjAddr: 0x2278, symBinAddr: 0x406A0C, symSize: 0x470 }
  - { offset: 0x33EA40, size: 0x8, addend: 0x0, symName: __ZNSt3__114__split_bufferINS_4pairINS_12basic_stringIcNS_11char_traitsIcEENS_9allocatorIcEEEEbEERNS5_IS8_EEED2Ev, symObjAddr: 0x402C, symBinAddr: 0x4087AC, symSize: 0x60 }
  - { offset: 0x33ECEC, size: 0x8, addend: 0x0, symName: __ZNSt3__16vectorINS_4pairINS_12basic_stringIcNS_11char_traitsIcEENS_9allocatorIcEEEEbEENS5_IS8_EEE16__destroy_vectorclB8ne180100Ev, symObjAddr: 0x408C, symBinAddr: 0x40880C, symSize: 0x40 }
  - { offset: 0x33F0B8, size: 0x8, addend: 0x0, symName: '-[RLMCollectionChange initWithChanges:]', symObjAddr: 0x26E8, symBinAddr: 0x406E7C, symSize: 0x168 }
  - { offset: 0x33F64A, size: 0x8, addend: 0x0, symName: __ZNSt3__16vectorIN5realm5_impl18ChunkedRangeVector5ChunkENS_9allocatorIS4_EEE13__vdeallocateEv, symObjAddr: 0x4118, symBinAddr: 0x408898, symSize: 0x38 }
  - { offset: 0x33F755, size: 0x8, addend: 0x0, symName: __ZNSt3__112__hash_tableINS_17__hash_value_typeIxN5realm8IndexSetEEENS_22__unordered_map_hasherIxS4_NS_4hashIxEENS_8equal_toIxEELb1EEENS_21__unordered_map_equalIxS4_S9_S7_Lb1EEENS_9allocatorIS4_EEE13__move_assignERSF_NS_17integral_constantIbLb1EEE, symObjAddr: 0x41A4, symBinAddr: 0x408924, symSize: 0xD4 }
  - { offset: 0x33FAFC, size: 0x8, addend: 0x0, symName: '-[RLMCollectionChange insertions]', symObjAddr: 0x2850, symBinAddr: 0x406FE4, symSize: 0x8 }
  - { offset: 0x33FB41, size: 0x8, addend: 0x0, symName: __ZL7toArrayRKN5realm8IndexSetE, symObjAddr: 0x2858, symBinAddr: 0x406FEC, symSize: 0x124 }
  - { offset: 0x33FF27, size: 0x8, addend: 0x0, symName: '-[RLMCollectionChange deletions]', symObjAddr: 0x297C, symBinAddr: 0x407110, symSize: 0x8 }
  - { offset: 0x33FF6D, size: 0x8, addend: 0x0, symName: '-[RLMCollectionChange modifications]', symObjAddr: 0x2984, symBinAddr: 0x407118, symSize: 0x8 }
  - { offset: 0x33FFB3, size: 0x8, addend: 0x0, symName: '-[RLMCollectionChange deletionsInSection:]', symObjAddr: 0x298C, symBinAddr: 0x407120, symSize: 0xC }
  - { offset: 0x340009, size: 0x8, addend: 0x0, symName: __Z19RLMToIndexPathArrayRKN5realm8IndexSetEm, symObjAddr: 0x2998, symBinAddr: 0x40712C, symSize: 0x178 }
  - { offset: 0x340247, size: 0x8, addend: 0x0, symName: '-[RLMCollectionChange insertionsInSection:]', symObjAddr: 0x2B10, symBinAddr: 0x4072A4, symSize: 0xC }
  - { offset: 0x34029D, size: 0x8, addend: 0x0, symName: '-[RLMCollectionChange modificationsInSection:]', symObjAddr: 0x2B1C, symBinAddr: 0x4072B0, symSize: 0xC }
  - { offset: 0x3402F3, size: 0x8, addend: 0x0, symName: '-[RLMCollectionChange description]', symObjAddr: 0x2B28, symBinAddr: 0x4072BC, symSize: 0xE8 }
  - { offset: 0x340564, size: 0x8, addend: 0x0, symName: '-[RLMCollectionChange .cxx_destruct]', symObjAddr: 0x2C10, symBinAddr: 0x4073A4, symSize: 0x88 }
  - { offset: 0x340BBC, size: 0x8, addend: 0x0, symName: __ZNSt3__112__hash_tableINS_17__hash_value_typeIxN5realm8IndexSetEEENS_22__unordered_map_hasherIxS4_NS_4hashIxEENS_8equal_toIxEELb1EEENS_21__unordered_map_equalIxS4_S9_S7_Lb1EEENS_9allocatorIS4_EEED2Ev, symObjAddr: 0x4344, symBinAddr: 0x408A84, symSize: 0x38 }
  - { offset: 0x340D39, size: 0x8, addend: 0x0, symName: __ZNSt3__16vectorIN5realm5_impl18ChunkedRangeVector5ChunkENS_9allocatorIS4_EEE16__destroy_vectorclB8ne180100Ev, symObjAddr: 0x42C4, symBinAddr: 0x408A44, symSize: 0x40 }
  - { offset: 0x3411E9, size: 0x8, addend: 0x0, symName: '-[RLMCollectionChange .cxx_construct]', symObjAddr: 0x2C98, symBinAddr: 0x40742C, symSize: 0x48 }
  - { offset: 0x341222, size: 0x8, addend: 0x0, symName: '-[RLMCollectionChange .cxx_construct]', symObjAddr: 0x2C98, symBinAddr: 0x40742C, symSize: 0x48 }
  - { offset: 0x341242, size: 0x8, addend: 0x0, symName: '-[RLMCollectionChange .cxx_construct]', symObjAddr: 0x2C98, symBinAddr: 0x40742C, symSize: 0x48 }
  - { offset: 0x3412C4, size: 0x8, addend: 0x0, symName: '-[RLMCollectionChange .cxx_construct]', symObjAddr: 0x2C98, symBinAddr: 0x40742C, symSize: 0x48 }
  - { offset: 0x3412E7, size: 0x8, addend: 0x0, symName: '-[RLMCollectionChange .cxx_construct]', symObjAddr: 0x2C98, symBinAddr: 0x40742C, symSize: 0x48 }
  - { offset: 0x341309, size: 0x8, addend: 0x0, symName: '-[RLMCollectionChange .cxx_construct]', symObjAddr: 0x2C98, symBinAddr: 0x40742C, symSize: 0x48 }
  - { offset: 0x34132B, size: 0x8, addend: 0x0, symName: '-[RLMCollectionChange .cxx_construct]', symObjAddr: 0x2C98, symBinAddr: 0x40742C, symSize: 0x48 }
  - { offset: 0x34134D, size: 0x8, addend: 0x0, symName: '-[RLMCollectionChange .cxx_construct]', symObjAddr: 0x2C98, symBinAddr: 0x40742C, symSize: 0x48 }
  - { offset: 0x341635, size: 0x8, addend: 0x0, symName: '-[RLMCancellationToken realm]', symObjAddr: 0x2CE0, symBinAddr: 0x407474, symSize: 0x58 }
  - { offset: 0x34175F, size: 0x8, addend: 0x0, symName: '-[RLMCancellationToken suppressNextNotification]', symObjAddr: 0x2D38, symBinAddr: 0x4074CC, symSize: 0x70 }
  - { offset: 0x34197E, size: 0x8, addend: 0x0, symName: '-[RLMCancellationToken invalidate]', symObjAddr: 0x2DA8, symBinAddr: 0x40753C, symSize: 0xA8 }
  - { offset: 0x341D4B, size: 0x8, addend: 0x0, symName: _RLMAddNotificationBlock, symObjAddr: 0x2E50, symBinAddr: 0x4075E4, symSize: 0x3E0 }
  - { offset: 0x3421DB, size: 0x8, addend: 0x0, symName: ___RLMAddNotificationBlock_block_invoke, symObjAddr: 0x3230, symBinAddr: 0x4079C4, symSize: 0x18C }
  - { offset: 0x3426DF, size: 0x8, addend: 0x0, symName: ___copy_helper_block_ea8_32s40s48s56s64s72s, symObjAddr: 0x33BC, symBinAddr: 0x407B50, symSize: 0x48 }
  - { offset: 0x342704, size: 0x8, addend: 0x0, symName: ___destroy_helper_block_ea8_32s40s48s56s64s72s, symObjAddr: 0x3404, symBinAddr: 0x407B98, symSize: 0x48 }
  - { offset: 0x342B49, size: 0x8, addend: 0x0, symName: __Z31RLMWrapCollectionChangeCallbackU13block_pointerFvP11objc_objectS0_P7NSErrorES0_b, symObjAddr: 0x344C, symBinAddr: 0x407BE0, symSize: 0xB4 }
  - { offset: 0x342E67, size: 0x8, addend: 0x0, symName: '-[RLMCancellationToken .cxx_destruct]', symObjAddr: 0x3500, symBinAddr: 0x407C94, symSize: 0x10 }
  - { offset: 0x342ECF, size: 0x8, addend: 0x0, symName: '-[RLMCancellationToken .cxx_construct]', symObjAddr: 0x3510, symBinAddr: 0x407CA4, symSize: 0x20 }
  - { offset: 0x3433C8, size: 0x8, addend: 0x0, symName: __ZZN5realm7Results3getI18RLMAccessorContextEEDaRT_mENKUlS4_E_clIPNS_5MixedEEES3_S4_, symObjAddr: 0x3810, symBinAddr: 0x407FA4, symSize: 0xFC }
  - { offset: 0x343CC2, size: 0x8, addend: 0x0, symName: __ZNSt3__16vectorINS_4pairINS_12basic_stringIcNS_11char_traitsIcEENS_9allocatorIcEEEEbEENS5_IS8_EEE7__clearB8ne180100Ev, symObjAddr: 0x40CC, symBinAddr: 0x40884C, symSize: 0x4C }
  - { offset: 0x343F47, size: 0x8, addend: 0x0, symName: __ZNSt3__16vectorIN5realm5_impl18ChunkedRangeVector5ChunkENS_9allocatorIS4_EEE7__clearB8ne180100Ev, symObjAddr: 0x4150, symBinAddr: 0x4088D0, symSize: 0x54 }
  - { offset: 0x3444B8, size: 0x8, addend: 0x0, symName: __ZNSt3__112__hash_tableINS_17__hash_value_typeIxN5realm8IndexSetEEENS_22__unordered_map_hasherIxS4_NS_4hashIxEENS_8equal_toIxEELb1EEENS_21__unordered_map_equalIxS4_S9_S7_Lb1EEENS_9allocatorIS4_EEE17__deallocate_nodeEPNS_16__hash_node_baseIPNS_11__hash_nodeIS4_PvEEEE, symObjAddr: 0x4278, symBinAddr: 0x4089F8, symSize: 0x4C }
  - { offset: 0x34490D, size: 0x8, addend: 0x0, symName: __ZNSt3__120__shared_ptr_emplaceIN5realm24CollectionChangeCallback4ImplIN12_GLOBAL__N_125CollectionCallbackWrapperEEENS_9allocatorIS6_EEED1Ev, symObjAddr: 0x43C4, symBinAddr: 0x408B04, symSize: 0x10 }
  - { offset: 0x344931, size: 0x8, addend: 0x0, symName: __ZNSt3__120__shared_ptr_emplaceIN5realm24CollectionChangeCallback4ImplIN12_GLOBAL__N_125CollectionCallbackWrapperEEENS_9allocatorIS6_EEED1Ev, symObjAddr: 0x43C4, symBinAddr: 0x408B04, symSize: 0x10 }
  - { offset: 0x344968, size: 0x8, addend: 0x0, symName: __ZNSt3__120__shared_ptr_emplaceIN5realm24CollectionChangeCallback4ImplIN12_GLOBAL__N_125CollectionCallbackWrapperEEENS_9allocatorIS6_EEED0Ev, symObjAddr: 0x43D4, symBinAddr: 0x408B14, symSize: 0x20 }
  - { offset: 0x344A3B, size: 0x8, addend: 0x0, symName: __ZNSt3__120__shared_ptr_emplaceIN5realm24CollectionChangeCallback4ImplIN12_GLOBAL__N_125CollectionCallbackWrapperEEENS_9allocatorIS6_EEE16__on_zero_sharedEv, symObjAddr: 0x43F4, symBinAddr: 0x408B34, symSize: 0xC }
  - { offset: 0x344A65, size: 0x8, addend: 0x0, symName: __ZNSt3__120__shared_ptr_emplaceIN5realm24CollectionChangeCallback4ImplIN12_GLOBAL__N_125CollectionCallbackWrapperEEENS_9allocatorIS6_EEE16__on_zero_sharedEv, symObjAddr: 0x43F4, symBinAddr: 0x408B34, symSize: 0xC }
  - { offset: 0x344A85, size: 0x8, addend: 0x0, symName: __ZNSt3__120__shared_ptr_emplaceIN5realm24CollectionChangeCallback4ImplIN12_GLOBAL__N_125CollectionCallbackWrapperEEENS_9allocatorIS6_EEE16__on_zero_sharedEv, symObjAddr: 0x43F4, symBinAddr: 0x408B34, symSize: 0xC }
  - { offset: 0x344AA5, size: 0x8, addend: 0x0, symName: __ZNSt3__120__shared_ptr_emplaceIN5realm24CollectionChangeCallback4ImplIN12_GLOBAL__N_125CollectionCallbackWrapperEEENS_9allocatorIS6_EEE16__on_zero_sharedEv, symObjAddr: 0x43F4, symBinAddr: 0x408B34, symSize: 0xC }
  - { offset: 0x344B2E, size: 0x8, addend: 0x0, symName: __ZNSt3__120__shared_ptr_emplaceIN5realm24CollectionChangeCallback4ImplIN12_GLOBAL__N_125CollectionCallbackWrapperEEENS_9allocatorIS6_EEE21__on_zero_shared_weakEv, symObjAddr: 0x4400, symBinAddr: 0x408B40, symSize: 0x4 }
  - { offset: 0x344B63, size: 0x8, addend: 0x0, symName: __ZNSt3__120__shared_ptr_emplaceIN5realm24CollectionChangeCallback4ImplIN12_GLOBAL__N_125CollectionCallbackWrapperEEENS_9allocatorIS6_EEE21__on_zero_shared_weakEv, symObjAddr: 0x4400, symBinAddr: 0x408B40, symSize: 0x4 }
  - { offset: 0x344B88, size: 0x8, addend: 0x0, symName: __ZNSt3__120__shared_ptr_emplaceIN5realm24CollectionChangeCallback4ImplIN12_GLOBAL__N_125CollectionCallbackWrapperEEENS_9allocatorIS6_EEE21__on_zero_shared_weakEv, symObjAddr: 0x4400, symBinAddr: 0x408B40, symSize: 0x4 }
  - { offset: 0x344BAD, size: 0x8, addend: 0x0, symName: __ZNSt3__120__shared_ptr_emplaceIN5realm24CollectionChangeCallback4ImplIN12_GLOBAL__N_125CollectionCallbackWrapperEEENS_9allocatorIS6_EEE21__on_zero_shared_weakEv, symObjAddr: 0x4400, symBinAddr: 0x408B40, symSize: 0x4 }
  - { offset: 0x344BDD, size: 0x8, addend: 0x0, symName: __ZNSt3__120__shared_ptr_emplaceIN5realm24CollectionChangeCallback4ImplIN12_GLOBAL__N_125CollectionCallbackWrapperEEENS_9allocatorIS6_EEE21__on_zero_shared_weakEv, symObjAddr: 0x4400, symBinAddr: 0x408B40, symSize: 0x4 }
  - { offset: 0x344C07, size: 0x8, addend: 0x0, symName: __ZNSt3__120__shared_ptr_emplaceIN5realm24CollectionChangeCallback4ImplIN12_GLOBAL__N_125CollectionCallbackWrapperEEENS_9allocatorIS6_EEE21__on_zero_shared_weakEv, symObjAddr: 0x4400, symBinAddr: 0x408B40, symSize: 0x4 }
  - { offset: 0x344C4F, size: 0x8, addend: 0x0, symName: __ZN5realm24CollectionChangeCallback4ImplIN12_GLOBAL__N_125CollectionCallbackWrapperEED1Ev, symObjAddr: 0x4404, symBinAddr: 0x408B44, symSize: 0x30 }
  - { offset: 0x344CED, size: 0x8, addend: 0x0, symName: __ZN5realm24CollectionChangeCallback4ImplIN12_GLOBAL__N_125CollectionCallbackWrapperEED0Ev, symObjAddr: 0x4434, symBinAddr: 0x408B74, symSize: 0x30 }
  - { offset: 0x344D97, size: 0x8, addend: 0x0, symName: __ZN5realm24CollectionChangeCallback4ImplIN12_GLOBAL__N_125CollectionCallbackWrapperEE6beforeERKNS_19CollectionChangeSetE, symObjAddr: 0x4464, symBinAddr: 0x408BA4, symSize: 0x4 }
  - { offset: 0x344E22, size: 0x8, addend: 0x0, symName: __ZN5realm24CollectionChangeCallback4ImplIN12_GLOBAL__N_125CollectionCallbackWrapperEE5afterERKNS_19CollectionChangeSetE, symObjAddr: 0x4468, symBinAddr: 0x408BA8, symSize: 0x1DC }
  - { offset: 0x345D10, size: 0x8, addend: 0x0, symName: __ZNK5realm19CollectionChangeSet5emptyEv, symObjAddr: 0x4644, symBinAddr: 0x408D84, symSize: 0x5C }
  - { offset: 0x345D3A, size: 0x8, addend: 0x0, symName: __ZNK5realm19CollectionChangeSet5emptyEv, symObjAddr: 0x4644, symBinAddr: 0x408D84, symSize: 0x5C }
  - { offset: 0x345D57, size: 0x8, addend: 0x0, symName: __ZNK5realm19CollectionChangeSet5emptyEv, symObjAddr: 0x4644, symBinAddr: 0x408D84, symSize: 0x5C }
  - { offset: 0x34719C, size: 0x8, addend: 0x0, symName: __ZNSt3__113unordered_mapIxN5realm8IndexSetENS_4hashIxEENS_8equal_toIxEENS_9allocatorINS_4pairIKxS2_EEEEEC2ERKSC_, symObjAddr: 0x4CC0, symBinAddr: 0x408DE0, symSize: 0x74 }
  - { offset: 0x34B61F, size: 0x8, addend: 0x0, symName: _RLMRealmRefreshRequiredNotification, symObjAddr: 0x180, symBinAddr: 0x638A38, symSize: 0x0 }
  - { offset: 0x34B64A, size: 0x8, addend: 0x0, symName: _RLMRealmDidChangeNotification, symObjAddr: 0x188, symBinAddr: 0x638A40, symSize: 0x0 }
  - { offset: 0x34B660, size: 0x8, addend: 0x0, symName: _RLMExceptionName, symObjAddr: 0x190, symBinAddr: 0x638A48, symSize: 0x0 }
  - { offset: 0x34B67B, size: 0x8, addend: 0x0, symName: _RLMRealmVersionKey, symObjAddr: 0x198, symBinAddr: 0x638A50, symSize: 0x0 }
  - { offset: 0x34B691, size: 0x8, addend: 0x0, symName: _RLMRealmCoreVersionKey, symObjAddr: 0x1A0, symBinAddr: 0x638A58, symSize: 0x0 }
  - { offset: 0x34B6A7, size: 0x8, addend: 0x0, symName: _RLMInvalidatedKey, symObjAddr: 0x1A8, symBinAddr: 0x638A60, symSize: 0x0 }
  - { offset: 0x34B6BD, size: 0x8, addend: 0x0, symName: _RLMBackupRealmConfigurationErrorKey, symObjAddr: 0x1B0, symBinAddr: 0x638A68, symSize: 0x0 }
  - { offset: 0x34B6FB, size: 0x8, addend: 0x0, symName: '-[RLMCredentials initWithAppCredentials:]', symObjAddr: 0x0, symBinAddr: 0x408E54, symSize: 0x10C }
  - { offset: 0x35440C, size: 0x8, addend: 0x0, symName: '-[RLMCredentials initWithAppCredentials:]', symObjAddr: 0x0, symBinAddr: 0x408E54, symSize: 0x10C }
  - { offset: 0x3547EB, size: 0x8, addend: 0x0, symName: __ZNKSt3__114default_deleteIN5realm4bson12BsonDocumentEEclB8ne180100EPS3_, symObjAddr: 0xD54, symBinAddr: 0x409B98, symSize: 0x40 }
  - { offset: 0x354A04, size: 0x8, addend: 0x0, symName: '+[RLMCredentials credentialsWithFacebookToken:]', symObjAddr: 0x10C, symBinAddr: 0x408F60, symSize: 0xF0 }
  - { offset: 0x354EB8, size: 0x8, addend: 0x0, symName: '+[RLMCredentials credentialsWithGoogleAuthCode:]', symObjAddr: 0x1FC, symBinAddr: 0x409050, symSize: 0xF4 }
  - { offset: 0x355430, size: 0x8, addend: 0x0, symName: '+[RLMCredentials credentialsWithGoogleIdToken:]', symObjAddr: 0x2F0, symBinAddr: 0x409144, symSize: 0xF4 }
  - { offset: 0x35591F, size: 0x8, addend: 0x0, symName: '+[RLMCredentials credentialsWithAppleToken:]', symObjAddr: 0x3E4, symBinAddr: 0x409238, symSize: 0xF0 }
  - { offset: 0x355D4A, size: 0x8, addend: 0x0, symName: '+[RLMCredentials credentialsWithEmail:password:]', symObjAddr: 0x4D4, symBinAddr: 0x409328, symSize: 0x160 }
  - { offset: 0x35640D, size: 0x8, addend: 0x0, symName: '+[RLMCredentials credentialsWithJWT:]', symObjAddr: 0x634, symBinAddr: 0x409488, symSize: 0xF0 }
  - { offset: 0x356A2F, size: 0x8, addend: 0x0, symName: '+[RLMCredentials credentialsWithFunctionPayload:]', symObjAddr: 0x724, symBinAddr: 0x409578, symSize: 0x160 }
  - { offset: 0x356DF9, size: 0x8, addend: 0x0, symName: '+[RLMCredentials credentialsWithUserAPIKey:]', symObjAddr: 0x884, symBinAddr: 0x4096D8, symSize: 0xF0 }
  - { offset: 0x357224, size: 0x8, addend: 0x0, symName: '+[RLMCredentials credentialsWithServerAPIKey:]', symObjAddr: 0x974, symBinAddr: 0x4097C8, symSize: 0xF0 }
  - { offset: 0x35764F, size: 0x8, addend: 0x0, symName: '+[RLMCredentials anonymousCredentials]', symObjAddr: 0xA64, symBinAddr: 0x4098B8, symSize: 0x74 }
  - { offset: 0x357872, size: 0x8, addend: 0x0, symName: '-[RLMCredentials isEqual:]', symObjAddr: 0xAD8, symBinAddr: 0x40992C, symSize: 0x228 }
  - { offset: 0x357DBB, size: 0x8, addend: 0x0, symName: '-[RLMCredentials provider]', symObjAddr: 0xD10, symBinAddr: 0x409B54, symSize: 0x8 }
  - { offset: 0x357DF2, size: 0x8, addend: 0x0, symName: '-[RLMCredentials .cxx_destruct]', symObjAddr: 0xD18, symBinAddr: 0x409B5C, symSize: 0x34 }
  - { offset: 0x35801A, size: 0x8, addend: 0x0, symName: '-[RLMCredentials .cxx_construct]', symObjAddr: 0xD4C, symBinAddr: 0x409B90, symSize: 0x8 }
  - { offset: 0x358052, size: 0x8, addend: 0x0, symName: '-[RLMCredentials .cxx_construct]', symObjAddr: 0xD4C, symBinAddr: 0x409B90, symSize: 0x8 }
  - { offset: 0x358071, size: 0x8, addend: 0x0, symName: '-[RLMCredentials .cxx_construct]', symObjAddr: 0xD4C, symBinAddr: 0x409B90, symSize: 0x8 }
  - { offset: 0x358090, size: 0x8, addend: 0x0, symName: '-[RLMCredentials .cxx_construct]', symObjAddr: 0xD4C, symBinAddr: 0x409B90, symSize: 0x8 }
  - { offset: 0x3580AF, size: 0x8, addend: 0x0, symName: '-[RLMCredentials .cxx_construct]', symObjAddr: 0xD4C, symBinAddr: 0x409B90, symSize: 0x8 }
  - { offset: 0x3580CE, size: 0x8, addend: 0x0, symName: '-[RLMCredentials .cxx_construct]', symObjAddr: 0xD4C, symBinAddr: 0x409B90, symSize: 0x8 }
  - { offset: 0x3580ED, size: 0x8, addend: 0x0, symName: '-[RLMCredentials .cxx_construct]', symObjAddr: 0xD4C, symBinAddr: 0x409B90, symSize: 0x8 }
  - { offset: 0x35810C, size: 0x8, addend: 0x0, symName: '-[RLMCredentials .cxx_construct]', symObjAddr: 0xD4C, symBinAddr: 0x409B90, symSize: 0x8 }
  - { offset: 0x359EA7, size: 0x8, addend: 0x0, symName: '-[RLMDecimal128 init]', symObjAddr: 0x0, symBinAddr: 0x409BD8, symSize: 0xB8 }
  - { offset: 0x35CFF1, size: 0x8, addend: 0x0, symName: '-[RLMDecimal128 init]', symObjAddr: 0x0, symBinAddr: 0x409BD8, symSize: 0xB8 }
  - { offset: 0x35D06B, size: 0x8, addend: 0x0, symName: '-[RLMDecimal128 initWithValue:]', symObjAddr: 0xE8, symBinAddr: 0x409C90, symSize: 0x7C }
  - { offset: 0x35D0D6, size: 0x8, addend: 0x0, symName: '-[RLMDecimal128 initWithNumber:]', symObjAddr: 0x164, symBinAddr: 0x409D0C, symSize: 0x7C }
  - { offset: 0x35D192, size: 0x8, addend: 0x0, symName: '-[RLMDecimal128 initWithString:error:]', symObjAddr: 0x1E0, symBinAddr: 0x409D88, symSize: 0xB4 }
  - { offset: 0x35D27D, size: 0x8, addend: 0x0, symName: '+[RLMDecimal128 decimalWithNumber:]', symObjAddr: 0x294, symBinAddr: 0x409E3C, symSize: 0x5C }
  - { offset: 0x35D2C4, size: 0x8, addend: 0x0, symName: '+[RLMDecimal128 decimalWithNSDecimal:]', symObjAddr: 0x2F0, symBinAddr: 0x409E98, symSize: 0x9C }
  - { offset: 0x35D30B, size: 0x8, addend: 0x0, symName: '-[RLMDecimal128 copyWithZone:]', symObjAddr: 0x38C, symBinAddr: 0x409F34, symSize: 0x38 }
  - { offset: 0x35D3B7, size: 0x8, addend: 0x0, symName: '-[RLMDecimal128 isEqual:]', symObjAddr: 0x3E0, symBinAddr: 0x409F6C, symSize: 0xFC }
  - { offset: 0x35D45C, size: 0x8, addend: 0x0, symName: '-[RLMDecimal128 hash]', symObjAddr: 0x4DC, symBinAddr: 0x40A068, symSize: 0x60 }
  - { offset: 0x35D493, size: 0x8, addend: 0x0, symName: '-[RLMDecimal128 description]', symObjAddr: 0x53C, symBinAddr: 0x40A0C8, symSize: 0x4 }
  - { offset: 0x35D4C8, size: 0x8, addend: 0x0, symName: '-[RLMDecimal128 compare:]', symObjAddr: 0x540, symBinAddr: 0x40A0CC, symSize: 0x20 }
  - { offset: 0x35D50F, size: 0x8, addend: 0x0, symName: '-[RLMDecimal128 doubleValue]', symObjAddr: 0x560, symBinAddr: 0x40A0EC, symSize: 0x78 }
  - { offset: 0x35D659, size: 0x8, addend: 0x0, symName: '-[RLMDecimal128 decimalValue]', symObjAddr: 0x5D8, symBinAddr: 0x40A164, symSize: 0xF0 }
  - { offset: 0x35DA5F, size: 0x8, addend: 0x0, symName: '-[RLMDecimal128 stringValue]', symObjAddr: 0x6C8, symBinAddr: 0x40A254, symSize: 0x18C }
  - { offset: 0x35E089, size: 0x8, addend: 0x0, symName: '-[RLMDecimal128 isNaN]', symObjAddr: 0x854, symBinAddr: 0x40A3E0, symSize: 0x8 }
  - { offset: 0x35E101, size: 0x8, addend: 0x0, symName: '-[RLMDecimal128 magnitude]', symObjAddr: 0x85C, symBinAddr: 0x40A3E8, symSize: 0x54 }
  - { offset: 0x35E17E, size: 0x8, addend: 0x0, symName: '-[RLMDecimal128 negate]', symObjAddr: 0x8B0, symBinAddr: 0x40A43C, symSize: 0x40 }
  - { offset: 0x35E1B8, size: 0x8, addend: 0x0, symName: '+[RLMDecimal128 minimumDecimalNumber]', symObjAddr: 0x8F0, symBinAddr: 0x40A47C, symSize: 0x6C }
  - { offset: 0x35E21F, size: 0x8, addend: 0x0, symName: '+[RLMDecimal128 maximumDecimalNumber]', symObjAddr: 0x95C, symBinAddr: 0x40A4E8, symSize: 0x6C }
  - { offset: 0x35E2B2, size: 0x8, addend: 0x0, symName: '-[RLMDecimal128 decimalNumberByAdding:]', symObjAddr: 0x9C8, symBinAddr: 0x40A554, symSize: 0xC0 }
  - { offset: 0x35E354, size: 0x8, addend: 0x0, symName: '-[RLMDecimal128 decimalNumberByDividingBy:]', symObjAddr: 0xA88, symBinAddr: 0x40A614, symSize: 0xAC }
  - { offset: 0x35E405, size: 0x8, addend: 0x0, symName: '-[RLMDecimal128 decimalNumberBySubtracting:]', symObjAddr: 0xB34, symBinAddr: 0x40A6C0, symSize: 0xC0 }
  - { offset: 0x35E4A7, size: 0x8, addend: 0x0, symName: '-[RLMDecimal128 decimalNumberByMultiplyingBy:]', symObjAddr: 0xBF4, symBinAddr: 0x40A780, symSize: 0xAC }
  - { offset: 0x35E52A, size: 0x8, addend: 0x0, symName: '-[RLMDecimal128 isGreaterThan:]', symObjAddr: 0xCA0, symBinAddr: 0x40A82C, symSize: 0x3C }
  - { offset: 0x35E58E, size: 0x8, addend: 0x0, symName: '-[RLMDecimal128 isGreaterThanOrEqualTo:]', symObjAddr: 0xCDC, symBinAddr: 0x40A868, symSize: 0x3C }
  - { offset: 0x35E5F2, size: 0x8, addend: 0x0, symName: '-[RLMDecimal128 isLessThan:]', symObjAddr: 0xD18, symBinAddr: 0x40A8A4, symSize: 0x3C }
  - { offset: 0x35E656, size: 0x8, addend: 0x0, symName: '-[RLMDecimal128 isLessThanOrEqualTo:]', symObjAddr: 0xD54, symBinAddr: 0x40A8E0, symSize: 0x3C }
  - { offset: 0x35E6BA, size: 0x8, addend: 0x0, symName: '-[RLMDecimal128 .cxx_construct]', symObjAddr: 0xD90, symBinAddr: 0x40A91C, symSize: 0x28 }
  - { offset: 0x36056C, size: 0x8, addend: 0x0, symName: '-[RLMDictionary initWithObjectClassName:keyType:]', symObjAddr: 0x0, symBinAddr: 0x40A944, symSize: 0xE8 }
  - { offset: 0x3A8C45, size: 0x8, addend: 0x0, symName: '-[RLMDictionary initWithObjectClassName:keyType:]', symObjAddr: 0x0, symBinAddr: 0x40A944, symSize: 0xE8 }
  - { offset: 0x3A8D3E, size: 0x8, addend: 0x0, symName: '-[RLMDictionary initWithObjectType:optional:keyType:]', symObjAddr: 0xE8, symBinAddr: 0x40AA2C, symSize: 0xA4 }
  - { offset: 0x3A8E32, size: 0x8, addend: 0x0, symName: '-[RLMDictionary setParent:property:]', symObjAddr: 0x18C, symBinAddr: 0x40AAD0, symSize: 0x88 }
  - { offset: 0x3A8E3D, size: 0x8, addend: 0x0, symName: '-[RLMDictionary setParent:property:]', symObjAddr: 0x18C, symBinAddr: 0x40AAD0, symSize: 0x88 }
  - { offset: 0x3A8E90, size: 0x8, addend: 0x0, symName: __Z16RLMDictionaryKeyP13RLMDictionaryP11objc_object, symObjAddr: 0x214, symBinAddr: 0x40AB58, symSize: 0x128 }
  - { offset: 0x3A8F4F, size: 0x8, addend: 0x0, symName: __ZL15RLMTypeToString15RLMPropertyType, symObjAddr: 0x33C, symBinAddr: 0x40AC80, symSize: 0x24 }
  - { offset: 0x3A8FB2, size: 0x8, addend: 0x0, symName: __Z18RLMDictionaryValueP13RLMDictionaryP11objc_object, symObjAddr: 0x360, symBinAddr: 0x40ACA4, symSize: 0x270 }
  - { offset: 0x3A9098, size: 0x8, addend: 0x0, symName: '-[RLMDictionary addNotificationBlock:]', symObjAddr: 0x5D0, symBinAddr: 0x40AF14, symSize: 0x68 }
  - { offset: 0x3A9113, size: 0x8, addend: 0x0, symName: '-[RLMDictionary addNotificationBlock:queue:]', symObjAddr: 0x638, symBinAddr: 0x40AF7C, symSize: 0x90 }
  - { offset: 0x3A9178, size: 0x8, addend: 0x0, symName: '-[RLMDictionary addNotificationBlock:keyPaths:queue:]', symObjAddr: 0x6C8, symBinAddr: 0x40B00C, symSize: 0xB0 }
  - { offset: 0x3A91ED, size: 0x8, addend: 0x0, symName: '-[RLMDictionary addNotificationBlock:keyPaths:]', symObjAddr: 0x778, symBinAddr: 0x40B0BC, symSize: 0x90 }
  - { offset: 0x3A9252, size: 0x8, addend: 0x0, symName: '-[RLMDictionary realm]', symObjAddr: 0x808, symBinAddr: 0x40B14C, symSize: 0x8 }
  - { offset: 0x3A9285, size: 0x8, addend: 0x0, symName: '-[RLMDictionary count]', symObjAddr: 0x810, symBinAddr: 0x40B154, symSize: 0x8 }
  - { offset: 0x3A92BC, size: 0x8, addend: 0x0, symName: '-[RLMDictionary allKeys]', symObjAddr: 0x818, symBinAddr: 0x40B15C, symSize: 0x54 }
  - { offset: 0x3A92F3, size: 0x8, addend: 0x0, symName: '-[RLMDictionary allValues]', symObjAddr: 0x86C, symBinAddr: 0x40B1B0, symSize: 0x54 }
  - { offset: 0x3A932A, size: 0x8, addend: 0x0, symName: '-[RLMDictionary objectForKey:]', symObjAddr: 0x8C0, symBinAddr: 0x40B204, symSize: 0x84 }
  - { offset: 0x3A9371, size: 0x8, addend: 0x0, symName: '-[RLMDictionary objectForKeyedSubscript:]', symObjAddr: 0x944, symBinAddr: 0x40B288, symSize: 0x1C }
  - { offset: 0x3A93B8, size: 0x8, addend: 0x0, symName: '-[RLMDictionary isInvalidated]', symObjAddr: 0x960, symBinAddr: 0x40B2A4, symSize: 0x8 }
  - { offset: 0x3A93EB, size: 0x8, addend: 0x0, symName: '-[RLMDictionary setValue:forKey:]', symObjAddr: 0x968, symBinAddr: 0x40B2AC, symSize: 0x4 }
  - { offset: 0x3A9438, size: 0x8, addend: 0x0, symName: '-[RLMDictionary setDictionary:]', symObjAddr: 0x96C, symBinAddr: 0x40B2B0, symSize: 0x150 }
  - { offset: 0x3A9497, size: 0x8, addend: 0x0, symName: __ZL16changeDictionaryP13RLMDictionaryU13block_pointerFvvE, symObjAddr: 0xABC, symBinAddr: 0x40B400, symSize: 0x114 }
  - { offset: 0x3A9501, size: 0x8, addend: 0x0, symName: '___31-[RLMDictionary setDictionary:]_block_invoke', symObjAddr: 0xBD0, symBinAddr: 0x40B514, symSize: 0x70 }
  - { offset: 0x3A9550, size: 0x8, addend: 0x0, symName: '___31-[RLMDictionary setDictionary:]_block_invoke_2', symObjAddr: 0xC40, symBinAddr: 0x40B584, symSize: 0xC0 }
  - { offset: 0x3A95D3, size: 0x8, addend: 0x0, symName: '-[RLMDictionary setObject:forKeyedSubscript:]', symObjAddr: 0xD00, symBinAddr: 0x40B644, symSize: 0x8C }
  - { offset: 0x3A9626, size: 0x8, addend: 0x0, symName: '-[RLMDictionary setObject:forKey:]', symObjAddr: 0xD8C, symBinAddr: 0x40B6D0, symSize: 0xE4 }
  - { offset: 0x3A9687, size: 0x8, addend: 0x0, symName: '___34-[RLMDictionary setObject:forKey:]_block_invoke', symObjAddr: 0xE70, symBinAddr: 0x40B7B4, symSize: 0x98 }
  - { offset: 0x3A9702, size: 0x8, addend: 0x0, symName: '-[RLMDictionary removeAllObjects]', symObjAddr: 0xF08, symBinAddr: 0x40B84C, symSize: 0x54 }
  - { offset: 0x3A9743, size: 0x8, addend: 0x0, symName: '___33-[RLMDictionary removeAllObjects]_block_invoke', symObjAddr: 0xF5C, symBinAddr: 0x40B8A0, symSize: 0xC }
  - { offset: 0x3A9782, size: 0x8, addend: 0x0, symName: '-[RLMDictionary removeObjectsForKeys:]', symObjAddr: 0xF68, symBinAddr: 0x40B8AC, symSize: 0x9C }
  - { offset: 0x3A97D3, size: 0x8, addend: 0x0, symName: '___38-[RLMDictionary removeObjectsForKeys:]_block_invoke', symObjAddr: 0x1004, symBinAddr: 0x40B948, symSize: 0xC }
  - { offset: 0x3A9822, size: 0x8, addend: 0x0, symName: '-[RLMDictionary removeObjectForKey:]', symObjAddr: 0x1010, symBinAddr: 0x40B954, symSize: 0x9C }
  - { offset: 0x3A9873, size: 0x8, addend: 0x0, symName: '___36-[RLMDictionary removeObjectForKey:]_block_invoke', symObjAddr: 0x10AC, symBinAddr: 0x40B9F0, symSize: 0xC }
  - { offset: 0x3A98C3, size: 0x8, addend: 0x0, symName: '-[RLMDictionary enumerateKeysAndObjectsUsingBlock:]', symObjAddr: 0x10B8, symBinAddr: 0x40B9FC, symSize: 0x8 }
  - { offset: 0x3A9906, size: 0x8, addend: 0x0, symName: '-[RLMDictionary valueForKey:]', symObjAddr: 0x10C0, symBinAddr: 0x40BA04, symSize: 0xB4 }
  - { offset: 0x3A994E, size: 0x8, addend: 0x0, symName: '-[RLMDictionary valueForKeyPath:]', symObjAddr: 0x1174, symBinAddr: 0x40BAB8, symSize: 0x1A0 }
  - { offset: 0x3A99C6, size: 0x8, addend: 0x0, symName: '-[RLMDictionary addEntriesFromDictionary:]', symObjAddr: 0x1314, symBinAddr: 0x40BC58, symSize: 0x11C }
  - { offset: 0x3A9A26, size: 0x8, addend: 0x0, symName: '___42-[RLMDictionary addEntriesFromDictionary:]_block_invoke', symObjAddr: 0x1430, symBinAddr: 0x40BD74, symSize: 0x5C }
  - { offset: 0x3A9A77, size: 0x8, addend: 0x0, symName: '___42-[RLMDictionary addEntriesFromDictionary:]_block_invoke_2', symObjAddr: 0x148C, symBinAddr: 0x40BDD0, symSize: 0xC4 }
  - { offset: 0x3A9AFD, size: 0x8, addend: 0x0, symName: '-[RLMDictionary countByEnumeratingWithState:objects:count:]', symObjAddr: 0x1550, symBinAddr: 0x40BE94, symSize: 0x5C }
  - { offset: 0x3A9B92, size: 0x8, addend: 0x0, symName: '-[RLMDictionary typeForProperty:]', symObjAddr: 0x15AC, symBinAddr: 0x40BEF0, symSize: 0x170 }
  - { offset: 0x3A9C3D, size: 0x8, addend: 0x0, symName: '-[RLMDictionary aggregateProperty:operation:method:]', symObjAddr: 0x171C, symBinAddr: 0x40C060, symSize: 0x43C }
  - { offset: 0x3A9DB2, size: 0x8, addend: 0x0, symName: '___52-[RLMDictionary aggregateProperty:operation:method:]_block_invoke', symObjAddr: 0x1B58, symBinAddr: 0x40C49C, symSize: 0x64 }
  - { offset: 0x3A9E01, size: 0x8, addend: 0x0, symName: '-[RLMDictionary minOfProperty:]', symObjAddr: 0x1BBC, symBinAddr: 0x40C500, symSize: 0x28 }
  - { offset: 0x3A9E4D, size: 0x8, addend: 0x0, symName: '-[RLMDictionary maxOfProperty:]', symObjAddr: 0x1BE4, symBinAddr: 0x40C528, symSize: 0x28 }
  - { offset: 0x3A9E99, size: 0x8, addend: 0x0, symName: '-[RLMDictionary sumOfProperty:]', symObjAddr: 0x1C0C, symBinAddr: 0x40C550, symSize: 0x28 }
  - { offset: 0x3A9EE5, size: 0x8, addend: 0x0, symName: '-[RLMDictionary averageOfProperty:]', symObjAddr: 0x1C34, symBinAddr: 0x40C578, symSize: 0x28 }
  - { offset: 0x3A9F31, size: 0x8, addend: 0x0, symName: '-[RLMDictionary objectsWhere:]', symObjAddr: 0x1C5C, symBinAddr: 0x40C5A0, symSize: 0x30 }
  - { offset: 0x3A9F9A, size: 0x8, addend: 0x0, symName: '-[RLMDictionary objectsWhere:args:]', symObjAddr: 0x1C8C, symBinAddr: 0x40C5D0, symSize: 0x6C }
  - { offset: 0x3AA01F, size: 0x8, addend: 0x0, symName: '-[RLMDictionary isEqual:]', symObjAddr: 0x1CF8, symBinAddr: 0x40C63C, symSize: 0xF4 }
  - { offset: 0x3AA091, size: 0x8, addend: 0x0, symName: '-[RLMDictionary addObserver:forKeyPath:options:context:]', symObjAddr: 0x1DEC, symBinAddr: 0x40C730, symSize: 0xB8 }
  - { offset: 0x3AA134, size: 0x8, addend: 0x0, symName: '-[RLMDictionary propertyKey]', symObjAddr: 0x1EA4, symBinAddr: 0x40C7E8, symSize: 0x8 }
  - { offset: 0x3AA16C, size: 0x8, addend: 0x0, symName: '-[RLMDictionary objectsWithPredicate:]', symObjAddr: 0x1EAC, symBinAddr: 0x40C7F0, symSize: 0x4C }
  - { offset: 0x3AA1BE, size: 0x8, addend: 0x0, symName: '-[RLMDictionary sortedResultsUsingDescriptors:]', symObjAddr: 0x1EF8, symBinAddr: 0x40C83C, symSize: 0x4C }
  - { offset: 0x3AA210, size: 0x8, addend: 0x0, symName: '-[RLMDictionary sortedResultsUsingKeyPath:ascending:]', symObjAddr: 0x1F44, symBinAddr: 0x40C888, symSize: 0x4C }
  - { offset: 0x3AA26F, size: 0x8, addend: 0x0, symName: '-[RLMDictionary distinctResultsUsingKeyPaths:]', symObjAddr: 0x1F90, symBinAddr: 0x40C8D4, symSize: 0x4C }
  - { offset: 0x3AA2C1, size: 0x8, addend: 0x0, symName: '-[RLMDictionary freeze]', symObjAddr: 0x1FDC, symBinAddr: 0x40C920, symSize: 0x24 }
  - { offset: 0x3AA303, size: 0x8, addend: 0x0, symName: '-[RLMDictionary thaw]', symObjAddr: 0x2000, symBinAddr: 0x40C944, symSize: 0x24 }
  - { offset: 0x3AA345, size: 0x8, addend: 0x0, symName: '-[RLMDictionary indexOfObject:]', symObjAddr: 0x2024, symBinAddr: 0x40C968, symSize: 0x4C }
  - { offset: 0x3AA397, size: 0x8, addend: 0x0, symName: '-[RLMDictionary objectAtIndex:]', symObjAddr: 0x2070, symBinAddr: 0x40C9B4, symSize: 0x24 }
  - { offset: 0x3AA3E6, size: 0x8, addend: 0x0, symName: '-[RLMDictionary objectsAtIndexes:]', symObjAddr: 0x2094, symBinAddr: 0x40C9D8, symSize: 0x4C }
  - { offset: 0x3AA438, size: 0x8, addend: 0x0, symName: '-[RLMDictionary sectionedResultsSortedUsingKeyPath:ascending:keyBlock:]', symObjAddr: 0x20E0, symBinAddr: 0x40CA24, symSize: 0x68 }
  - { offset: 0x3AA4A7, size: 0x8, addend: 0x0, symName: '-[RLMDictionary sectionedResultsUsingSortDescriptors:keyBlock:]', symObjAddr: 0x2148, symBinAddr: 0x40CA8C, symSize: 0x68 }
  - { offset: 0x3AA509, size: 0x8, addend: 0x0, symName: '-[RLMDictionary makeThreadSafeReference]', symObjAddr: 0x21B0, symBinAddr: 0x40CAF4, symSize: 0x2C }
  - { offset: 0x3AA57D, size: 0x8, addend: 0x0, symName: '-[RLMDictionary objectiveCMetadata]', symObjAddr: 0x21DC, symBinAddr: 0x40CB20, symSize: 0x2C }
  - { offset: 0x3AA588, size: 0x8, addend: 0x0, symName: '-[RLMDictionary objectiveCMetadata]', symObjAddr: 0x21DC, symBinAddr: 0x40CB20, symSize: 0x2C }
  - { offset: 0x3AA5FC, size: 0x8, addend: 0x0, symName: '+[RLMDictionary objectWithThreadSafeReference:metadata:realm:]', symObjAddr: 0x2208, symBinAddr: 0x40CB4C, symSize: 0x44 }
  - { offset: 0x3AA607, size: 0x8, addend: 0x0, symName: '+[RLMDictionary objectWithThreadSafeReference:metadata:realm:]', symObjAddr: 0x2208, symBinAddr: 0x40CB4C, symSize: 0x44 }
  - { offset: 0x3AA6A8, size: 0x8, addend: 0x0, symName: '-[RLMDictionary description]', symObjAddr: 0x224C, symBinAddr: 0x40CB90, symSize: 0x8 }
  - { offset: 0x3AA6B3, size: 0x8, addend: 0x0, symName: '-[RLMDictionary description]', symObjAddr: 0x224C, symBinAddr: 0x40CB90, symSize: 0x8 }
  - { offset: 0x3AA6E9, size: 0x8, addend: 0x0, symName: '-[RLMDictionary descriptionWithMaxDepth:]', symObjAddr: 0x2254, symBinAddr: 0x40CB98, symSize: 0x10 }
  - { offset: 0x3AA73E, size: 0x8, addend: 0x0, symName: _RLMDictionaryDescriptionWithMaxDepth, symObjAddr: 0x2264, symBinAddr: 0x40CBA8, symSize: 0x3F0 }
  - { offset: 0x3AA894, size: 0x8, addend: 0x0, symName: '-[RLMDictionary type]', symObjAddr: 0x2654, symBinAddr: 0x40CF98, symSize: 0x8 }
  - { offset: 0x3AA8CB, size: 0x8, addend: 0x0, symName: '-[RLMDictionary keyType]', symObjAddr: 0x265C, symBinAddr: 0x40CFA0, symSize: 0x8 }
  - { offset: 0x3AA902, size: 0x8, addend: 0x0, symName: '-[RLMDictionary isOptional]', symObjAddr: 0x2664, symBinAddr: 0x40CFA8, symSize: 0x8 }
  - { offset: 0x3AA939, size: 0x8, addend: 0x0, symName: '-[RLMDictionary objectClassName]', symObjAddr: 0x266C, symBinAddr: 0x40CFB0, symSize: 0x8 }
  - { offset: 0x3AA970, size: 0x8, addend: 0x0, symName: '-[RLMDictionary isFrozen]', symObjAddr: 0x2674, symBinAddr: 0x40CFB8, symSize: 0x8 }
  - { offset: 0x3AA9A7, size: 0x8, addend: 0x0, symName: '-[RLMDictionary isLegacyProperty]', symObjAddr: 0x267C, symBinAddr: 0x40CFC0, symSize: 0x8 }
  - { offset: 0x3AA9DE, size: 0x8, addend: 0x0, symName: '-[RLMDictionary .cxx_destruct]', symObjAddr: 0x2684, symBinAddr: 0x40CFC8, symSize: 0x44 }
  - { offset: 0x3ACE18, size: 0x8, addend: 0x0, symName: '-[RLMEmailPasswordAuth client]', symObjAddr: 0x0, symBinAddr: 0x40D00C, symSize: 0xB8 }
  - { offset: 0x3BAF5B, size: 0x8, addend: 0x0, symName: '-[RLMEmailPasswordAuth client]', symObjAddr: 0x0, symBinAddr: 0x40D00C, symSize: 0xB8 }
  - { offset: 0x3BB320, size: 0x8, addend: 0x0, symName: '-[RLMEmailPasswordAuth registerUserWithEmail:password:completion:]', symObjAddr: 0xB8, symBinAddr: 0x40D0C4, symSize: 0x1C8 }
  - { offset: 0x3BBBE8, size: 0x8, addend: 0x0, symName: '-[RLMEmailPasswordAuth confirmUser:tokenId:completion:]', symObjAddr: 0x280, symBinAddr: 0x40D28C, symSize: 0x1C8 }
  - { offset: 0x3BC4B0, size: 0x8, addend: 0x0, symName: '-[RLMEmailPasswordAuth retryCustomConfirmation:completion:]', symObjAddr: 0x448, symBinAddr: 0x40D454, symSize: 0x158 }
  - { offset: 0x3BCAA7, size: 0x8, addend: 0x0, symName: '-[RLMEmailPasswordAuth resendConfirmationEmail:completion:]', symObjAddr: 0x5A0, symBinAddr: 0x40D5AC, symSize: 0x158 }
  - { offset: 0x3BD09E, size: 0x8, addend: 0x0, symName: '-[RLMEmailPasswordAuth sendResetPasswordEmail:completion:]', symObjAddr: 0x6F8, symBinAddr: 0x40D704, symSize: 0x158 }
  - { offset: 0x3BD695, size: 0x8, addend: 0x0, symName: '-[RLMEmailPasswordAuth resetPasswordTo:token:tokenId:completion:]', symObjAddr: 0x850, symBinAddr: 0x40D85C, symSize: 0x238 }
  - { offset: 0x3BE39A, size: 0x8, addend: 0x0, symName: '-[RLMEmailPasswordAuth callResetPasswordFunction:password:args:completion:]', symObjAddr: 0xA88, symBinAddr: 0x40DA94, symSize: 0x2C4 }
  - { offset: 0x3C0FA6, size: 0x8, addend: 0x0, symName: '-[RLMEmbeddedObject init]', symObjAddr: 0x0, symBinAddr: 0x40DD58, symSize: 0x34 }
  - { offset: 0x3CC40F, size: 0x8, addend: 0x0, symName: '-[RLMEmbeddedObject init]', symObjAddr: 0x0, symBinAddr: 0x40DD58, symSize: 0x34 }
  - { offset: 0x3CC446, size: 0x8, addend: 0x0, symName: '-[RLMEmbeddedObject initWithValue:]', symObjAddr: 0x34, symBinAddr: 0x40DD8C, symSize: 0xC8 }
  - { offset: 0x3CC4B8, size: 0x8, addend: 0x0, symName: '-[RLMEmbeddedObject objectForKeyedSubscript:]', symObjAddr: 0xFC, symBinAddr: 0x40DE54, symSize: 0x20 }
  - { offset: 0x3CC4FF, size: 0x8, addend: 0x0, symName: '-[RLMEmbeddedObject setObject:forKeyedSubscript:]', symObjAddr: 0x11C, symBinAddr: 0x40DE74, symSize: 0x8 }
  - { offset: 0x3CC54E, size: 0x8, addend: 0x0, symName: '-[RLMEmbeddedObject isEqualToObject:]', symObjAddr: 0x124, symBinAddr: 0x40DE7C, symSize: 0x7C }
  - { offset: 0x3CC5BA, size: 0x8, addend: 0x0, symName: '-[RLMEmbeddedObject freeze]', symObjAddr: 0x1A0, symBinAddr: 0x40DEF8, symSize: 0x4 }
  - { offset: 0x3CC5F2, size: 0x8, addend: 0x0, symName: '-[RLMEmbeddedObject freeze]', symObjAddr: 0x1A0, symBinAddr: 0x40DEF8, symSize: 0x4 }
  - { offset: 0x3CC60F, size: 0x8, addend: 0x0, symName: '-[RLMEmbeddedObject thaw]', symObjAddr: 0x1A4, symBinAddr: 0x40DEFC, symSize: 0x4 }
  - { offset: 0x3CC647, size: 0x8, addend: 0x0, symName: '-[RLMEmbeddedObject thaw]', symObjAddr: 0x1A4, symBinAddr: 0x40DEFC, symSize: 0x4 }
  - { offset: 0x3CC664, size: 0x8, addend: 0x0, symName: '-[RLMEmbeddedObject addNotificationBlock:]', symObjAddr: 0x1A8, symBinAddr: 0x40DF00, symSize: 0x28 }
  - { offset: 0x3CC6AB, size: 0x8, addend: 0x0, symName: '-[RLMEmbeddedObject addNotificationBlock:queue:]', symObjAddr: 0x1D0, symBinAddr: 0x40DF28, symSize: 0x24 }
  - { offset: 0x3CC702, size: 0x8, addend: 0x0, symName: '-[RLMEmbeddedObject addNotificationBlock:keyPaths:]', symObjAddr: 0x1F4, symBinAddr: 0x40DF4C, symSize: 0x28 }
  - { offset: 0x3CC759, size: 0x8, addend: 0x0, symName: '-[RLMEmbeddedObject addNotificationBlock:keyPaths:queue:]', symObjAddr: 0x21C, symBinAddr: 0x40DF74, symSize: 0x28 }
  - { offset: 0x3CC7C0, size: 0x8, addend: 0x0, symName: '+[RLMEmbeddedObject className]', symObjAddr: 0x244, symBinAddr: 0x40DF9C, symSize: 0x3C }
  - { offset: 0x3CC7F7, size: 0x8, addend: 0x0, symName: '+[RLMEmbeddedObject primaryKey]', symObjAddr: 0x280, symBinAddr: 0x40DFD8, symSize: 0x8 }
  - { offset: 0x3CC82A, size: 0x8, addend: 0x0, symName: '+[RLMEmbeddedObject indexedProperties]', symObjAddr: 0x288, symBinAddr: 0x40DFE0, symSize: 0x10 }
  - { offset: 0x3CC85D, size: 0x8, addend: 0x0, symName: '+[RLMEmbeddedObject linkingObjectsProperties]', symObjAddr: 0x298, symBinAddr: 0x40DFF0, symSize: 0x10 }
  - { offset: 0x3CC890, size: 0x8, addend: 0x0, symName: '+[RLMEmbeddedObject defaultPropertyValues]', symObjAddr: 0x2A8, symBinAddr: 0x40E000, symSize: 0x8 }
  - { offset: 0x3CC8C3, size: 0x8, addend: 0x0, symName: '+[RLMEmbeddedObject ignoredProperties]', symObjAddr: 0x2B0, symBinAddr: 0x40E008, symSize: 0x8 }
  - { offset: 0x3CC8F6, size: 0x8, addend: 0x0, symName: '+[RLMEmbeddedObject requiredProperties]', symObjAddr: 0x2B8, symBinAddr: 0x40E010, symSize: 0x10 }
  - { offset: 0x3CC929, size: 0x8, addend: 0x0, symName: '+[RLMEmbeddedObject _realmIgnoreClass]', symObjAddr: 0x2C8, symBinAddr: 0x40E020, symSize: 0x8 }
  - { offset: 0x3CC95C, size: 0x8, addend: 0x0, symName: '+[RLMEmbeddedObject isEmbedded]', symObjAddr: 0x2D0, symBinAddr: 0x40E028, symSize: 0x8 }
  - { offset: 0x3CC98F, size: 0x8, addend: 0x0, symName: '-[RLMEmbeddedObject isFrozen]', symObjAddr: 0x2D8, symBinAddr: 0x40E030, symSize: 0x10 }
  - { offset: 0x3CE798, size: 0x8, addend: 0x0, symName: __Z9makeErrorRKN5realm6StatusE, symObjAddr: 0x0, symBinAddr: 0x40E040, symSize: 0x22C }
  - { offset: 0x3CE7B2, size: 0x8, addend: 0x0, symName: _RLMErrorDomain, symObjAddr: 0x1B18, symBinAddr: 0x638B28, symSize: 0x0 }
  - { offset: 0x3CE7D9, size: 0x8, addend: 0x0, symName: _RLMUnknownSystemErrorDomain, symObjAddr: 0x1B20, symBinAddr: 0x638B30, symSize: 0x0 }
  - { offset: 0x3CE7EF, size: 0x8, addend: 0x0, symName: _RLMSyncErrorDomain, symObjAddr: 0x1B28, symBinAddr: 0x638B38, symSize: 0x0 }
  - { offset: 0x3CE805, size: 0x8, addend: 0x0, symName: _RLMSyncAuthErrorDomain, symObjAddr: 0x1B30, symBinAddr: 0x638B40, symSize: 0x0 }
  - { offset: 0x3CE81B, size: 0x8, addend: 0x0, symName: _RLMAppErrorDomain, symObjAddr: 0x1B38, symBinAddr: 0x638B48, symSize: 0x0 }
  - { offset: 0x3CE831, size: 0x8, addend: 0x0, symName: _kRLMSyncPathOfRealmBackupCopyKey, symObjAddr: 0x1B40, symBinAddr: 0x638B50, symSize: 0x0 }
  - { offset: 0x3CE847, size: 0x8, addend: 0x0, symName: _kRLMSyncErrorActionTokenKey, symObjAddr: 0x1B48, symBinAddr: 0x638B58, symSize: 0x0 }
  - { offset: 0x3CE85D, size: 0x8, addend: 0x0, symName: _RLMErrorCodeKey, symObjAddr: 0x1B50, symBinAddr: 0x638B60, symSize: 0x0 }
  - { offset: 0x3CE873, size: 0x8, addend: 0x0, symName: _RLMErrorCodeNameKey, symObjAddr: 0x1B58, symBinAddr: 0x638B68, symSize: 0x0 }
  - { offset: 0x3CE889, size: 0x8, addend: 0x0, symName: _RLMServerLogURLKey, symObjAddr: 0x1B60, symBinAddr: 0x638B70, symSize: 0x0 }
  - { offset: 0x3CE89F, size: 0x8, addend: 0x0, symName: _RLMCompensatingWriteInfoKey, symObjAddr: 0x1B68, symBinAddr: 0x638B78, symSize: 0x0 }
  - { offset: 0x3CE8B5, size: 0x8, addend: 0x0, symName: _RLMHTTPStatusCodeKey, symObjAddr: 0x1B70, symBinAddr: 0x638B80, symSize: 0x0 }
  - { offset: 0x401866, size: 0x8, addend: 0x0, symName: __Z9makeErrorRKN5realm6StatusE, symObjAddr: 0x0, symBinAddr: 0x40E040, symSize: 0x22C }
  - { offset: 0x401A79, size: 0x8, addend: 0x0, symName: __ZN12_GLOBAL__N_118translateFileErrorEN5realm10ErrorCodes5ErrorE, symObjAddr: 0x22C, symBinAddr: 0x40E26C, symSize: 0x184 }
  - { offset: 0x401AC6, size: 0x8, addend: 0x0, symName: __ZN12_GLOBAL__N_111errorDomainEN5realm10ErrorCodes5ErrorE, symObjAddr: 0x3B0, symBinAddr: 0x40E3F0, symSize: 0x70 }
  - { offset: 0x401B05, size: 0x8, addend: 0x0, symName: __ZN12_GLOBAL__N_111errorStringEN5realm10ErrorCodes5ErrorE, symObjAddr: 0x420, symBinAddr: 0x40E460, symSize: 0x4C }
  - { offset: 0x401BC5, size: 0x8, addend: 0x0, symName: __Z9makeErrorRKN5realm9ExceptionE, symObjAddr: 0x46C, symBinAddr: 0x40E4AC, symSize: 0x1F0 }
  - { offset: 0x401C6E, size: 0x8, addend: 0x0, symName: __Z9makeErrorRKN5realm15FileAccessErrorE, symObjAddr: 0x65C, symBinAddr: 0x40E69C, symSize: 0x244 }
  - { offset: 0x401D79, size: 0x8, addend: 0x0, symName: __Z9makeErrorRKSt9exception, symObjAddr: 0x8A0, symBinAddr: 0x40E8E0, symSize: 0x124 }
  - { offset: 0x401E08, size: 0x8, addend: 0x0, symName: __Z9makeErrorRKNSt3__112system_errorE, symObjAddr: 0x9C4, symBinAddr: 0x40EA04, symSize: 0x1D4 }
  - { offset: 0x401EA1, size: 0x8, addend: 0x0, symName: '-[RLMCompensatingWriteInfo objectType]', symObjAddr: 0xB98, symBinAddr: 0x40EBD8, symSize: 0x24 }
  - { offset: 0x401F60, size: 0x8, addend: 0x0, symName: '-[RLMCompensatingWriteInfo reason]', symObjAddr: 0xBBC, symBinAddr: 0x40EBFC, symSize: 0x24 }
  - { offset: 0x402118, size: 0x8, addend: 0x0, symName: '-[RLMCompensatingWriteInfo primaryKey]', symObjAddr: 0xBE0, symBinAddr: 0x40EC20, symSize: 0x54 }
  - { offset: 0x40238E, size: 0x8, addend: 0x0, symName: '-[RLMCompensatingWriteInfo .cxx_destruct]', symObjAddr: 0xC34, symBinAddr: 0x40EC74, symSize: 0x54 }
  - { offset: 0x402953, size: 0x8, addend: 0x0, symName: '-[RLMCompensatingWriteInfo .cxx_construct]', symObjAddr: 0xC88, symBinAddr: 0x40ECC8, symSize: 0x20 }
  - { offset: 0x40298B, size: 0x8, addend: 0x0, symName: '-[RLMCompensatingWriteInfo .cxx_construct]', symObjAddr: 0xC88, symBinAddr: 0x40ECC8, symSize: 0x20 }
  - { offset: 0x4029AA, size: 0x8, addend: 0x0, symName: '-[RLMCompensatingWriteInfo .cxx_construct]', symObjAddr: 0xC88, symBinAddr: 0x40ECC8, symSize: 0x20 }
  - { offset: 0x4029CA, size: 0x8, addend: 0x0, symName: '-[RLMCompensatingWriteInfo .cxx_construct]', symObjAddr: 0xC88, symBinAddr: 0x40ECC8, symSize: 0x20 }
  - { offset: 0x4029EC, size: 0x8, addend: 0x0, symName: '-[RLMCompensatingWriteInfo .cxx_construct]', symObjAddr: 0xC88, symBinAddr: 0x40ECC8, symSize: 0x20 }
  - { offset: 0x402A0E, size: 0x8, addend: 0x0, symName: '-[RLMCompensatingWriteInfo .cxx_construct]', symObjAddr: 0xC88, symBinAddr: 0x40ECC8, symSize: 0x20 }
  - { offset: 0x402E0A, size: 0x8, addend: 0x0, symName: __Z9makeErrorON5realm9SyncErrorERKNSt3__110shared_ptrINS_3app3AppEEE, symObjAddr: 0xCA8, symBinAddr: 0x40ECE8, symSize: 0x5DC }
  - { offset: 0x403C03, size: 0x8, addend: 0x0, symName: __Z9makeErrorRKN5realm3app8AppErrorE, symObjAddr: 0x1284, symBinAddr: 0x40F2C4, symSize: 0x2B4 }
  - { offset: 0x405D26, size: 0x8, addend: 0x0, symName: _RLMEventBeginScope, symObjAddr: 0x0, symBinAddr: 0x40F578, symSize: 0x7C }
  - { offset: 0x458C81, size: 0x8, addend: 0x0, symName: __ZNSt3__119__allocate_at_leastB8ne180100INS_9allocatorINS_4pairINS_12basic_stringIcNS_11char_traitsIcEENS1_IcEEEES7_EEEEEENS_19__allocation_resultINS_16allocator_traitsIT_E7pointerEEERSC_m, symObjAddr: 0x1588, symBinAddr: 0x410AEC, symSize: 0x44 }
  - { offset: 0x45EF95, size: 0x8, addend: 0x0, symName: __ZNSt3__112__destroy_atB8ne180100IN5realm4sync26CompensatingWriteErrorInfoELi0EEEvPT_, symObjAddr: 0xC110, symBinAddr: 0x411E08, symSize: 0x54 }
  - { offset: 0x46CD0B, size: 0x8, addend: 0x0, symName: __ZN12_GLOBAL__N_114wrapCompletionEU13block_pointerFvP7NSErrorE, symObjAddr: 0x104, symBinAddr: 0x40F67C, symSize: 0x60 }
  - { offset: 0x46CE13, size: 0x8, addend: 0x0, symName: __ZN12_GLOBAL__N_124nsStringToOptionalStringEP8NSString, symObjAddr: 0x34C, symBinAddr: 0x40F8C4, symSize: 0x13C }
  - { offset: 0x46D3CB, size: 0x8, addend: 0x0, symName: __ZN12_GLOBAL__N_115convertMetadataEP12NSDictionary, symObjAddr: 0x4F0, symBinAddr: 0x40FA68, symSize: 0x18C }
  - { offset: 0x46EC0B, size: 0x8, addend: 0x0, symName: '-[RLMEventConfiguration auditConfigWithRealmConfiguration:]', symObjAddr: 0x684, symBinAddr: 0x40FBFC, symSize: 0x760 }
  - { offset: 0x470CD7, size: 0x8, addend: 0x0, symName: _RLMEventBeginScope, symObjAddr: 0x0, symBinAddr: 0x40F578, symSize: 0x7C }
  - { offset: 0x470EA0, size: 0x8, addend: 0x0, symName: _RLMEventCommitScope, symObjAddr: 0x7C, symBinAddr: 0x40F5F4, symSize: 0x88 }
  - { offset: 0x47124F, size: 0x8, addend: 0x0, symName: _RLMEventCancelScope, symObjAddr: 0x164, symBinAddr: 0x40F6DC, symSize: 0xC }
  - { offset: 0x47128E, size: 0x8, addend: 0x0, symName: _RLMEventIsActive, symObjAddr: 0x170, symBinAddr: 0x40F6E8, symSize: 0xC }
  - { offset: 0x47148A, size: 0x8, addend: 0x0, symName: _RLMEventRecordEvent, symObjAddr: 0x17C, symBinAddr: 0x40F6F4, symSize: 0x1D0 }
  - { offset: 0x4724D7, size: 0x8, addend: 0x0, symName: _RLMEventUpdateMetadata, symObjAddr: 0x488, symBinAddr: 0x40FA00, symSize: 0x68 }
  - { offset: 0x472662, size: 0x8, addend: 0x0, symName: __ZNSt3__16vectorINS_4pairINS_12basic_stringIcNS_11char_traitsIcEENS_9allocatorIcEEEES7_EENS5_IS8_EEE16__destroy_vectorclB8ne180100Ev, symObjAddr: 0x16AC, symBinAddr: 0x410BCC, symSize: 0x70 }
  - { offset: 0x472AC9, size: 0x8, addend: 0x0, symName: __ZNSt3__114__split_bufferINS_4pairINS_12basic_stringIcNS_11char_traitsIcEENS_9allocatorIcEEEES7_EERNS5_IS8_EEED2Ev, symObjAddr: 0x1610, symBinAddr: 0x410B30, symSize: 0x4C }
  - { offset: 0x472C5F, size: 0x8, addend: 0x0, symName: _RLMEventGetContext, symObjAddr: 0x67C, symBinAddr: 0x40FBF4, symSize: 0x8 }
  - { offset: 0x472C8D, size: 0x8, addend: 0x0, symName: _RLMEventGetContext, symObjAddr: 0x67C, symBinAddr: 0x40FBF4, symSize: 0x8 }
  - { offset: 0x474449, size: 0x8, addend: 0x0, symName: __ZNSt3__112__hash_tableINS_17__hash_value_typeIjU8__strongP13RLMObjectBaseEENS_22__unordered_map_hasherIjS5_NS_4hashIjEENS_8equal_toIjEELb1EEENS_21__unordered_map_equalIjS5_SA_S8_Lb1EEENS_9allocatorIS5_EEED2Ev, symObjAddr: 0x1FD4, symBinAddr: 0x411448, symSize: 0x5C }
  - { offset: 0x47474D, size: 0x8, addend: 0x0, symName: '-[RLMEventConfiguration partitionPrefix]', symObjAddr: 0xDE4, symBinAddr: 0x41035C, symSize: 0x8 }
  - { offset: 0x474784, size: 0x8, addend: 0x0, symName: '-[RLMEventConfiguration setPartitionPrefix:]', symObjAddr: 0xDEC, symBinAddr: 0x410364, symSize: 0xC }
  - { offset: 0x4747C5, size: 0x8, addend: 0x0, symName: '-[RLMEventConfiguration syncUser]', symObjAddr: 0xDF8, symBinAddr: 0x410370, symSize: 0x8 }
  - { offset: 0x4747FC, size: 0x8, addend: 0x0, symName: '-[RLMEventConfiguration setSyncUser:]', symObjAddr: 0xE00, symBinAddr: 0x410378, symSize: 0xC }
  - { offset: 0x47483D, size: 0x8, addend: 0x0, symName: '-[RLMEventConfiguration metadata]', symObjAddr: 0xE0C, symBinAddr: 0x410384, symSize: 0x8 }
  - { offset: 0x474874, size: 0x8, addend: 0x0, symName: '-[RLMEventConfiguration setMetadata:]', symObjAddr: 0xE14, symBinAddr: 0x41038C, symSize: 0xC }
  - { offset: 0x4748B5, size: 0x8, addend: 0x0, symName: '-[RLMEventConfiguration logger]', symObjAddr: 0xE20, symBinAddr: 0x410398, symSize: 0x8 }
  - { offset: 0x4748EC, size: 0x8, addend: 0x0, symName: '-[RLMEventConfiguration setLogger:]', symObjAddr: 0xE28, symBinAddr: 0x4103A0, symSize: 0x8 }
  - { offset: 0x47492B, size: 0x8, addend: 0x0, symName: '-[RLMEventConfiguration errorHandler]', symObjAddr: 0xE30, symBinAddr: 0x4103A8, symSize: 0x8 }
  - { offset: 0x474962, size: 0x8, addend: 0x0, symName: '-[RLMEventConfiguration setErrorHandler:]', symObjAddr: 0xE38, symBinAddr: 0x4103B0, symSize: 0x8 }
  - { offset: 0x4749A1, size: 0x8, addend: 0x0, symName: '-[RLMEventConfiguration .cxx_destruct]', symObjAddr: 0xE40, symBinAddr: 0x4103B8, symSize: 0x54 }
  - { offset: 0x4749F0, size: 0x8, addend: 0x0, symName: '__ZN5realm4util14UniqueFunctionIFvSt13exception_ptrEE12SpecificImplIZN12_GLOBAL__N_114wrapCompletionEU13block_pointerFvP7NSErrorEE3$_0ED1Ev', symObjAddr: 0xE94, symBinAddr: 0x41040C, symSize: 0x28 }
  - { offset: 0x474A8D, size: 0x8, addend: 0x0, symName: '__ZN5realm4util14UniqueFunctionIFvSt13exception_ptrEE12SpecificImplIZN12_GLOBAL__N_114wrapCompletionEU13block_pointerFvP7NSErrorEE3$_0ED0Ev', symObjAddr: 0xEBC, symBinAddr: 0x410434, symSize: 0x28 }
  - { offset: 0x474BB8, size: 0x8, addend: 0x0, symName: '__ZN5realm4util14UniqueFunctionIFvSt13exception_ptrEE12SpecificImplIZN12_GLOBAL__N_114wrapCompletionEU13block_pointerFvP7NSErrorEE3$_0E4callEOS2_', symObjAddr: 0xEE4, symBinAddr: 0x41045C, symSize: 0x42C }
  - { offset: 0x474F2D, size: 0x8, addend: 0x0, symName: ____ZN12_GLOBAL__N_115convertMetadataEP12NSDictionary_block_invoke, symObjAddr: 0x1310, symBinAddr: 0x410888, symSize: 0x254 }
  - { offset: 0x475632, size: 0x8, addend: 0x0, symName: __ZNSt3__14pairINS_12basic_stringIcNS_11char_traitsIcEENS_9allocatorIcEEEES6_EC2B8ne180100IPKcSA_Li0EEEOT_OT0_, symObjAddr: 0x165C, symBinAddr: 0x410B7C, symSize: 0x50 }
  - { offset: 0x4757FC, size: 0x8, addend: 0x0, symName: '___copy_helper_block_ea8_32c59_ZTSKZN12_GLOBAL__N_115convertMetadataEP12NSDictionaryE3$_0', symObjAddr: 0x1564, symBinAddr: 0x410ADC, symSize: 0xC }
  - { offset: 0x475821, size: 0x8, addend: 0x0, symName: ___destroy_helper_block_ea8_32, symObjAddr: 0x1570, symBinAddr: 0x410AE8, symSize: 0x4 }
  - { offset: 0x475964, size: 0x8, addend: 0x0, symName: __ZNSt3__120__shared_ptr_emplaceIN5realm11AuditConfigENS_9allocatorIS2_EEED1Ev, symObjAddr: 0x176C, symBinAddr: 0x410C3C, symSize: 0x10 }
  - { offset: 0x475988, size: 0x8, addend: 0x0, symName: __ZNSt3__120__shared_ptr_emplaceIN5realm11AuditConfigENS_9allocatorIS2_EEED1Ev, symObjAddr: 0x176C, symBinAddr: 0x410C3C, symSize: 0x10 }
  - { offset: 0x4759BF, size: 0x8, addend: 0x0, symName: __ZNSt3__120__shared_ptr_emplaceIN5realm11AuditConfigENS_9allocatorIS2_EEED0Ev, symObjAddr: 0x177C, symBinAddr: 0x410C4C, symSize: 0x20 }
  - { offset: 0x475AE0, size: 0x8, addend: 0x0, symName: __ZNSt3__120__shared_ptr_emplaceIN5realm11AuditConfigENS_9allocatorIS2_EEE16__on_zero_sharedEv, symObjAddr: 0x179C, symBinAddr: 0x410C6C, symSize: 0xC0 }
  - { offset: 0x47603E, size: 0x8, addend: 0x0, symName: __ZNSt3__120__shared_ptr_emplaceIN5realm11AuditConfigENS_9allocatorIS2_EEE21__on_zero_shared_weakEv, symObjAddr: 0x185C, symBinAddr: 0x410D2C, symSize: 0x4 }
  - { offset: 0x476073, size: 0x8, addend: 0x0, symName: __ZNSt3__120__shared_ptr_emplaceIN5realm11AuditConfigENS_9allocatorIS2_EEE21__on_zero_shared_weakEv, symObjAddr: 0x185C, symBinAddr: 0x410D2C, symSize: 0x4 }
  - { offset: 0x476098, size: 0x8, addend: 0x0, symName: __ZNSt3__120__shared_ptr_emplaceIN5realm11AuditConfigENS_9allocatorIS2_EEE21__on_zero_shared_weakEv, symObjAddr: 0x185C, symBinAddr: 0x410D2C, symSize: 0x4 }
  - { offset: 0x4760BD, size: 0x8, addend: 0x0, symName: __ZNSt3__120__shared_ptr_emplaceIN5realm11AuditConfigENS_9allocatorIS2_EEE21__on_zero_shared_weakEv, symObjAddr: 0x185C, symBinAddr: 0x410D2C, symSize: 0x4 }
  - { offset: 0x4760EE, size: 0x8, addend: 0x0, symName: __ZNSt3__120__shared_ptr_emplaceIN5realm11AuditConfigENS_9allocatorIS2_EEE21__on_zero_shared_weakEv, symObjAddr: 0x185C, symBinAddr: 0x410D2C, symSize: 0x4 }
  - { offset: 0x476119, size: 0x8, addend: 0x0, symName: __ZNSt3__120__shared_ptr_emplaceIN5realm11AuditConfigENS_9allocatorIS2_EEE21__on_zero_shared_weakEv, symObjAddr: 0x185C, symBinAddr: 0x410D2C, symSize: 0x4 }
  - { offset: 0x476161, size: 0x8, addend: 0x0, symName: __ZNSt3__120__shared_ptr_emplaceIN12_GLOBAL__N_118RLMEventSerializerENS_9allocatorIS2_EEED1Ev, symObjAddr: 0x1860, symBinAddr: 0x410D30, symSize: 0x10 }
  - { offset: 0x476185, size: 0x8, addend: 0x0, symName: __ZNSt3__120__shared_ptr_emplaceIN12_GLOBAL__N_118RLMEventSerializerENS_9allocatorIS2_EEED1Ev, symObjAddr: 0x1860, symBinAddr: 0x410D30, symSize: 0x10 }
  - { offset: 0x4761BC, size: 0x8, addend: 0x0, symName: __ZNSt3__120__shared_ptr_emplaceIN12_GLOBAL__N_118RLMEventSerializerENS_9allocatorIS2_EEED0Ev, symObjAddr: 0x1870, symBinAddr: 0x410D40, symSize: 0x20 }
  - { offset: 0x47628F, size: 0x8, addend: 0x0, symName: __ZNSt3__120__shared_ptr_emplaceIN12_GLOBAL__N_118RLMEventSerializerENS_9allocatorIS2_EEE16__on_zero_sharedEv, symObjAddr: 0x1890, symBinAddr: 0x410D60, symSize: 0xC }
  - { offset: 0x4762B9, size: 0x8, addend: 0x0, symName: __ZNSt3__120__shared_ptr_emplaceIN12_GLOBAL__N_118RLMEventSerializerENS_9allocatorIS2_EEE16__on_zero_sharedEv, symObjAddr: 0x1890, symBinAddr: 0x410D60, symSize: 0xC }
  - { offset: 0x4762D9, size: 0x8, addend: 0x0, symName: __ZNSt3__120__shared_ptr_emplaceIN12_GLOBAL__N_118RLMEventSerializerENS_9allocatorIS2_EEE16__on_zero_sharedEv, symObjAddr: 0x1890, symBinAddr: 0x410D60, symSize: 0xC }
  - { offset: 0x4762F9, size: 0x8, addend: 0x0, symName: __ZNSt3__120__shared_ptr_emplaceIN12_GLOBAL__N_118RLMEventSerializerENS_9allocatorIS2_EEE16__on_zero_sharedEv, symObjAddr: 0x1890, symBinAddr: 0x410D60, symSize: 0xC }
  - { offset: 0x476325, size: 0x8, addend: 0x0, symName: __ZNSt3__120__shared_ptr_emplaceIN12_GLOBAL__N_118RLMEventSerializerENS_9allocatorIS2_EEE21__on_zero_shared_weakEv, symObjAddr: 0x189C, symBinAddr: 0x410D6C, symSize: 0x4 }
  - { offset: 0x47635A, size: 0x8, addend: 0x0, symName: __ZNSt3__120__shared_ptr_emplaceIN12_GLOBAL__N_118RLMEventSerializerENS_9allocatorIS2_EEE21__on_zero_shared_weakEv, symObjAddr: 0x189C, symBinAddr: 0x410D6C, symSize: 0x4 }
  - { offset: 0x47637F, size: 0x8, addend: 0x0, symName: __ZNSt3__120__shared_ptr_emplaceIN12_GLOBAL__N_118RLMEventSerializerENS_9allocatorIS2_EEE21__on_zero_shared_weakEv, symObjAddr: 0x189C, symBinAddr: 0x410D6C, symSize: 0x4 }
  - { offset: 0x4763A4, size: 0x8, addend: 0x0, symName: __ZNSt3__120__shared_ptr_emplaceIN12_GLOBAL__N_118RLMEventSerializerENS_9allocatorIS2_EEE21__on_zero_shared_weakEv, symObjAddr: 0x189C, symBinAddr: 0x410D6C, symSize: 0x4 }
  - { offset: 0x4763D5, size: 0x8, addend: 0x0, symName: __ZNSt3__120__shared_ptr_emplaceIN12_GLOBAL__N_118RLMEventSerializerENS_9allocatorIS2_EEE21__on_zero_shared_weakEv, symObjAddr: 0x189C, symBinAddr: 0x410D6C, symSize: 0x4 }
  - { offset: 0x476400, size: 0x8, addend: 0x0, symName: __ZNSt3__120__shared_ptr_emplaceIN12_GLOBAL__N_118RLMEventSerializerENS_9allocatorIS2_EEE21__on_zero_shared_weakEv, symObjAddr: 0x189C, symBinAddr: 0x410D6C, symSize: 0x4 }
  - { offset: 0x476CBE, size: 0x8, addend: 0x0, symName: __ZN12_GLOBAL__N_118RLMEventSerializer7to_jsonERN8nlohmann16json_abi_v3_11_210basic_jsonINSt3__13mapENS4_6vectorENS4_12basic_stringIcNS4_11char_traitsIcEENS4_9allocatorIcEEEEbxydSA_NS2_14adl_serializerENS6_IhNSA_IhEEEEEERKN5realm3ObjE, symObjAddr: 0x18FC, symBinAddr: 0x410D70, symSize: 0x5EC }
  - { offset: 0x477C36, size: 0x8, addend: 0x0, symName: __ZN12_GLOBAL__N_118RLMEventSerializer5realmEv, symObjAddr: 0x2030, symBinAddr: 0x4114A4, symSize: 0x54 }
  - { offset: 0x477C5D, size: 0x8, addend: 0x0, symName: __ZNSt3__112__hash_tableINS_17__hash_value_typeIjU8__strongP13RLMObjectBaseEENS_22__unordered_map_hasherIjS5_NS_4hashIjEENS_8equal_toIjEELb1EEENS_21__unordered_map_equalIjS5_SA_S8_Lb1EEENS_9allocatorIS5_EEE25__emplace_unique_key_argsIjJNS_4pairIKjS4_EEEEENSI_INS_15__hash_iteratorIPNS_11__hash_nodeIS5_PvEEEEbEERKT_DpOT0_, symObjAddr: 0x20D8, symBinAddr: 0x41154C, symSize: 0x3FC }
  - { offset: 0x478805, size: 0x8, addend: 0x0, symName: __ZNK8nlohmann16json_abi_v3_11_210basic_jsonINSt3__13mapENS2_6vectorENS2_12basic_stringIcNS2_11char_traitsIcEENS2_9allocatorIcEEEEbxydS8_NS0_14adl_serializerENS4_IhNS8_IhEEEEE16assert_invariantEb, symObjAddr: 0x2A48, symBinAddr: 0x41198C, symSize: 0xB0 }
  - { offset: 0x47999B, size: 0x8, addend: 0x0, symName: __ZN8nlohmann16json_abi_v3_11_26detail5lexerINS0_10basic_jsonINSt3__13mapENS4_6vectorENS4_12basic_stringIcNS4_11char_traitsIcEENS4_9allocatorIcEEEEbxydSA_NS0_14adl_serializerENS6_IhNSA_IhEEEEEENS1_22iterator_input_adapterIPKcEEED2Ev, symObjAddr: 0x41F8, symBinAddr: 0x411A3C, symSize: 0x40 }
  - { offset: 0x479C41, size: 0x8, addend: 0x0, symName: __ZN8nlohmann16json_abi_v3_11_210basic_jsonINSt3__13mapENS2_6vectorENS2_12basic_stringIcNS2_11char_traitsIcEENS2_9allocatorIcEEEEbxydS8_NS0_14adl_serializerENS4_IhNS8_IhEEEEEaSESE_, symObjAddr: 0x2084, symBinAddr: 0x4114F8, symSize: 0x54 }
  - { offset: 0x479DC0, size: 0x8, addend: 0x0, symName: __ZN12_GLOBAL__N_118RLMEventSerializer14scope_completeEv, symObjAddr: 0x1EE8, symBinAddr: 0x41135C, symSize: 0x6C }
  - { offset: 0x479E89, size: 0x8, addend: 0x0, symName: __ZN12_GLOBAL__N_118RLMEventSerializerD1Ev, symObjAddr: 0x1F54, symBinAddr: 0x4113C8, symSize: 0x6C }
  - { offset: 0x47A09D, size: 0x8, addend: 0x0, symName: __ZN12_GLOBAL__N_118RLMEventSerializerD0Ev, symObjAddr: 0x1FC0, symBinAddr: 0x411434, symSize: 0x14 }
  - { offset: 0x47A6B1, size: 0x8, addend: 0x0, symName: __ZNSt3__122__hash_node_destructorINS_9allocatorINS_11__hash_nodeINS_17__hash_value_typeIjU8__strongP13RLMObjectBaseEEPvEEEEEclB8ne180100EPS9_, symObjAddr: 0x24D4, symBinAddr: 0x411948, symSize: 0x44 }
  - { offset: 0x47FB82, size: 0x8, addend: 0x0, symName: __ZN8nlohmann16json_abi_v3_11_26detail5lexerINS0_10basic_jsonINSt3__13mapENS4_6vectorENS4_12basic_stringIcNS4_11char_traitsIcEENS4_9allocatorIcEEEEbxydSA_NS0_14adl_serializerENS6_IhNSA_IhEEEEEENS1_22iterator_input_adapterIPKcEEED2Ev, symObjAddr: 0x41F8, symBinAddr: 0x411A3C, symSize: 0x40 }
  - { offset: 0x48CE3C, size: 0x8, addend: 0x0, symName: __ZNSt3__16__treeINS_12__value_typeINS_12basic_stringIcNS_11char_traitsIcEENS_9allocatorIcEEEEN8nlohmann16json_abi_v3_11_210basic_jsonINS_3mapENS_6vectorES7_bxydS5_NS9_14adl_serializerENSC_IhNS5_IhEEEEEEEENS_19__map_value_compareIS7_SH_NS_4lessIvEELb1EEENS5_ISH_EEE7destroyEPNS_11__tree_nodeISH_PvEE, symObjAddr: 0x807C, symBinAddr: 0x411A7C, symSize: 0x58 }
  - { offset: 0x490204, size: 0x8, addend: 0x0, symName: '__ZNSt3__110__function6__funcIZ59-[RLMEventConfiguration auditConfigWithRealmConfiguration:]E3$_1NS_9allocatorIS2_EEFvN5realm9SyncErrorEEED1Ev', symObjAddr: 0xBD6C, symBinAddr: 0x411AD4, symSize: 0x28 }
  - { offset: 0x490341, size: 0x8, addend: 0x0, symName: '__ZNSt3__110__function6__funcIZ59-[RLMEventConfiguration auditConfigWithRealmConfiguration:]E3$_1NS_9allocatorIS2_EEFvN5realm9SyncErrorEEED0Ev', symObjAddr: 0xBD94, symBinAddr: 0x411AFC, symSize: 0x28 }
  - { offset: 0x49062D, size: 0x8, addend: 0x0, symName: '__ZNKSt3__110__function6__funcIZ59-[RLMEventConfiguration auditConfigWithRealmConfiguration:]E3$_1NS_9allocatorIS2_EEFvN5realm9SyncErrorEEE7__cloneEv', symObjAddr: 0xBDBC, symBinAddr: 0x411B24, symSize: 0x44 }
  - { offset: 0x490858, size: 0x8, addend: 0x0, symName: '__ZNKSt3__110__function6__funcIZ59-[RLMEventConfiguration auditConfigWithRealmConfiguration:]E3$_1NS_9allocatorIS2_EEFvN5realm9SyncErrorEEE7__cloneEPNS0_6__baseIS7_EE', symObjAddr: 0xBE00, symBinAddr: 0x411B68, symSize: 0x34 }
  - { offset: 0x490A50, size: 0x8, addend: 0x0, symName: '__ZNSt3__110__function6__funcIZ59-[RLMEventConfiguration auditConfigWithRealmConfiguration:]E3$_1NS_9allocatorIS2_EEFvN5realm9SyncErrorEEE7destroyEv', symObjAddr: 0xBE34, symBinAddr: 0x411B9C, symSize: 0x8 }
  - { offset: 0x490A7C, size: 0x8, addend: 0x0, symName: '__ZNSt3__110__function6__funcIZ59-[RLMEventConfiguration auditConfigWithRealmConfiguration:]E3$_1NS_9allocatorIS2_EEFvN5realm9SyncErrorEEE7destroyEv', symObjAddr: 0xBE34, symBinAddr: 0x411B9C, symSize: 0x8 }
  - { offset: 0x490A9C, size: 0x8, addend: 0x0, symName: '__ZNSt3__110__function6__funcIZ59-[RLMEventConfiguration auditConfigWithRealmConfiguration:]E3$_1NS_9allocatorIS2_EEFvN5realm9SyncErrorEEE7destroyEv', symObjAddr: 0xBE34, symBinAddr: 0x411B9C, symSize: 0x8 }
  - { offset: 0x490ABB, size: 0x8, addend: 0x0, symName: '__ZNSt3__110__function6__funcIZ59-[RLMEventConfiguration auditConfigWithRealmConfiguration:]E3$_1NS_9allocatorIS2_EEFvN5realm9SyncErrorEEE7destroyEv', symObjAddr: 0xBE34, symBinAddr: 0x411B9C, symSize: 0x8 }
  - { offset: 0x490ADA, size: 0x8, addend: 0x0, symName: '__ZNSt3__110__function6__funcIZ59-[RLMEventConfiguration auditConfigWithRealmConfiguration:]E3$_1NS_9allocatorIS2_EEFvN5realm9SyncErrorEEE7destroyEv', symObjAddr: 0xBE34, symBinAddr: 0x411B9C, symSize: 0x8 }
  - { offset: 0x490AF9, size: 0x8, addend: 0x0, symName: '__ZNSt3__110__function6__funcIZ59-[RLMEventConfiguration auditConfigWithRealmConfiguration:]E3$_1NS_9allocatorIS2_EEFvN5realm9SyncErrorEEE7destroyEv', symObjAddr: 0xBE34, symBinAddr: 0x411B9C, symSize: 0x8 }
  - { offset: 0x490B18, size: 0x8, addend: 0x0, symName: '__ZNSt3__110__function6__funcIZ59-[RLMEventConfiguration auditConfigWithRealmConfiguration:]E3$_1NS_9allocatorIS2_EEFvN5realm9SyncErrorEEE7destroyEv', symObjAddr: 0xBE34, symBinAddr: 0x411B9C, symSize: 0x8 }
  - { offset: 0x490B68, size: 0x8, addend: 0x0, symName: '__ZNSt3__110__function6__funcIZ59-[RLMEventConfiguration auditConfigWithRealmConfiguration:]E3$_1NS_9allocatorIS2_EEFvN5realm9SyncErrorEEE18destroy_deallocateEv', symObjAddr: 0xBE3C, symBinAddr: 0x411BA4, symSize: 0x28 }
  - { offset: 0x491150, size: 0x8, addend: 0x0, symName: '__ZNSt3__110__function6__funcIZ59-[RLMEventConfiguration auditConfigWithRealmConfiguration:]E3$_1NS_9allocatorIS2_EEFvN5realm9SyncErrorEEEclEOS6_', symObjAddr: 0xBE64, symBinAddr: 0x411BCC, symSize: 0x184 }
  - { offset: 0x491A59, size: 0x8, addend: 0x0, symName: __ZNSt3__16vectorIN5realm4sync26CompensatingWriteErrorInfoENS_9allocatorIS3_EEE16__destroy_vectorclB8ne180100Ev, symObjAddr: 0xC0A0, symBinAddr: 0x411D98, symSize: 0x70 }
  - { offset: 0x491B9E, size: 0x8, addend: 0x0, symName: __ZNSt3__112__hash_tableINS_17__hash_value_typeINS_12basic_stringIcNS_11char_traitsIcEENS_9allocatorIcEEEES7_EENS_22__unordered_map_hasherIS7_S8_NS_4hashIS7_EENS_8equal_toIS7_EELb1EEENS_21__unordered_map_equalIS7_S8_SD_SB_Lb1EEENS5_IS8_EEED2Ev, symObjAddr: 0xC164, symBinAddr: 0x411E5C, symSize: 0x38 }
  - { offset: 0x491D25, size: 0x8, addend: 0x0, symName: '__ZNKSt3__110__function6__funcIZ59-[RLMEventConfiguration auditConfigWithRealmConfiguration:]E3$_1NS_9allocatorIS2_EEFvN5realm9SyncErrorEEE6targetERKSt9type_info', symObjAddr: 0xBFE8, symBinAddr: 0x411D50, symSize: 0x3C }
  - { offset: 0x491D5E, size: 0x8, addend: 0x0, symName: '__ZNKSt3__110__function6__funcIZ59-[RLMEventConfiguration auditConfigWithRealmConfiguration:]E3$_1NS_9allocatorIS2_EEFvN5realm9SyncErrorEEE11target_typeEv', symObjAddr: 0xC024, symBinAddr: 0x411D8C, symSize: 0xC }
  - { offset: 0x4921CA, size: 0x8, addend: 0x0, symName: __ZNSt3__112__hash_tableINS_17__hash_value_typeINS_12basic_stringIcNS_11char_traitsIcEENS_9allocatorIcEEEES7_EENS_22__unordered_map_hasherIS7_S8_NS_4hashIS7_EENS_8equal_toIS7_EELb1EEENS_21__unordered_map_equalIS7_S8_SD_SB_Lb1EEENS5_IS8_EEE17__deallocate_nodeEPNS_16__hash_node_baseIPNS_11__hash_nodeIS8_PvEEEE, symObjAddr: 0xC19C, symBinAddr: 0x411E94, symSize: 0x3C }
  - { offset: 0x4944D5, size: 0x8, addend: 0x0, symName: '-[RLMFindOneAndModifyOptions initWithProjection:sort:upsert:shouldReturnNewDocument:]', symObjAddr: 0x0, symBinAddr: 0x411ED0, symSize: 0xF8 }
  - { offset: 0x49BAE9, size: 0x8, addend: 0x0, symName: __ZNSt3__121__unwrap_and_dispatchB8ne180100INS_10__overloadINS_11__copy_loopINS_17_ClassicAlgPolicyEEENS_14__copy_trivialEEEPNS_12basic_stringIcNS_11char_traitsIcEENS_9allocatorIcEEEESD_SD_Li0EEENS_4pairIT0_T2_EESF_T1_SG_, symObjAddr: 0x1210, symBinAddr: 0x412984, symSize: 0x5C }
  - { offset: 0x49E62E, size: 0x8, addend: 0x0, symName: '-[RLMFindOneAndModifyOptions initWithProjection:sort:upsert:shouldReturnNewDocument:]', symObjAddr: 0x0, symBinAddr: 0x411ED0, symSize: 0xF8 }
  - { offset: 0x49E6A5, size: 0x8, addend: 0x0, symName: '-[RLMFindOneAndModifyOptions initWithProjection:sorting:upsert:shouldReturnNewDocument:]', symObjAddr: 0xF8, symBinAddr: 0x411FC8, symSize: 0xF8 }
  - { offset: 0x49E904, size: 0x8, addend: 0x0, symName: '-[RLMFindOneAndModifyOptions _findOneAndModifyOptions]', symObjAddr: 0x1F0, symBinAddr: 0x4120C0, symSize: 0x54 }
  - { offset: 0x49EC05, size: 0x8, addend: 0x0, symName: __ZNSt3__120__optional_copy_baseIN5realm4bson12BsonDocumentELb0EEC2B8ne180100ERKS4_, symObjAddr: 0x740, symBinAddr: 0x412610, symSize: 0x54 }
  - { offset: 0x49EDB6, size: 0x8, addend: 0x0, symName: __ZNSt3__124__optional_destruct_baseIN5realm4bson12BsonDocumentELb0EED2B8ne180100Ev, symObjAddr: 0x794, symBinAddr: 0x412664, symSize: 0x48 }
  - { offset: 0x49EF29, size: 0x8, addend: 0x0, symName: '-[RLMFindOneAndModifyOptions projection]', symObjAddr: 0x244, symBinAddr: 0x412114, symSize: 0x60 }
  - { offset: 0x49F222, size: 0x8, addend: 0x0, symName: '-[RLMFindOneAndModifyOptions sort]', symObjAddr: 0x2A4, symBinAddr: 0x412174, symSize: 0x60 }
  - { offset: 0x49F51B, size: 0x8, addend: 0x0, symName: '-[RLMFindOneAndModifyOptions sorting]', symObjAddr: 0x304, symBinAddr: 0x4121D4, symSize: 0x60 }
  - { offset: 0x49F838, size: 0x8, addend: 0x0, symName: '-[RLMFindOneAndModifyOptions upsert]', symObjAddr: 0x364, symBinAddr: 0x412234, symSize: 0x8 }
  - { offset: 0x49F86F, size: 0x8, addend: 0x0, symName: '-[RLMFindOneAndModifyOptions shouldReturnNewDocument]', symObjAddr: 0x36C, symBinAddr: 0x41223C, symSize: 0x8 }
  - { offset: 0x49FC7D, size: 0x8, addend: 0x0, symName: '-[RLMFindOneAndModifyOptions setProjection:]', symObjAddr: 0x374, symBinAddr: 0x412244, symSize: 0x150 }
  - { offset: 0x4A0333, size: 0x8, addend: 0x0, symName: __ZNSt3__123__optional_storage_baseIN5realm4bson12BsonDocumentELb0EE13__assign_fromB8ne180100INS_27__optional_move_assign_baseIS3_Lb0EEEEEvOT_, symObjAddr: 0x7DC, symBinAddr: 0x4126AC, symSize: 0x80 }
  - { offset: 0x4A0587, size: 0x8, addend: 0x0, symName: __ZNSt3__124__optional_destruct_baseIN5realm4bson12BsonDocumentELb0EE5resetB8ne180100Ev, symObjAddr: 0x85C, symBinAddr: 0x41272C, symSize: 0x48 }
  - { offset: 0x4A06FC, size: 0x8, addend: 0x0, symName: '-[RLMFindOneAndModifyOptions setSort:]', symObjAddr: 0x4C4, symBinAddr: 0x412394, symSize: 0x150 }
  - { offset: 0x4A0D9C, size: 0x8, addend: 0x0, symName: '-[RLMFindOneAndModifyOptions setSorting:]', symObjAddr: 0x614, symBinAddr: 0x4124E4, symSize: 0x6C }
  - { offset: 0x4A0F40, size: 0x8, addend: 0x0, symName: __ZNSt3__18optionalIN5realm4bson12BsonDocumentEEaSB8ne180100IS3_vEERS4_OT_, symObjAddr: 0x680, symBinAddr: 0x412550, symSize: 0x70 }
  - { offset: 0x4A1333, size: 0x8, addend: 0x0, symName: __ZN5realm4bson10IndexedMapINS0_4BsonEEaSERKS3_, symObjAddr: 0x8A4, symBinAddr: 0x412774, symSize: 0x64 }
  - { offset: 0x4A14B7, size: 0x8, addend: 0x0, symName: '-[RLMFindOneAndModifyOptions setUpsert:]', symObjAddr: 0x6F0, symBinAddr: 0x4125C0, symSize: 0x8 }
  - { offset: 0x4A14F4, size: 0x8, addend: 0x0, symName: '-[RLMFindOneAndModifyOptions setShouldReturnNewDocument:]', symObjAddr: 0x6F8, symBinAddr: 0x4125C8, symSize: 0x8 }
  - { offset: 0x4A1569, size: 0x8, addend: 0x0, symName: '-[RLMFindOneAndModifyOptions .cxx_destruct]', symObjAddr: 0x700, symBinAddr: 0x4125D0, symSize: 0x28 }
  - { offset: 0x4A18C1, size: 0x8, addend: 0x0, symName: '-[RLMFindOneAndModifyOptions .cxx_construct]', symObjAddr: 0x728, symBinAddr: 0x4125F8, symSize: 0x18 }
  - { offset: 0x4A18F9, size: 0x8, addend: 0x0, symName: '-[RLMFindOneAndModifyOptions .cxx_construct]', symObjAddr: 0x728, symBinAddr: 0x4125F8, symSize: 0x18 }
  - { offset: 0x4A1918, size: 0x8, addend: 0x0, symName: '-[RLMFindOneAndModifyOptions .cxx_construct]', symObjAddr: 0x728, symBinAddr: 0x4125F8, symSize: 0x18 }
  - { offset: 0x4A1937, size: 0x8, addend: 0x0, symName: '-[RLMFindOneAndModifyOptions .cxx_construct]', symObjAddr: 0x728, symBinAddr: 0x4125F8, symSize: 0x18 }
  - { offset: 0x4A1956, size: 0x8, addend: 0x0, symName: '-[RLMFindOneAndModifyOptions .cxx_construct]', symObjAddr: 0x728, symBinAddr: 0x4125F8, symSize: 0x18 }
  - { offset: 0x4A1976, size: 0x8, addend: 0x0, symName: '-[RLMFindOneAndModifyOptions .cxx_construct]', symObjAddr: 0x728, symBinAddr: 0x4125F8, symSize: 0x18 }
  - { offset: 0x4A1996, size: 0x8, addend: 0x0, symName: '-[RLMFindOneAndModifyOptions .cxx_construct]', symObjAddr: 0x728, symBinAddr: 0x4125F8, symSize: 0x18 }
  - { offset: 0x4A19B6, size: 0x8, addend: 0x0, symName: '-[RLMFindOneAndModifyOptions .cxx_construct]', symObjAddr: 0x728, symBinAddr: 0x4125F8, symSize: 0x18 }
  - { offset: 0x4A19D6, size: 0x8, addend: 0x0, symName: '-[RLMFindOneAndModifyOptions .cxx_construct]', symObjAddr: 0x728, symBinAddr: 0x4125F8, symSize: 0x18 }
  - { offset: 0x4A19F6, size: 0x8, addend: 0x0, symName: '-[RLMFindOneAndModifyOptions .cxx_construct]', symObjAddr: 0x728, symBinAddr: 0x4125F8, symSize: 0x18 }
  - { offset: 0x4A1A16, size: 0x8, addend: 0x0, symName: '-[RLMFindOneAndModifyOptions .cxx_construct]', symObjAddr: 0x728, symBinAddr: 0x4125F8, symSize: 0x18 }
  - { offset: 0x4A1DFC, size: 0x8, addend: 0x0, symName: __ZNSt3__16vectorINS_12basic_stringIcNS_11char_traitsIcEENS_9allocatorIcEEEENS4_IS6_EEE18__assign_with_sizeB8ne180100IPS6_SA_EEvT_T0_l, symObjAddr: 0x1064, symBinAddr: 0x4127D8, symSize: 0x174 }
  - { offset: 0x4A37A2, size: 0x8, addend: 0x0, symName: __ZNSt3__16vectorINS_12basic_stringIcNS_11char_traitsIcEENS_9allocatorIcEEEENS4_IS6_EEE13__vdeallocateEv, symObjAddr: 0x11D8, symBinAddr: 0x41294C, symSize: 0x38 }
  - { offset: 0x4A56E2, size: 0x8, addend: 0x0, symName: '-[RLMFindOptions initWithLimit:projection:sort:]', symObjAddr: 0x0, symBinAddr: 0x4129E0, symSize: 0xE4 }
  - { offset: 0x4AEC74, size: 0x8, addend: 0x0, symName: '-[RLMFindOptions initWithLimit:projection:sort:]', symObjAddr: 0x0, symBinAddr: 0x4129E0, symSize: 0xE4 }
  - { offset: 0x4AECDB, size: 0x8, addend: 0x0, symName: '-[RLMFindOptions initWithProjection:sort:]', symObjAddr: 0xE4, symBinAddr: 0x412AC4, symSize: 0xC8 }
  - { offset: 0x4AED32, size: 0x8, addend: 0x0, symName: '-[RLMFindOptions initWithLimit:projection:sorting:]', symObjAddr: 0x1AC, symBinAddr: 0x412B8C, symSize: 0xE4 }
  - { offset: 0x4AED99, size: 0x8, addend: 0x0, symName: '-[RLMFindOptions initWithProjection:sorting:]', symObjAddr: 0x290, symBinAddr: 0x412C70, symSize: 0xC8 }
  - { offset: 0x4AEFD8, size: 0x8, addend: 0x0, symName: '-[RLMFindOptions _findOptions]', symObjAddr: 0x358, symBinAddr: 0x412D38, symSize: 0x60 }
  - { offset: 0x4AF2AF, size: 0x8, addend: 0x0, symName: '-[RLMFindOptions projection]', symObjAddr: 0x3B8, symBinAddr: 0x412D98, symSize: 0x60 }
  - { offset: 0x4AF57E, size: 0x8, addend: 0x0, symName: '-[RLMFindOptions sort]', symObjAddr: 0x418, symBinAddr: 0x412DF8, symSize: 0x60 }
  - { offset: 0x4AF84D, size: 0x8, addend: 0x0, symName: '-[RLMFindOptions sorting]', symObjAddr: 0x478, symBinAddr: 0x412E58, symSize: 0x60 }
  - { offset: 0x4AFF17, size: 0x8, addend: 0x0, symName: '-[RLMFindOptions setProjection:]', symObjAddr: 0x4D8, symBinAddr: 0x412EB8, symSize: 0x150 }
  - { offset: 0x4B059B, size: 0x8, addend: 0x0, symName: '-[RLMFindOptions setSort:]', symObjAddr: 0x628, symBinAddr: 0x413008, symSize: 0x150 }
  - { offset: 0x4B0C03, size: 0x8, addend: 0x0, symName: '-[RLMFindOptions setSorting:]', symObjAddr: 0x778, symBinAddr: 0x413158, symSize: 0x6C }
  - { offset: 0x4B0DEC, size: 0x8, addend: 0x0, symName: '-[RLMFindOptions limit]', symObjAddr: 0x7E4, symBinAddr: 0x4131C4, symSize: 0x18 }
  - { offset: 0x4B0E26, size: 0x8, addend: 0x0, symName: '-[RLMFindOptions limit]', symObjAddr: 0x7E4, symBinAddr: 0x4131C4, symSize: 0x18 }
  - { offset: 0x4B0E45, size: 0x8, addend: 0x0, symName: '-[RLMFindOptions limit]', symObjAddr: 0x7E4, symBinAddr: 0x4131C4, symSize: 0x18 }
  - { offset: 0x4B0E64, size: 0x8, addend: 0x0, symName: '-[RLMFindOptions setLimit:]', symObjAddr: 0x7FC, symBinAddr: 0x4131DC, symSize: 0x10 }
  - { offset: 0x4B0EDB, size: 0x8, addend: 0x0, symName: '-[RLMFindOptions .cxx_destruct]', symObjAddr: 0x80C, symBinAddr: 0x4131EC, symSize: 0x28 }
  - { offset: 0x4B131F, size: 0x8, addend: 0x0, symName: '-[RLMFindOptions .cxx_construct]', symObjAddr: 0x834, symBinAddr: 0x413214, symSize: 0x1C }
  - { offset: 0x4B1357, size: 0x8, addend: 0x0, symName: '-[RLMFindOptions .cxx_construct]', symObjAddr: 0x834, symBinAddr: 0x413214, symSize: 0x1C }
  - { offset: 0x4B1376, size: 0x8, addend: 0x0, symName: '-[RLMFindOptions .cxx_construct]', symObjAddr: 0x834, symBinAddr: 0x413214, symSize: 0x1C }
  - { offset: 0x4B1395, size: 0x8, addend: 0x0, symName: '-[RLMFindOptions .cxx_construct]', symObjAddr: 0x834, symBinAddr: 0x413214, symSize: 0x1C }
  - { offset: 0x4B13B4, size: 0x8, addend: 0x0, symName: '-[RLMFindOptions .cxx_construct]', symObjAddr: 0x834, symBinAddr: 0x413214, symSize: 0x1C }
  - { offset: 0x4B13D4, size: 0x8, addend: 0x0, symName: '-[RLMFindOptions .cxx_construct]', symObjAddr: 0x834, symBinAddr: 0x413214, symSize: 0x1C }
  - { offset: 0x4B13F4, size: 0x8, addend: 0x0, symName: '-[RLMFindOptions .cxx_construct]', symObjAddr: 0x834, symBinAddr: 0x413214, symSize: 0x1C }
  - { offset: 0x4B1414, size: 0x8, addend: 0x0, symName: '-[RLMFindOptions .cxx_construct]', symObjAddr: 0x834, symBinAddr: 0x413214, symSize: 0x1C }
  - { offset: 0x4B1434, size: 0x8, addend: 0x0, symName: '-[RLMFindOptions .cxx_construct]', symObjAddr: 0x834, symBinAddr: 0x413214, symSize: 0x1C }
  - { offset: 0x4B1454, size: 0x8, addend: 0x0, symName: '-[RLMFindOptions .cxx_construct]', symObjAddr: 0x834, symBinAddr: 0x413214, symSize: 0x1C }
  - { offset: 0x4B1474, size: 0x8, addend: 0x0, symName: '-[RLMFindOptions .cxx_construct]', symObjAddr: 0x834, symBinAddr: 0x413214, symSize: 0x1C }
  - { offset: 0x4B3402, size: 0x8, addend: 0x0, symName: '-[RLMGeospatialPoint initWithLatitude:longitude:]', symObjAddr: 0x0, symBinAddr: 0x413230, symSize: 0x8 }
  - { offset: 0x4B8988, size: 0x8, addend: 0x0, symName: __ZNSt3__135__uninitialized_allocator_copy_implB8ne180100INS_9allocatorINS_6vectorIN5realm8GeoPointENS1_IS4_EEEEEEPS6_S8_S8_EET2_RT_T0_T1_S9_, symObjAddr: 0x1AD8, symBinAddr: 0x414BB8, symSize: 0xBC }
  - { offset: 0x4B9F8D, size: 0x8, addend: 0x0, symName: '-[RLMGeospatialPoint initWithLatitude:longitude:]', symObjAddr: 0x0, symBinAddr: 0x413230, symSize: 0x8 }
  - { offset: 0x4B9FE2, size: 0x8, addend: 0x0, symName: '-[RLMGeospatialPoint initWithLatitude:longitude:altitude:]', symObjAddr: 0x8, symBinAddr: 0x413238, symSize: 0xD8 }
  - { offset: 0x4BA049, size: 0x8, addend: 0x0, symName: '-[RLMGeospatialPoint value]', symObjAddr: 0xE0, symBinAddr: 0x413310, symSize: 0xC }
  - { offset: 0x4BA0A6, size: 0x8, addend: 0x0, symName: '-[RLMGeospatialPoint isEqual:]', symObjAddr: 0xEC, symBinAddr: 0x41331C, symSize: 0xFC }
  - { offset: 0x4BA115, size: 0x8, addend: 0x0, symName: '-[RLMGeospatialPoint latitude]', symObjAddr: 0x1E8, symBinAddr: 0x413418, symSize: 0x8 }
  - { offset: 0x4BA14A, size: 0x8, addend: 0x0, symName: '-[RLMGeospatialPoint longitude]', symObjAddr: 0x1F0, symBinAddr: 0x413420, symSize: 0x8 }
  - { offset: 0x4BA17F, size: 0x8, addend: 0x0, symName: '-[RLMGeospatialPoint altitude]', symObjAddr: 0x1F8, symBinAddr: 0x413428, symSize: 0x8 }
  - { offset: 0x4BA1B4, size: 0x8, addend: 0x0, symName: '-[RLMGeospatialBox initWithBottomLeft:topRight:]', symObjAddr: 0x200, symBinAddr: 0x413430, symSize: 0xC0 }
  - { offset: 0x4BA872, size: 0x8, addend: 0x0, symName: '-[RLMGeospatialBox geoSpatial]', symObjAddr: 0x2C0, symBinAddr: 0x4134F0, symSize: 0x7C }
  - { offset: 0x4BAC2D, size: 0x8, addend: 0x0, symName: '-[RLMGeospatialBox isEqual:]', symObjAddr: 0x33C, symBinAddr: 0x41356C, symSize: 0x19C }
  - { offset: 0x4BAC9C, size: 0x8, addend: 0x0, symName: '-[RLMGeospatialBox bottomLeft]', symObjAddr: 0x4D8, symBinAddr: 0x413708, symSize: 0xC }
  - { offset: 0x4BACD3, size: 0x8, addend: 0x0, symName: '-[RLMGeospatialBox topRight]', symObjAddr: 0x4E4, symBinAddr: 0x413714, symSize: 0xC }
  - { offset: 0x4BAD0A, size: 0x8, addend: 0x0, symName: '-[RLMGeospatialBox .cxx_destruct]', symObjAddr: 0x4F0, symBinAddr: 0x413720, symSize: 0x30 }
  - { offset: 0x4BAD3D, size: 0x8, addend: 0x0, symName: '-[RLMGeospatialPolygon initWithOuterRing:holes:]', symObjAddr: 0x520, symBinAddr: 0x413750, symSize: 0x2E4 }
  - { offset: 0x4BADAB, size: 0x8, addend: 0x0, symName: '-[RLMGeospatialPolygon initWithOuterRing:]', symObjAddr: 0x804, symBinAddr: 0x413A34, symSize: 0x8 }
  - { offset: 0x4BBB15, size: 0x8, addend: 0x0, symName: '-[RLMGeospatialPolygon geoSpatial]', symObjAddr: 0x80C, symBinAddr: 0x413A3C, symSize: 0x724 }
  - { offset: 0x4BD9F7, size: 0x8, addend: 0x0, symName: __ZNSt3__16vectorIN5realm8GeoPointENS_9allocatorIS2_EEE16__init_with_sizeB8ne180100IPS2_S7_EEvT_T0_m, symObjAddr: 0x1884, symBinAddr: 0x414A5C, symSize: 0x78 }
  - { offset: 0x4BDE43, size: 0x8, addend: 0x0, symName: __ZNSt3__16vectorINS0_IN5realm8GeoPointENS_9allocatorIS2_EEEENS3_IS5_EEE21__push_back_slow_pathIRKS5_EEPS5_OT_, symObjAddr: 0x1714, symBinAddr: 0x4148EC, symSize: 0x170 }
  - { offset: 0x4BE33E, size: 0x8, addend: 0x0, symName: __ZNSt3__16vectorINS0_IN5realm8GeoPointENS_9allocatorIS2_EEEENS3_IS5_EEE16__init_with_sizeB8ne180100IPS5_S9_EEvT_T0_m, symObjAddr: 0x1A04, symBinAddr: 0x414B34, symSize: 0x84 }
  - { offset: 0x4BE67A, size: 0x8, addend: 0x0, symName: '-[RLMGeospatialPolygon isEqual:]', symObjAddr: 0xF30, symBinAddr: 0x414160, symSize: 0x19C }
  - { offset: 0x4BE6E9, size: 0x8, addend: 0x0, symName: '-[RLMGeospatialPolygon outerRing]', symObjAddr: 0x10CC, symBinAddr: 0x4142FC, symSize: 0xC }
  - { offset: 0x4BE720, size: 0x8, addend: 0x0, symName: '-[RLMGeospatialPolygon holes]', symObjAddr: 0x10D8, symBinAddr: 0x414308, symSize: 0xC }
  - { offset: 0x4BE757, size: 0x8, addend: 0x0, symName: '-[RLMGeospatialPolygon .cxx_destruct]', symObjAddr: 0x10E4, symBinAddr: 0x414314, symSize: 0x30 }
  - { offset: 0x4BE78A, size: 0x8, addend: 0x0, symName: '+[RLMDistance distanceFromKilometers:]', symObjAddr: 0x1114, symBinAddr: 0x414344, symSize: 0x44 }
  - { offset: 0x4BE7DD, size: 0x8, addend: 0x0, symName: '+[RLMDistance distanceFromMiles:]', symObjAddr: 0x1158, symBinAddr: 0x414388, symSize: 0x44 }
  - { offset: 0x4BE830, size: 0x8, addend: 0x0, symName: '+[RLMDistance distanceFromDegrees:]', symObjAddr: 0x119C, symBinAddr: 0x4143CC, symSize: 0x38 }
  - { offset: 0x4BE888, size: 0x8, addend: 0x0, symName: '+[RLMDistance distanceFromRadians:]', symObjAddr: 0x11D4, symBinAddr: 0x414404, symSize: 0x30 }
  - { offset: 0x4BE8CB, size: 0x8, addend: 0x0, symName: '-[RLMDistance asKilometers]', symObjAddr: 0x1204, symBinAddr: 0x414434, symSize: 0x2C }
  - { offset: 0x4BE902, size: 0x8, addend: 0x0, symName: '-[RLMDistance asMiles]', symObjAddr: 0x1230, symBinAddr: 0x414460, symSize: 0x2C }
  - { offset: 0x4BE939, size: 0x8, addend: 0x0, symName: '-[RLMDistance asDegrees]', symObjAddr: 0x125C, symBinAddr: 0x41448C, symSize: 0x20 }
  - { offset: 0x4BE985, size: 0x8, addend: 0x0, symName: '-[RLMDistance initWithRadians:]', symObjAddr: 0x127C, symBinAddr: 0x4144AC, symSize: 0x7C }
  - { offset: 0x4BE9F9, size: 0x8, addend: 0x0, symName: '-[RLMDistance isEqual:]', symObjAddr: 0x12F8, symBinAddr: 0x414528, symSize: 0xC8 }
  - { offset: 0x4BEA68, size: 0x8, addend: 0x0, symName: '-[RLMDistance radians]', symObjAddr: 0x13C0, symBinAddr: 0x4145F0, symSize: 0x8 }
  - { offset: 0x4BEA9D, size: 0x8, addend: 0x0, symName: '-[RLMGeospatialCircle initWithCenter:radiusInRadians:]', symObjAddr: 0x13C8, symBinAddr: 0x4145F8, symSize: 0xC0 }
  - { offset: 0x4BEAF4, size: 0x8, addend: 0x0, symName: '-[RLMGeospatialCircle initWithCenter:radius:]', symObjAddr: 0x1488, symBinAddr: 0x4146B8, symSize: 0x90 }
  - { offset: 0x4BF176, size: 0x8, addend: 0x0, symName: '-[RLMGeospatialCircle geoSpatial]', symObjAddr: 0x1518, symBinAddr: 0x414748, symSize: 0x44 }
  - { offset: 0x4BF5B7, size: 0x8, addend: 0x0, symName: '-[RLMGeospatialCircle isEqual:]', symObjAddr: 0x155C, symBinAddr: 0x41478C, symSize: 0x140 }
  - { offset: 0x4BF626, size: 0x8, addend: 0x0, symName: '-[RLMGeospatialCircle center]', symObjAddr: 0x169C, symBinAddr: 0x4148CC, symSize: 0xC }
  - { offset: 0x4BF65D, size: 0x8, addend: 0x0, symName: '-[RLMGeospatialCircle radians]', symObjAddr: 0x16A8, symBinAddr: 0x4148D8, symSize: 0x8 }
  - { offset: 0x4BF692, size: 0x8, addend: 0x0, symName: '-[RLMGeospatialCircle .cxx_destruct]', symObjAddr: 0x16B0, symBinAddr: 0x4148E0, symSize: 0xC }
  - { offset: 0x4BF973, size: 0x8, addend: 0x0, symName: __ZNSt3__114__split_bufferINS_6vectorIN5realm8GeoPointENS_9allocatorIS3_EEEERNS4_IS6_EEED2Ev, symObjAddr: 0x19A4, symBinAddr: 0x414AD4, symSize: 0x60 }
  - { offset: 0x4C011A, size: 0x8, addend: 0x0, symName: __ZNSt3__135__uninitialized_allocator_copy_implB8ne180100INS_9allocatorINS_6vectorIN5realm8GeoPointENS1_IS4_EEEEEEPS6_S8_S8_EET2_RT_T0_T1_S9_, symObjAddr: 0x1AD8, symBinAddr: 0x414BB8, symSize: 0xBC }
  - { offset: 0x4C01EC, size: 0x8, addend: 0x0, symName: __ZNSt3__128__exception_guard_exceptionsINS_29_AllocatorDestroyRangeReverseINS_9allocatorINS_6vectorIN5realm8GeoPointENS2_IS5_EEEEEEPS7_EEED2B8ne180100Ev, symObjAddr: 0x1B94, symBinAddr: 0x414C74, symSize: 0x34 }
  - { offset: 0x4C0225, size: 0x8, addend: 0x0, symName: __ZNKSt3__129_AllocatorDestroyRangeReverseINS_9allocatorINS_6vectorIN5realm8GeoPointENS1_IS4_EEEEEEPS6_EclB8ne180100Ev, symObjAddr: 0x1BC8, symBinAddr: 0x414CA8, symSize: 0x4C }
  - { offset: 0x4C22C5, size: 0x8, addend: 0x0, symName: '-[RLMLogger level]', symObjAddr: 0x0, symBinAddr: 0x414CF4, symSize: 0x14 }
  - { offset: 0x4C87E3, size: 0x8, addend: 0x0, symName: __ZN12_GLOBAL__N_116logLevelForLevelEN5realm4util11LogCategory5LevelE, symObjAddr: 0x14, symBinAddr: 0x414D08, symSize: 0x40 }
  - { offset: 0x4C8851, size: 0x8, addend: 0x0, symName: '-[RLMLogger setLevel:]', symObjAddr: 0x54, symBinAddr: 0x414D48, symSize: 0x2C }
  - { offset: 0x4C885C, size: 0x8, addend: 0x0, symName: __ZN12_GLOBAL__N_116levelForLogLevelE11RLMLogLevel, symObjAddr: 0xA4, symBinAddr: 0x414D98, symSize: 0x40 }
  - { offset: 0x4C88CA, size: 0x8, addend: 0x0, symName: '+[RLMLogger initialize]', symObjAddr: 0xE4, symBinAddr: 0x414DD8, symSize: 0xE0 }
  - { offset: 0x4C8BAE, size: 0x8, addend: 0x0, symName: '-[RLMLogger level]', symObjAddr: 0x0, symBinAddr: 0x414CF4, symSize: 0x14 }
  - { offset: 0x4C8BE8, size: 0x8, addend: 0x0, symName: '-[RLMLogger level]', symObjAddr: 0x0, symBinAddr: 0x414CF4, symSize: 0x14 }
  - { offset: 0x4C8D11, size: 0x8, addend: 0x0, symName: '-[RLMLogger setLevel:]', symObjAddr: 0x54, symBinAddr: 0x414D48, symSize: 0x2C }
  - { offset: 0x4C8D90, size: 0x8, addend: 0x0, symName: __ZN5realm4util6Logger19set_level_thresholdENS0_11LogCategory5LevelE, symObjAddr: 0x80, symBinAddr: 0x414D74, symSize: 0x24 }
  - { offset: 0x4C91A8, size: 0x8, addend: 0x0, symName: '+[RLMLogger initialize]', symObjAddr: 0xE4, symBinAddr: 0x414DD8, symSize: 0xE0 }
  - { offset: 0x4C95D1, size: 0x8, addend: 0x0, symName: __ZN5realm4util6LoggerC2Ev, symObjAddr: 0x6D4, symBinAddr: 0x4153C8, symSize: 0x64 }
  - { offset: 0x4C980F, size: 0x8, addend: 0x0, symName: '-[RLMLogger initWithLogger:]', symObjAddr: 0x1C4, symBinAddr: 0x414EB8, symSize: 0x74 }
  - { offset: 0x4C9CE7, size: 0x8, addend: 0x0, symName: '-[RLMLogger initWithLevel:logFunction:]', symObjAddr: 0x238, symBinAddr: 0x414F2C, symSize: 0x174 }
  - { offset: 0x4CA29E, size: 0x8, addend: 0x0, symName: '-[RLMLogger logWithLevel:message:]', symObjAddr: 0x3AC, symBinAddr: 0x4150A0, symSize: 0xF4 }
  - { offset: 0x4CA7D2, size: 0x8, addend: 0x0, symName: '-[RLMLogger logLevel:message:]', symObjAddr: 0x4A0, symBinAddr: 0x415194, symSize: 0xBC }
  - { offset: 0x4CAA75, size: 0x8, addend: 0x0, symName: '+[RLMLogger defaultLogger]', symObjAddr: 0x55C, symBinAddr: 0x415250, symSize: 0xA4 }
  - { offset: 0x4CAC16, size: 0x8, addend: 0x0, symName: '+[RLMLogger setDefaultLogger:]', symObjAddr: 0x600, symBinAddr: 0x4152F4, symSize: 0x84 }
  - { offset: 0x4CADA9, size: 0x8, addend: 0x0, symName: '-[RLMLogger .cxx_destruct]', symObjAddr: 0x684, symBinAddr: 0x415378, symSize: 0x8 }
  - { offset: 0x4CAE2E, size: 0x8, addend: 0x0, symName: '-[RLMLogger .cxx_construct]', symObjAddr: 0x68C, symBinAddr: 0x415380, symSize: 0x8 }
  - { offset: 0x4CAE66, size: 0x8, addend: 0x0, symName: '-[RLMLogger .cxx_construct]', symObjAddr: 0x68C, symBinAddr: 0x415380, symSize: 0x8 }
  - { offset: 0x4CAE85, size: 0x8, addend: 0x0, symName: '-[RLMLogger .cxx_construct]', symObjAddr: 0x68C, symBinAddr: 0x415380, symSize: 0x8 }
  - { offset: 0x4CAEC0, size: 0x8, addend: 0x0, symName: __ZNSt3__120__shared_ptr_emplaceIN12_GLOBAL__N_111CocoaLoggerENS_9allocatorIS2_EEED1Ev, symObjAddr: 0x694, symBinAddr: 0x415388, symSize: 0x10 }
  - { offset: 0x4CAEE4, size: 0x8, addend: 0x0, symName: __ZNSt3__120__shared_ptr_emplaceIN12_GLOBAL__N_111CocoaLoggerENS_9allocatorIS2_EEED1Ev, symObjAddr: 0x694, symBinAddr: 0x415388, symSize: 0x10 }
  - { offset: 0x4CAF1B, size: 0x8, addend: 0x0, symName: __ZNSt3__120__shared_ptr_emplaceIN12_GLOBAL__N_111CocoaLoggerENS_9allocatorIS2_EEED0Ev, symObjAddr: 0x6A4, symBinAddr: 0x415398, symSize: 0x20 }
  - { offset: 0x4CAFEE, size: 0x8, addend: 0x0, symName: __ZNSt3__120__shared_ptr_emplaceIN12_GLOBAL__N_111CocoaLoggerENS_9allocatorIS2_EEE16__on_zero_sharedEv, symObjAddr: 0x6C4, symBinAddr: 0x4153B8, symSize: 0xC }
  - { offset: 0x4CB018, size: 0x8, addend: 0x0, symName: __ZNSt3__120__shared_ptr_emplaceIN12_GLOBAL__N_111CocoaLoggerENS_9allocatorIS2_EEE16__on_zero_sharedEv, symObjAddr: 0x6C4, symBinAddr: 0x4153B8, symSize: 0xC }
  - { offset: 0x4CB038, size: 0x8, addend: 0x0, symName: __ZNSt3__120__shared_ptr_emplaceIN12_GLOBAL__N_111CocoaLoggerENS_9allocatorIS2_EEE16__on_zero_sharedEv, symObjAddr: 0x6C4, symBinAddr: 0x4153B8, symSize: 0xC }
  - { offset: 0x4CB058, size: 0x8, addend: 0x0, symName: __ZNSt3__120__shared_ptr_emplaceIN12_GLOBAL__N_111CocoaLoggerENS_9allocatorIS2_EEE16__on_zero_sharedEv, symObjAddr: 0x6C4, symBinAddr: 0x4153B8, symSize: 0xC }
  - { offset: 0x4CB0E1, size: 0x8, addend: 0x0, symName: __ZNSt3__120__shared_ptr_emplaceIN12_GLOBAL__N_111CocoaLoggerENS_9allocatorIS2_EEE21__on_zero_shared_weakEv, symObjAddr: 0x6D0, symBinAddr: 0x4153C4, symSize: 0x4 }
  - { offset: 0x4CB116, size: 0x8, addend: 0x0, symName: __ZNSt3__120__shared_ptr_emplaceIN12_GLOBAL__N_111CocoaLoggerENS_9allocatorIS2_EEE21__on_zero_shared_weakEv, symObjAddr: 0x6D0, symBinAddr: 0x4153C4, symSize: 0x4 }
  - { offset: 0x4CB13B, size: 0x8, addend: 0x0, symName: __ZNSt3__120__shared_ptr_emplaceIN12_GLOBAL__N_111CocoaLoggerENS_9allocatorIS2_EEE21__on_zero_shared_weakEv, symObjAddr: 0x6D0, symBinAddr: 0x4153C4, symSize: 0x4 }
  - { offset: 0x4CB160, size: 0x8, addend: 0x0, symName: __ZNSt3__120__shared_ptr_emplaceIN12_GLOBAL__N_111CocoaLoggerENS_9allocatorIS2_EEE21__on_zero_shared_weakEv, symObjAddr: 0x6D0, symBinAddr: 0x4153C4, symSize: 0x4 }
  - { offset: 0x4CB190, size: 0x8, addend: 0x0, symName: __ZNSt3__120__shared_ptr_emplaceIN12_GLOBAL__N_111CocoaLoggerENS_9allocatorIS2_EEE21__on_zero_shared_weakEv, symObjAddr: 0x6D0, symBinAddr: 0x4153C4, symSize: 0x4 }
  - { offset: 0x4CB1BA, size: 0x8, addend: 0x0, symName: __ZNSt3__120__shared_ptr_emplaceIN12_GLOBAL__N_111CocoaLoggerENS_9allocatorIS2_EEE21__on_zero_shared_weakEv, symObjAddr: 0x6D0, symBinAddr: 0x4153C4, symSize: 0x4 }
  - { offset: 0x4CB4E5, size: 0x8, addend: 0x0, symName: __ZN12_GLOBAL__N_111CocoaLoggerD1Ev, symObjAddr: 0x738, symBinAddr: 0x41542C, symSize: 0x3C }
  - { offset: 0x4CB5E2, size: 0x8, addend: 0x0, symName: __ZN12_GLOBAL__N_111CocoaLoggerD0Ev, symObjAddr: 0x774, symBinAddr: 0x415468, symSize: 0x3C }
  - { offset: 0x4CB7EA, size: 0x8, addend: 0x0, symName: __ZN12_GLOBAL__N_111CocoaLogger6do_logERKN5realm4util11LogCategoryENS3_5LevelERKNSt3__112basic_stringIcNS7_11char_traitsIcEENS7_9allocatorIcEEEE, symObjAddr: 0x7B0, symBinAddr: 0x4154A4, symSize: 0xCC }
  - { offset: 0x4CB993, size: 0x8, addend: 0x0, symName: __ZNSt3__120__shared_ptr_emplaceIN12_GLOBAL__N_112CustomLoggerENS_9allocatorIS2_EEED1Ev, symObjAddr: 0x884, symBinAddr: 0x415570, symSize: 0x10 }
  - { offset: 0x4CB9B7, size: 0x8, addend: 0x0, symName: __ZNSt3__120__shared_ptr_emplaceIN12_GLOBAL__N_112CustomLoggerENS_9allocatorIS2_EEED1Ev, symObjAddr: 0x884, symBinAddr: 0x415570, symSize: 0x10 }
  - { offset: 0x4CB9EE, size: 0x8, addend: 0x0, symName: __ZNSt3__120__shared_ptr_emplaceIN12_GLOBAL__N_112CustomLoggerENS_9allocatorIS2_EEED0Ev, symObjAddr: 0x894, symBinAddr: 0x415580, symSize: 0x20 }
  - { offset: 0x4CBAC1, size: 0x8, addend: 0x0, symName: __ZNSt3__120__shared_ptr_emplaceIN12_GLOBAL__N_112CustomLoggerENS_9allocatorIS2_EEE16__on_zero_sharedEv, symObjAddr: 0x8B4, symBinAddr: 0x4155A0, symSize: 0xC }
  - { offset: 0x4CBAEB, size: 0x8, addend: 0x0, symName: __ZNSt3__120__shared_ptr_emplaceIN12_GLOBAL__N_112CustomLoggerENS_9allocatorIS2_EEE16__on_zero_sharedEv, symObjAddr: 0x8B4, symBinAddr: 0x4155A0, symSize: 0xC }
  - { offset: 0x4CBB0B, size: 0x8, addend: 0x0, symName: __ZNSt3__120__shared_ptr_emplaceIN12_GLOBAL__N_112CustomLoggerENS_9allocatorIS2_EEE16__on_zero_sharedEv, symObjAddr: 0x8B4, symBinAddr: 0x4155A0, symSize: 0xC }
  - { offset: 0x4CBB2B, size: 0x8, addend: 0x0, symName: __ZNSt3__120__shared_ptr_emplaceIN12_GLOBAL__N_112CustomLoggerENS_9allocatorIS2_EEE16__on_zero_sharedEv, symObjAddr: 0x8B4, symBinAddr: 0x4155A0, symSize: 0xC }
  - { offset: 0x4CBBB4, size: 0x8, addend: 0x0, symName: __ZNSt3__120__shared_ptr_emplaceIN12_GLOBAL__N_112CustomLoggerENS_9allocatorIS2_EEE21__on_zero_shared_weakEv, symObjAddr: 0x8C0, symBinAddr: 0x4155AC, symSize: 0x4 }
  - { offset: 0x4CBBE9, size: 0x8, addend: 0x0, symName: __ZNSt3__120__shared_ptr_emplaceIN12_GLOBAL__N_112CustomLoggerENS_9allocatorIS2_EEE21__on_zero_shared_weakEv, symObjAddr: 0x8C0, symBinAddr: 0x4155AC, symSize: 0x4 }
  - { offset: 0x4CBC0E, size: 0x8, addend: 0x0, symName: __ZNSt3__120__shared_ptr_emplaceIN12_GLOBAL__N_112CustomLoggerENS_9allocatorIS2_EEE21__on_zero_shared_weakEv, symObjAddr: 0x8C0, symBinAddr: 0x4155AC, symSize: 0x4 }
  - { offset: 0x4CBC33, size: 0x8, addend: 0x0, symName: __ZNSt3__120__shared_ptr_emplaceIN12_GLOBAL__N_112CustomLoggerENS_9allocatorIS2_EEE21__on_zero_shared_weakEv, symObjAddr: 0x8C0, symBinAddr: 0x4155AC, symSize: 0x4 }
  - { offset: 0x4CBC62, size: 0x8, addend: 0x0, symName: __ZNSt3__120__shared_ptr_emplaceIN12_GLOBAL__N_112CustomLoggerENS_9allocatorIS2_EEE21__on_zero_shared_weakEv, symObjAddr: 0x8C0, symBinAddr: 0x4155AC, symSize: 0x4 }
  - { offset: 0x4CBC8B, size: 0x8, addend: 0x0, symName: __ZNSt3__120__shared_ptr_emplaceIN12_GLOBAL__N_112CustomLoggerENS_9allocatorIS2_EEE21__on_zero_shared_weakEv, symObjAddr: 0x8C0, symBinAddr: 0x4155AC, symSize: 0x4 }
  - { offset: 0x4CBCD3, size: 0x8, addend: 0x0, symName: __ZN12_GLOBAL__N_112CustomLoggerD1Ev, symObjAddr: 0x8C4, symBinAddr: 0x4155B0, symSize: 0x44 }
  - { offset: 0x4CBDD0, size: 0x8, addend: 0x0, symName: __ZN12_GLOBAL__N_112CustomLoggerD0Ev, symObjAddr: 0x908, symBinAddr: 0x4155F4, symSize: 0x44 }
  - { offset: 0x4CBED9, size: 0x8, addend: 0x0, symName: __ZN12_GLOBAL__N_112CustomLogger6do_logERKN5realm4util11LogCategoryENS3_5LevelERKNSt3__112basic_stringIcNS7_11char_traitsIcEENS7_9allocatorIcEEEE, symObjAddr: 0x94C, symBinAddr: 0x415638, symSize: 0xD4 }
  - { offset: 0x4CDEE4, size: 0x8, addend: 0x0, symName: '-[RLMManagedArrayHandoverMetadata parentClassName]', symObjAddr: 0x0, symBinAddr: 0x41570C, symSize: 0x8 }
  - { offset: 0x4D9014, size: 0x8, addend: 0x0, symName: __ZN5realm5_impl17assign_collectionIRU8__strongKP11objc_object18RLMAccessorContextEEvRT0_RNS_12object_store10CollectionERKNS_11PathElementENS_14CollectionTypeEOT_NS_12CreatePolicyE, symObjAddr: 0x52A4, symBinAddr: 0x41A960, symSize: 0x474 }
  - { offset: 0x527433, size: 0x8, addend: 0x0, symName: '-[RLMManagedArrayHandoverMetadata parentClassName]', symObjAddr: 0x0, symBinAddr: 0x41570C, symSize: 0x8 }
  - { offset: 0x52746A, size: 0x8, addend: 0x0, symName: '-[RLMManagedArrayHandoverMetadata setParentClassName:]', symObjAddr: 0x8, symBinAddr: 0x415714, symSize: 0xC }
  - { offset: 0x5274AB, size: 0x8, addend: 0x0, symName: '-[RLMManagedArrayHandoverMetadata key]', symObjAddr: 0x14, symBinAddr: 0x415720, symSize: 0x8 }
  - { offset: 0x5274E2, size: 0x8, addend: 0x0, symName: '-[RLMManagedArrayHandoverMetadata setKey:]', symObjAddr: 0x1C, symBinAddr: 0x415728, symSize: 0xC }
  - { offset: 0x527523, size: 0x8, addend: 0x0, symName: '-[RLMManagedArrayHandoverMetadata .cxx_destruct]', symObjAddr: 0x28, symBinAddr: 0x415734, symSize: 0x30 }
  - { offset: 0x5275AA, size: 0x8, addend: 0x0, symName: '-[RLMManagedArray initWithBackingCollection:parentInfo:property:]', symObjAddr: 0x58, symBinAddr: 0x415764, symSize: 0x188 }
  - { offset: 0x52784A, size: 0x8, addend: 0x0, symName: '-[RLMManagedArray initWithParent:property:parentInfo:]', symObjAddr: 0x1E0, symBinAddr: 0x4158EC, symSize: 0x124 }
  - { offset: 0x527B77, size: 0x8, addend: 0x0, symName: '-[RLMManagedArray initWithParent:property:]', symObjAddr: 0x304, symBinAddr: 0x415A10, symSize: 0x3C }
  - { offset: 0x527BCE, size: 0x8, addend: 0x0, symName: __Z30RLMValidateArrayObservationKeyP8NSStringP8RLMArray, symObjAddr: 0x340, symBinAddr: 0x415A4C, symSize: 0x68 }
  - { offset: 0x527CB6, size: 0x8, addend: 0x0, symName: __Z29RLMEnsureArrayObservationInfoRNSt3__110unique_ptrI18RLMObservationInfoNS_14default_deleteIS1_EEEEP8NSStringP8RLMArrayP11objc_object, symObjAddr: 0x3A8, symBinAddr: 0x415AB4, symSize: 0xF8 }
  - { offset: 0x527DCB, size: 0x8, addend: 0x0, symName: __ZNSt3__110unique_ptrI18RLMObservationInfoNS_14default_deleteIS1_EEE5resetB8ne180100EPS1_, symObjAddr: 0x5718, symBinAddr: 0x41ADD4, symSize: 0x2C }
  - { offset: 0x527E4F, size: 0x8, addend: 0x0, symName: '-[RLMManagedArray realm]', symObjAddr: 0x4A0, symBinAddr: 0x415BAC, symSize: 0x10 }
  - { offset: 0x527E86, size: 0x8, addend: 0x0, symName: '-[RLMManagedArray count]', symObjAddr: 0x4B0, symBinAddr: 0x415BBC, symSize: 0x50 }
  - { offset: 0x527FD5, size: 0x8, addend: 0x0, symName: '-[RLMManagedArray isInvalidated]', symObjAddr: 0x500, symBinAddr: 0x415C0C, symSize: 0x54 }
  - { offset: 0x528101, size: 0x8, addend: 0x0, symName: '-[RLMManagedArray objectInfo]', symObjAddr: 0x554, symBinAddr: 0x415C60, symSize: 0x10 }
  - { offset: 0x528138, size: 0x8, addend: 0x0, symName: '-[RLMManagedArray isBackedByList:]', symObjAddr: 0x564, symBinAddr: 0x415C70, symSize: 0x14 }
  - { offset: 0x52817F, size: 0x8, addend: 0x0, symName: '-[RLMManagedArray isEqual:]', symObjAddr: 0x578, symBinAddr: 0x415C84, symSize: 0x78 }
  - { offset: 0x5281C6, size: 0x8, addend: 0x0, symName: '-[RLMManagedArray hash]', symObjAddr: 0x5F0, symBinAddr: 0x415CFC, symSize: 0x2C }
  - { offset: 0x5281FD, size: 0x8, addend: 0x0, symName: '-[RLMManagedArray countByEnumeratingWithState:objects:count:]', symObjAddr: 0x61C, symBinAddr: 0x415D28, symSize: 0x14 }
  - { offset: 0x528260, size: 0x8, addend: 0x0, symName: '-[RLMManagedArray objectAtIndex:]', symObjAddr: 0x630, symBinAddr: 0x415D3C, symSize: 0xEC }
  - { offset: 0x5293F4, size: 0x8, addend: 0x0, symName: '-[RLMManagedArray addObject:]', symObjAddr: 0x71C, symBinAddr: 0x415E28, symSize: 0xC }
  - { offset: 0x529443, size: 0x8, addend: 0x0, symName: __ZL15RLMInsertObjectP15RLMManagedArrayP11objc_objectm, symObjAddr: 0x728, symBinAddr: 0x415E34, symSize: 0x150 }
  - { offset: 0x5295C1, size: 0x8, addend: 0x0, symName: __ZL11changeArrayP15RLMManagedArray16NSKeyValueChangemU13block_pointerFvvE, symObjAddr: 0x1408, symBinAddr: 0x416B14, symSize: 0x1D4 }
  - { offset: 0x52991E, size: 0x8, addend: 0x0, symName: '-[RLMManagedArray insertObject:atIndex:]', symObjAddr: 0x878, symBinAddr: 0x415F84, symSize: 0xC }
  - { offset: 0x52997D, size: 0x8, addend: 0x0, symName: '-[RLMManagedArray insertObjects:atIndexes:]', symObjAddr: 0x884, symBinAddr: 0x415F90, symSize: 0xF4 }
  - { offset: 0x5299DE, size: 0x8, addend: 0x0, symName: __ZL11changeArrayP15RLMManagedArray16NSKeyValueChangeP10NSIndexSetU13block_pointerFvvE, symObjAddr: 0x978, symBinAddr: 0x416084, symSize: 0x1E0 }
  - { offset: 0x52A0BF, size: 0x8, addend: 0x0, symName: __ZL24translateCollectionErrorIRU8__strongU13block_pointerFvvEEDaOT_P8NSString, symObjAddr: 0x50C4, symBinAddr: 0x41A7D0, symSize: 0x48 }
  - { offset: 0x52A11A, size: 0x8, addend: 0x0, symName: '___43-[RLMManagedArray insertObjects:atIndexes:]_block_invoke', symObjAddr: 0xB58, symBinAddr: 0x416264, symSize: 0x1DC }
  - { offset: 0x52A403, size: 0x8, addend: 0x0, symName: __ZN5realm4List6insertIRU8__strongKP11objc_object18RLMAccessorContextEEvRT0_mOT_NS_12CreatePolicyE, symObjAddr: 0xD34, symBinAddr: 0x416440, symSize: 0x67C }
  - { offset: 0x52BE2F, size: 0x8, addend: 0x0, symName: __ZNK5realm12object_store10Collection17validate_embeddedIRU8__strongKP11objc_object18RLMAccessorContextEEvRT0_OT_NS_12CreatePolicyE, symObjAddr: 0x515C, symBinAddr: 0x41A818, symSize: 0x148 }
  - { offset: 0x52C239, size: 0x8, addend: 0x0, symName: '-[RLMManagedArray removeObjectAtIndex:]', symObjAddr: 0x13B0, symBinAddr: 0x416ABC, symSize: 0x58 }
  - { offset: 0x52C3C5, size: 0x8, addend: 0x0, symName: '___39-[RLMManagedArray removeObjectAtIndex:]_block_invoke', symObjAddr: 0x15DC, symBinAddr: 0x416CE8, symSize: 0x14 }
  - { offset: 0x52C414, size: 0x8, addend: 0x0, symName: '-[RLMManagedArray removeObjectsAtIndexes:]', symObjAddr: 0x15F0, symBinAddr: 0x416CFC, symSize: 0xA4 }
  - { offset: 0x52C465, size: 0x8, addend: 0x0, symName: '___42-[RLMManagedArray removeObjectsAtIndexes:]_block_invoke', symObjAddr: 0x1694, symBinAddr: 0x416DA0, symSize: 0x60 }
  - { offset: 0x52C4B4, size: 0x8, addend: 0x0, symName: '___42-[RLMManagedArray removeObjectsAtIndexes:]_block_invoke_2', symObjAddr: 0x16F4, symBinAddr: 0x416E00, symSize: 0x14 }
  - { offset: 0x52C509, size: 0x8, addend: 0x0, symName: '-[RLMManagedArray addObjectsFromArray:]', symObjAddr: 0x1708, symBinAddr: 0x416E14, symSize: 0xE4 }
  - { offset: 0x52C55A, size: 0x8, addend: 0x0, symName: __ZL11changeArrayP15RLMManagedArray16NSKeyValueChange8_NSRangeU13block_pointerFvvE, symObjAddr: 0x17EC, symBinAddr: 0x416EF8, symSize: 0x1E4 }
  - { offset: 0x52D2F8, size: 0x8, addend: 0x0, symName: '___39-[RLMManagedArray addObjectsFromArray:]_block_invoke', symObjAddr: 0x19D0, symBinAddr: 0x4170DC, symSize: 0x578 }
  - { offset: 0x52E1B8, size: 0x8, addend: 0x0, symName: '-[RLMManagedArray removeAllObjects]', symObjAddr: 0x1F48, symBinAddr: 0x417654, symSize: 0x74 }
  - { offset: 0x52E1FA, size: 0x8, addend: 0x0, symName: '___35-[RLMManagedArray removeAllObjects]_block_invoke', symObjAddr: 0x1FBC, symBinAddr: 0x4176C8, symSize: 0x14 }
  - { offset: 0x52E23B, size: 0x8, addend: 0x0, symName: '-[RLMManagedArray replaceAllObjectsWithObjects:]', symObjAddr: 0x1FD0, symBinAddr: 0x4176DC, symSize: 0x148 }
  - { offset: 0x52E2B2, size: 0x8, addend: 0x0, symName: '___48-[RLMManagedArray replaceAllObjectsWithObjects:]_block_invoke', symObjAddr: 0x2118, symBinAddr: 0x417824, symSize: 0x14 }
  - { offset: 0x52E4B8, size: 0x8, addend: 0x0, symName: '___48-[RLMManagedArray replaceAllObjectsWithObjects:]_block_invoke_2', symObjAddr: 0x212C, symBinAddr: 0x417838, symSize: 0x2F0 }
  - { offset: 0x52E871, size: 0x8, addend: 0x0, symName: '-[RLMManagedArray replaceObjectAtIndex:withObject:]', symObjAddr: 0x241C, symBinAddr: 0x417B28, symSize: 0xD4 }
  - { offset: 0x52F716, size: 0x8, addend: 0x0, symName: '___51-[RLMManagedArray replaceObjectAtIndex:withObject:]_block_invoke', symObjAddr: 0x24F0, symBinAddr: 0x417BFC, symSize: 0xA54 }
  - { offset: 0x531295, size: 0x8, addend: 0x0, symName: '-[RLMManagedArray moveObjectAtIndex:toIndex:]', symObjAddr: 0x2F44, symBinAddr: 0x418650, symSize: 0x7C }
  - { offset: 0x531317, size: 0x8, addend: 0x0, symName: '___45-[RLMManagedArray moveObjectAtIndex:toIndex:]_block_invoke', symObjAddr: 0x2FC0, symBinAddr: 0x4186CC, symSize: 0x1C }
  - { offset: 0x531484, size: 0x8, addend: 0x0, symName: '-[RLMManagedArray exchangeObjectAtIndex:withObjectAtIndex:]', symObjAddr: 0x2FDC, symBinAddr: 0x4186E8, symSize: 0x1FC }
  - { offset: 0x531833, size: 0x8, addend: 0x0, symName: '___59-[RLMManagedArray exchangeObjectAtIndex:withObjectAtIndex:]_block_invoke', symObjAddr: 0x31D8, symBinAddr: 0x4188E4, symSize: 0x1C }
  - { offset: 0x531894, size: 0x8, addend: 0x0, symName: '-[RLMManagedArray indexOfObject:]', symObjAddr: 0x31F4, symBinAddr: 0x418900, symSize: 0x3DC }
  - { offset: 0x5328C2, size: 0x8, addend: 0x0, symName: '-[RLMManagedArray valueForKeyPath:]', symObjAddr: 0x35D0, symBinAddr: 0x418CDC, symSize: 0x158 }
  - { offset: 0x532AD1, size: 0x8, addend: 0x0, symName: '-[RLMManagedArray valueForKey:]', symObjAddr: 0x3728, symBinAddr: 0x418E34, symSize: 0xE8 }
  - { offset: 0x532C58, size: 0x8, addend: 0x0, symName: '-[RLMManagedArray setValue:forKey:]', symObjAddr: 0x3810, symBinAddr: 0x418F1C, symSize: 0x1EC }
  - { offset: 0x533110, size: 0x8, addend: 0x0, symName: '-[RLMManagedArray minOfProperty:]', symObjAddr: 0x39FC, symBinAddr: 0x419108, symSize: 0x10C }
  - { offset: 0x533541, size: 0x8, addend: 0x0, symName: '-[RLMManagedArray maxOfProperty:]', symObjAddr: 0x3B08, symBinAddr: 0x419214, symSize: 0x10C }
  - { offset: 0x5337FC, size: 0x8, addend: 0x0, symName: '-[RLMManagedArray sumOfProperty:]', symObjAddr: 0x3C14, symBinAddr: 0x419320, symSize: 0xFC }
  - { offset: 0x533A63, size: 0x8, addend: 0x0, symName: '-[RLMManagedArray averageOfProperty:]', symObjAddr: 0x3D10, symBinAddr: 0x41941C, symSize: 0x10C }
  - { offset: 0x533D1F, size: 0x8, addend: 0x0, symName: '-[RLMManagedArray deleteObjectsFromRealm]', symObjAddr: 0x3E1C, symBinAddr: 0x419528, symSize: 0xE4 }
  - { offset: 0x533EEF, size: 0x8, addend: 0x0, symName: __ZL15RLMTypeToString15RLMPropertyType, symObjAddr: 0x3F00, symBinAddr: 0x41960C, symSize: 0x24 }
  - { offset: 0x533F1E, size: 0x8, addend: 0x0, symName: '-[RLMManagedArray sortedResultsUsingDescriptors:]', symObjAddr: 0x3F24, symBinAddr: 0x419630, symSize: 0x114 }
  - { offset: 0x53423C, size: 0x8, addend: 0x0, symName: '-[RLMManagedArray distinctResultsUsingKeyPaths:]', symObjAddr: 0x4038, symBinAddr: 0x419744, symSize: 0x110 }
  - { offset: 0x534399, size: 0x8, addend: 0x0, symName: '-[RLMManagedArray objectsWithPredicate:]', symObjAddr: 0x4148, symBinAddr: 0x419854, symSize: 0x1B0 }
  - { offset: 0x53450E, size: 0x8, addend: 0x0, symName: '-[RLMManagedArray indexOfObjectWithPredicate:]', symObjAddr: 0x42F8, symBinAddr: 0x419A04, symSize: 0x14C }
  - { offset: 0x53469A, size: 0x8, addend: 0x0, symName: '-[RLMManagedArray objectsAtIndexes:]', symObjAddr: 0x4444, symBinAddr: 0x419B50, symSize: 0x1B0 }
  - { offset: 0x534950, size: 0x8, addend: 0x0, symName: '-[RLMManagedArray sectionedResultsSortedUsingKeyPath:ascending:keyBlock:]', symObjAddr: 0x45F4, symBinAddr: 0x419D00, symSize: 0xD4 }
  - { offset: 0x5349B8, size: 0x8, addend: 0x0, symName: '-[RLMManagedArray sectionedResultsUsingSortDescriptors:keyBlock:]', symObjAddr: 0x46C8, symBinAddr: 0x419DD4, symSize: 0xC4 }
  - { offset: 0x534A10, size: 0x8, addend: 0x0, symName: '-[RLMManagedArray addObserver:forKeyPath:options:context:]', symObjAddr: 0x478C, symBinAddr: 0x419E98, symSize: 0xCC }
  - { offset: 0x534A92, size: 0x8, addend: 0x0, symName: '-[RLMManagedArray tableView]', symObjAddr: 0x4858, symBinAddr: 0x419F64, symSize: 0x88 }
  - { offset: 0x534BC3, size: 0x8, addend: 0x0, symName: '-[RLMManagedArray fastEnumerator]', symObjAddr: 0x48E0, symBinAddr: 0x419FEC, symSize: 0x80 }
  - { offset: 0x534D0B, size: 0x8, addend: 0x0, symName: '-[RLMManagedArray isFrozen]', symObjAddr: 0x4960, symBinAddr: 0x41A06C, symSize: 0x10 }
  - { offset: 0x534D43, size: 0x8, addend: 0x0, symName: '-[RLMManagedArray resolveInRealm:]', symObjAddr: 0x4970, symBinAddr: 0x41A07C, symSize: 0x15C }
  - { offset: 0x534F27, size: 0x8, addend: 0x0, symName: '-[RLMManagedArray freeze]', symObjAddr: 0x4ACC, symBinAddr: 0x41A1D8, symSize: 0x80 }
  - { offset: 0x534F5F, size: 0x8, addend: 0x0, symName: '-[RLMManagedArray thaw]', symObjAddr: 0x4B4C, symBinAddr: 0x41A258, symSize: 0x88 }
  - { offset: 0x53536F, size: 0x8, addend: 0x0, symName: '-[RLMManagedArray addNotificationCallback:keyPaths:]', symObjAddr: 0x4BD4, symBinAddr: 0x41A2E0, symSize: 0x108 }
  - { offset: 0x535AA6, size: 0x8, addend: 0x0, symName: '-[RLMManagedArray makeThreadSafeReference]', symObjAddr: 0x4CDC, symBinAddr: 0x41A3E8, symSize: 0x14 }
  - { offset: 0x535ADE, size: 0x8, addend: 0x0, symName: '-[RLMManagedArray objectiveCMetadata]', symObjAddr: 0x4CF0, symBinAddr: 0x41A3FC, symSize: 0xC0 }
  - { offset: 0x535B26, size: 0x8, addend: 0x0, symName: '+[RLMManagedArray objectWithThreadSafeReference:metadata:realm:]', symObjAddr: 0x4DB0, symBinAddr: 0x41A4BC, symSize: 0x1A8 }
  - { offset: 0x535CDF, size: 0x8, addend: 0x0, symName: '-[RLMManagedArray .cxx_destruct]', symObjAddr: 0x4F58, symBinAddr: 0x41A664, symSize: 0x50 }
  - { offset: 0x535EC8, size: 0x8, addend: 0x0, symName: '-[RLMManagedArray .cxx_construct]', symObjAddr: 0x4FA8, symBinAddr: 0x41A6B4, symSize: 0x50 }
  - { offset: 0x535FA8, size: 0x8, addend: 0x0, symName: ____ZL15RLMInsertObjectP15RLMManagedArrayP11objc_objectm_block_invoke, symObjAddr: 0x4FF8, symBinAddr: 0x41A704, symSize: 0xCC }
  - { offset: 0x53909E, size: 0x8, addend: 0x0, symName: '-[RLMDictionaryChange initWithChanges:]', symObjAddr: 0x0, symBinAddr: 0x41AE00, symSize: 0x7C }
  - { offset: 0x58CDC0, size: 0x8, addend: 0x0, symName: '-[RLMDictionaryChange initWithChanges:]', symObjAddr: 0x0, symBinAddr: 0x41AE00, symSize: 0x7C }
  - { offset: 0x58CE07, size: 0x8, addend: 0x0, symName: '-[RLMDictionaryChange insertions]', symObjAddr: 0x7C, symBinAddr: 0x41AE7C, symSize: 0x8 }
  - { offset: 0x58CE4C, size: 0x8, addend: 0x0, symName: __ZL7toArrayRKNSt3__16vectorIN5realm5MixedENS_9allocatorIS2_EEEE, symObjAddr: 0x84, symBinAddr: 0x41AE84, symSize: 0x108 }
  - { offset: 0x58D1B0, size: 0x8, addend: 0x0, symName: '-[RLMDictionaryChange deletions]', symObjAddr: 0x18C, symBinAddr: 0x41AF8C, symSize: 0x8 }
  - { offset: 0x58D1F5, size: 0x8, addend: 0x0, symName: '-[RLMDictionaryChange modifications]', symObjAddr: 0x194, symBinAddr: 0x41AF94, symSize: 0x8 }
  - { offset: 0x58D23A, size: 0x8, addend: 0x0, symName: '-[RLMDictionaryChange description]', symObjAddr: 0x19C, symBinAddr: 0x41AF9C, symSize: 0xE8 }
  - { offset: 0x58D436, size: 0x8, addend: 0x0, symName: '-[RLMDictionaryChange .cxx_destruct]', symObjAddr: 0x284, symBinAddr: 0x41B084, symSize: 0x64 }
  - { offset: 0x58D9BF, size: 0x8, addend: 0x0, symName: '-[RLMDictionaryChange .cxx_construct]', symObjAddr: 0x2E8, symBinAddr: 0x41B0E8, symSize: 0xAC }
  - { offset: 0x58E008, size: 0x8, addend: 0x0, symName: '-[RLMManagedCollectionHandoverMetadata parentClassName]', symObjAddr: 0x394, symBinAddr: 0x41B194, symSize: 0x8 }
  - { offset: 0x58E03F, size: 0x8, addend: 0x0, symName: '-[RLMManagedCollectionHandoverMetadata setParentClassName:]', symObjAddr: 0x39C, symBinAddr: 0x41B19C, symSize: 0xC }
  - { offset: 0x58E080, size: 0x8, addend: 0x0, symName: '-[RLMManagedCollectionHandoverMetadata key]', symObjAddr: 0x3A8, symBinAddr: 0x41B1A8, symSize: 0x8 }
  - { offset: 0x58E0B7, size: 0x8, addend: 0x0, symName: '-[RLMManagedCollectionHandoverMetadata setKey:]', symObjAddr: 0x3B0, symBinAddr: 0x41B1B0, symSize: 0xC }
  - { offset: 0x58E0F8, size: 0x8, addend: 0x0, symName: '-[RLMManagedCollectionHandoverMetadata .cxx_destruct]', symObjAddr: 0x3BC, symBinAddr: 0x41B1BC, symSize: 0x30 }
  - { offset: 0x58E1AD, size: 0x8, addend: 0x0, symName: '-[RLMManagedDictionary initWithBackingCollection:parentInfo:property:]', symObjAddr: 0x3EC, symBinAddr: 0x41B1EC, symSize: 0x1E8 }
  - { offset: 0x58E46E, size: 0x8, addend: 0x0, symName: '-[RLMManagedDictionary initWithParent:property:parentInfo:]', symObjAddr: 0x5D4, symBinAddr: 0x41B3D4, symSize: 0x124 }
  - { offset: 0x58E79C, size: 0x8, addend: 0x0, symName: '-[RLMManagedDictionary initWithParent:property:]', symObjAddr: 0x6F8, symBinAddr: 0x41B4F8, symSize: 0x3C }
  - { offset: 0x58E7F3, size: 0x8, addend: 0x0, symName: __Z35RLMDictionaryValidateObservationKeyP8NSStringP13RLMDictionary, symObjAddr: 0x734, symBinAddr: 0x41B534, symSize: 0x68 }
  - { offset: 0x58E8DB, size: 0x8, addend: 0x0, symName: __Z34RLMEnsureDictionaryObservationInfoRNSt3__110unique_ptrI18RLMObservationInfoNS_14default_deleteIS1_EEEEP8NSStringP13RLMDictionaryP11objc_object, symObjAddr: 0x79C, symBinAddr: 0x41B59C, symSize: 0xF8 }
  - { offset: 0x58E9E2, size: 0x8, addend: 0x0, symName: '-[RLMManagedDictionary realm]', symObjAddr: 0x894, symBinAddr: 0x41B694, symSize: 0x10 }
  - { offset: 0x58EA19, size: 0x8, addend: 0x0, symName: '-[RLMManagedDictionary count]', symObjAddr: 0x8A4, symBinAddr: 0x41B6A4, symSize: 0x50 }
  - { offset: 0x58EB68, size: 0x8, addend: 0x0, symName: '-[RLMManagedDictionary allKeys]', symObjAddr: 0x8F4, symBinAddr: 0x41B6F4, symSize: 0xA4 }
  - { offset: 0x58EC9F, size: 0x8, addend: 0x0, symName: __ZL14resultsToArrayR12RLMClassInfoN5realm7ResultsE, symObjAddr: 0x5144, symBinAddr: 0x41FE94, symSize: 0x120 }
  - { offset: 0x58EEF8, size: 0x8, addend: 0x0, symName: '-[RLMManagedDictionary allValues]', symObjAddr: 0x998, symBinAddr: 0x41B798, symSize: 0xA4 }
  - { offset: 0x58F02A, size: 0x8, addend: 0x0, symName: '-[RLMManagedDictionary isInvalidated]', symObjAddr: 0xA3C, symBinAddr: 0x41B83C, symSize: 0x54 }
  - { offset: 0x58F156, size: 0x8, addend: 0x0, symName: '-[RLMManagedDictionary objectInfo]', symObjAddr: 0xA90, symBinAddr: 0x41B890, symSize: 0x10 }
  - { offset: 0x58F18D, size: 0x8, addend: 0x0, symName: '-[RLMManagedDictionary isBackedByDictionary:]', symObjAddr: 0xAA0, symBinAddr: 0x41B8A0, symSize: 0x14 }
  - { offset: 0x58F1D4, size: 0x8, addend: 0x0, symName: '-[RLMManagedDictionary isEqual:]', symObjAddr: 0xAB4, symBinAddr: 0x41B8B4, symSize: 0x78 }
  - { offset: 0x58F21B, size: 0x8, addend: 0x0, symName: '-[RLMManagedDictionary countByEnumeratingWithState:objects:count:]', symObjAddr: 0xB2C, symBinAddr: 0x41B92C, symSize: 0x14 }
  - { offset: 0x58F27E, size: 0x8, addend: 0x0, symName: '-[RLMManagedDictionary objectForKey:]', symObjAddr: 0xB40, symBinAddr: 0x41B940, symSize: 0x2B0 }
  - { offset: 0x590906, size: 0x8, addend: 0x0, symName: '-[RLMManagedDictionary setObject:forKey:]', symObjAddr: 0xDF0, symBinAddr: 0x41BBF0, symSize: 0xEC }
  - { offset: 0x590968, size: 0x8, addend: 0x0, symName: __ZL16changeDictionaryP20RLMManagedDictionaryU13block_pointerFvvE, symObjAddr: 0xEDC, symBinAddr: 0x41BCDC, symSize: 0x1B0 }
  - { offset: 0x590F40, size: 0x8, addend: 0x0, symName: '___41-[RLMManagedDictionary setObject:forKey:]_block_invoke', symObjAddr: 0x108C, symBinAddr: 0x41BE8C, symSize: 0x14C }
  - { offset: 0x591286, size: 0x8, addend: 0x0, symName: __ZN5realm12object_store10Dictionary6insertIU8__strongP11objc_object18RLMAccessorContextEEvRT0_NS_10StringDataEOT_NS_12CreatePolicyE, symObjAddr: 0x11D8, symBinAddr: 0x41BFD8, symSize: 0x12A8 }
  - { offset: 0x5965CE, size: 0x8, addend: 0x0, symName: '-[RLMManagedDictionary removeAllObjects]', symObjAddr: 0x2480, symBinAddr: 0x41D280, symSize: 0x54 }
  - { offset: 0x596610, size: 0x8, addend: 0x0, symName: '___40-[RLMManagedDictionary removeAllObjects]_block_invoke', symObjAddr: 0x24D4, symBinAddr: 0x41D2D4, symSize: 0x14 }
  - { offset: 0x596651, size: 0x8, addend: 0x0, symName: '-[RLMManagedDictionary removeObjectsForKeys:]', symObjAddr: 0x24E8, symBinAddr: 0x41D2E8, symSize: 0x110 }
  - { offset: 0x59695C, size: 0x8, addend: 0x0, symName: '___45-[RLMManagedDictionary removeObjectsForKeys:]_block_invoke', symObjAddr: 0x25F8, symBinAddr: 0x41D3F8, symSize: 0x150 }
  - { offset: 0x5969EE, size: 0x8, addend: 0x0, symName: '___copy_helper_block_ea8_32c59_ZTSKZ45-[RLMManagedDictionary removeObjectsForKeys:]E4$_18', symObjAddr: 0x2748, symBinAddr: 0x41D548, symSize: 0x14 }
  - { offset: 0x596A13, size: 0x8, addend: 0x0, symName: ___destroy_helper_block_ea8_32, symObjAddr: 0x275C, symBinAddr: 0x41D55C, symSize: 0x4 }
  - { offset: 0x596A2E, size: 0x8, addend: 0x0, symName: '-[RLMManagedDictionary removeObjectForKey:]', symObjAddr: 0x2760, symBinAddr: 0x41D560, symSize: 0x9C }
  - { offset: 0x596A80, size: 0x8, addend: 0x0, symName: '___43-[RLMManagedDictionary removeObjectForKey:]_block_invoke', symObjAddr: 0x27FC, symBinAddr: 0x41D5FC, symSize: 0xD0 }
  - { offset: 0x597B0F, size: 0x8, addend: 0x0, symName: '-[RLMManagedDictionary enumerateKeysAndObjectsUsingBlock:]', symObjAddr: 0x28CC, symBinAddr: 0x41D6CC, symSize: 0xA84 }
  - { offset: 0x599258, size: 0x8, addend: 0x0, symName: __ZNK5realm12object_store10Dictionary3getINS_5MixedEEET_NS_10StringDataE, symObjAddr: 0x5264, symBinAddr: 0x41FFB4, symSize: 0x70 }
  - { offset: 0x599363, size: 0x8, addend: 0x0, symName: '-[RLMManagedDictionary mergeDictionary:clear:]', symObjAddr: 0x3350, symBinAddr: 0x41E150, symSize: 0x148 }
  - { offset: 0x5993D0, size: 0x8, addend: 0x0, symName: '___46-[RLMManagedDictionary mergeDictionary:clear:]_block_invoke', symObjAddr: 0x3498, symBinAddr: 0x41E298, symSize: 0x10C }
  - { offset: 0x59970C, size: 0x8, addend: 0x0, symName: '___46-[RLMManagedDictionary mergeDictionary:clear:]_block_invoke_2', symObjAddr: 0x35A4, symBinAddr: 0x41E3A4, symSize: 0x124 }
  - { offset: 0x5997F2, size: 0x8, addend: 0x0, symName: '___copy_helper_block_ea8_32c65_ZTSKZZ46-[RLMManagedDictionary mergeDictionary:clear:]EUb_E4$_19', symObjAddr: 0x36C8, symBinAddr: 0x41E4C8, symSize: 0xC }
  - { offset: 0x599817, size: 0x8, addend: 0x0, symName: '-[RLMManagedDictionary setDictionary:]', symObjAddr: 0x36D4, symBinAddr: 0x41E4D4, symSize: 0x58 }
  - { offset: 0x599869, size: 0x8, addend: 0x0, symName: __ZL14RLMCoerceToNilP11objc_object, symObjAddr: 0x372C, symBinAddr: 0x41E52C, symSize: 0xBC }
  - { offset: 0x599900, size: 0x8, addend: 0x0, symName: '-[RLMManagedDictionary addEntriesFromDictionary:]', symObjAddr: 0x37E8, symBinAddr: 0x41E5E8, symSize: 0x8 }
  - { offset: 0x599941, size: 0x8, addend: 0x0, symName: '-[RLMManagedDictionary valueForKeyPath:]', symObjAddr: 0x37F0, symBinAddr: 0x41E5F0, symSize: 0x158 }
  - { offset: 0x599B50, size: 0x8, addend: 0x0, symName: '-[RLMManagedDictionary valueForKey:]', symObjAddr: 0x3948, symBinAddr: 0x41E748, symSize: 0xAC }
  - { offset: 0x599B98, size: 0x8, addend: 0x0, symName: '-[RLMManagedDictionary setValue:forKey:]', symObjAddr: 0x39F4, symBinAddr: 0x41E7F4, symSize: 0x4 }
  - { offset: 0x599BE8, size: 0x8, addend: 0x0, symName: '-[RLMManagedDictionary minOfProperty:]', symObjAddr: 0x39F8, symBinAddr: 0x41E7F8, symSize: 0x144 }
  - { offset: 0x599EC7, size: 0x8, addend: 0x0, symName: '-[RLMManagedDictionary maxOfProperty:]', symObjAddr: 0x3B3C, symBinAddr: 0x41E93C, symSize: 0x144 }
  - { offset: 0x59A17A, size: 0x8, addend: 0x0, symName: '-[RLMManagedDictionary sumOfProperty:]', symObjAddr: 0x3C80, symBinAddr: 0x41EA80, symSize: 0x15C }
  - { offset: 0x59A42E, size: 0x8, addend: 0x0, symName: '-[RLMManagedDictionary averageOfProperty:]', symObjAddr: 0x3DDC, symBinAddr: 0x41EBDC, symSize: 0x144 }
  - { offset: 0x59A6E2, size: 0x8, addend: 0x0, symName: '-[RLMManagedDictionary deleteObjectsFromRealm]', symObjAddr: 0x3F20, symBinAddr: 0x41ED20, symSize: 0x208 }
  - { offset: 0x59AACE, size: 0x8, addend: 0x0, symName: __ZL15RLMTypeToString15RLMPropertyType, symObjAddr: 0x4128, symBinAddr: 0x41EF28, symSize: 0x24 }
  - { offset: 0x59AAFD, size: 0x8, addend: 0x0, symName: '-[RLMManagedDictionary sortedResultsUsingDescriptors:]', symObjAddr: 0x414C, symBinAddr: 0x41EF4C, symSize: 0x13C }
  - { offset: 0x59AE14, size: 0x8, addend: 0x0, symName: '-[RLMManagedDictionary sortedResultsUsingKeyPath:ascending:]', symObjAddr: 0x4288, symBinAddr: 0x41F088, symSize: 0x11C }
  - { offset: 0x59AE6C, size: 0x8, addend: 0x0, symName: '-[RLMManagedDictionary distinctResultsUsingKeyPaths:]', symObjAddr: 0x43A4, symBinAddr: 0x41F1A4, symSize: 0x110 }
  - { offset: 0x59AFC9, size: 0x8, addend: 0x0, symName: '-[RLMManagedDictionary objectsWithPredicate:]', symObjAddr: 0x44B4, symBinAddr: 0x41F2B4, symSize: 0x1B8 }
  - { offset: 0x59B13E, size: 0x8, addend: 0x0, symName: '-[RLMManagedDictionary addObserver:forKeyPath:options:context:]', symObjAddr: 0x466C, symBinAddr: 0x41F46C, symSize: 0xCC }
  - { offset: 0x59B1C0, size: 0x8, addend: 0x0, symName: '-[RLMManagedDictionary tableView]', symObjAddr: 0x4738, symBinAddr: 0x41F538, symSize: 0xB4 }
  - { offset: 0x59B2E9, size: 0x8, addend: 0x0, symName: '-[RLMManagedDictionary fastEnumerator]', symObjAddr: 0x47EC, symBinAddr: 0x41F5EC, symSize: 0x88 }
  - { offset: 0x59B41F, size: 0x8, addend: 0x0, symName: '-[RLMManagedDictionary isFrozen]', symObjAddr: 0x4874, symBinAddr: 0x41F674, symSize: 0x10 }
  - { offset: 0x59B457, size: 0x8, addend: 0x0, symName: '-[RLMManagedDictionary resolveInRealm:]', symObjAddr: 0x4884, symBinAddr: 0x41F684, symSize: 0x164 }
  - { offset: 0x59B63B, size: 0x8, addend: 0x0, symName: '-[RLMManagedDictionary freeze]', symObjAddr: 0x49E8, symBinAddr: 0x41F7E8, symSize: 0x80 }
  - { offset: 0x59B673, size: 0x8, addend: 0x0, symName: '-[RLMManagedDictionary thaw]', symObjAddr: 0x4A68, symBinAddr: 0x41F868, symSize: 0x88 }
  - { offset: 0x59BF38, size: 0x8, addend: 0x0, symName: '-[RLMManagedDictionary addNotificationCallback:keyPaths:]', symObjAddr: 0x4AF0, symBinAddr: 0x41F8F0, symSize: 0x224 }
  - { offset: 0x59C9EF, size: 0x8, addend: 0x0, symName: __ZN12_GLOBAL__N_125DictionaryCallbackWrapperD1Ev, symObjAddr: 0x4D14, symBinAddr: 0x41FB14, symSize: 0x38 }
  - { offset: 0x59CAAC, size: 0x8, addend: 0x0, symName: '-[RLMManagedDictionary makeThreadSafeReference]', symObjAddr: 0x4D4C, symBinAddr: 0x41FB4C, symSize: 0x14 }
  - { offset: 0x59CAE4, size: 0x8, addend: 0x0, symName: '-[RLMManagedDictionary objectiveCMetadata]', symObjAddr: 0x4D60, symBinAddr: 0x41FB60, symSize: 0xC8 }
  - { offset: 0x59CB6E, size: 0x8, addend: 0x0, symName: '+[RLMManagedDictionary objectWithThreadSafeReference:metadata:realm:]', symObjAddr: 0x4E28, symBinAddr: 0x41FC28, symSize: 0x1B8 }
  - { offset: 0x59CD7A, size: 0x8, addend: 0x0, symName: '-[RLMManagedDictionary .cxx_destruct]', symObjAddr: 0x4FE0, symBinAddr: 0x41FDE0, symSize: 0x64 }
  - { offset: 0x59CF55, size: 0x8, addend: 0x0, symName: '-[RLMManagedDictionary .cxx_construct]', symObjAddr: 0x5044, symBinAddr: 0x41FE44, symSize: 0x50 }
  - { offset: 0x59D277, size: 0x8, addend: 0x0, symName: __ZN5realm4util14UniqueFunctionIFvNS_19DictionaryChangeSetEEE12SpecificImplIN12_GLOBAL__N_125DictionaryCallbackWrapperEED1Ev, symObjAddr: 0x5368, symBinAddr: 0x420024, symSize: 0x40 }
  - { offset: 0x59D342, size: 0x8, addend: 0x0, symName: __ZN5realm4util14UniqueFunctionIFvNS_19DictionaryChangeSetEEE12SpecificImplIN12_GLOBAL__N_125DictionaryCallbackWrapperEED0Ev, symObjAddr: 0x53A8, symBinAddr: 0x420064, symSize: 0x40 }
  - { offset: 0x59D4C0, size: 0x8, addend: 0x0, symName: __ZN5realm4util14UniqueFunctionIFvNS_19DictionaryChangeSetEEE12SpecificImplIN12_GLOBAL__N_125DictionaryCallbackWrapperEE4callEOS2_, symObjAddr: 0x53E8, symBinAddr: 0x4200A4, symSize: 0x10C }
  - { offset: 0x5A2BFE, size: 0x8, addend: 0x0, symName: '-[RLMManagedSetHandoverMetadata parentClassName]', symObjAddr: 0x0, symBinAddr: 0x4201B0, symSize: 0x8 }
  - { offset: 0x5F87ED, size: 0x8, addend: 0x0, symName: '-[RLMManagedSetHandoverMetadata parentClassName]', symObjAddr: 0x0, symBinAddr: 0x4201B0, symSize: 0x8 }
  - { offset: 0x5F8824, size: 0x8, addend: 0x0, symName: '-[RLMManagedSetHandoverMetadata setParentClassName:]', symObjAddr: 0x8, symBinAddr: 0x4201B8, symSize: 0xC }
  - { offset: 0x5F8865, size: 0x8, addend: 0x0, symName: '-[RLMManagedSetHandoverMetadata key]', symObjAddr: 0x14, symBinAddr: 0x4201C4, symSize: 0x8 }
  - { offset: 0x5F889C, size: 0x8, addend: 0x0, symName: '-[RLMManagedSetHandoverMetadata setKey:]', symObjAddr: 0x1C, symBinAddr: 0x4201CC, symSize: 0xC }
  - { offset: 0x5F88DD, size: 0x8, addend: 0x0, symName: '-[RLMManagedSetHandoverMetadata .cxx_destruct]', symObjAddr: 0x28, symBinAddr: 0x4201D8, symSize: 0x30 }
  - { offset: 0x5F8964, size: 0x8, addend: 0x0, symName: '-[RLMManagedSet initWithBackingCollection:parentInfo:property:]', symObjAddr: 0x58, symBinAddr: 0x420208, symSize: 0x188 }
  - { offset: 0x5F8C04, size: 0x8, addend: 0x0, symName: '-[RLMManagedSet initWithParent:property:]', symObjAddr: 0x1E0, symBinAddr: 0x420390, symSize: 0x120 }
  - { offset: 0x5F8F37, size: 0x8, addend: 0x0, symName: '-[RLMManagedSet initWithParent:property:parentInfo:]', symObjAddr: 0x300, symBinAddr: 0x4204B0, symSize: 0x124 }
  - { offset: 0x5F9264, size: 0x8, addend: 0x0, symName: __Z28RLMValidateSetObservationKeyP8NSStringP6RLMSet, symObjAddr: 0x424, symBinAddr: 0x4205D4, symSize: 0x68 }
  - { offset: 0x5F934C, size: 0x8, addend: 0x0, symName: __Z27RLMEnsureSetObservationInfoRNSt3__110unique_ptrI18RLMObservationInfoNS_14default_deleteIS1_EEEEP8NSStringP6RLMSetP11objc_object, symObjAddr: 0x48C, symBinAddr: 0x42063C, symSize: 0xF8 }
  - { offset: 0x5F9453, size: 0x8, addend: 0x0, symName: '-[RLMManagedSet realm]', symObjAddr: 0x584, symBinAddr: 0x420734, symSize: 0x10 }
  - { offset: 0x5F948A, size: 0x8, addend: 0x0, symName: '-[RLMManagedSet count]', symObjAddr: 0x594, symBinAddr: 0x420744, symSize: 0x50 }
  - { offset: 0x5F95D4, size: 0x8, addend: 0x0, symName: '-[RLMManagedSet allObjects]', symObjAddr: 0x5E4, symBinAddr: 0x420794, symSize: 0x160 }
  - { offset: 0x5F962E, size: 0x8, addend: 0x0, symName: '-[RLMManagedSet isInvalidated]', symObjAddr: 0x744, symBinAddr: 0x4208F4, symSize: 0x54 }
  - { offset: 0x5F9756, size: 0x8, addend: 0x0, symName: '-[RLMManagedSet objectInfo]', symObjAddr: 0x798, symBinAddr: 0x420948, symSize: 0x10 }
  - { offset: 0x5F978D, size: 0x8, addend: 0x0, symName: '-[RLMManagedSet isBackedBySet:]', symObjAddr: 0x7A8, symBinAddr: 0x420958, symSize: 0x14 }
  - { offset: 0x5F97D4, size: 0x8, addend: 0x0, symName: '-[RLMManagedSet isEqual:]', symObjAddr: 0x7BC, symBinAddr: 0x42096C, symSize: 0x78 }
  - { offset: 0x5F981B, size: 0x8, addend: 0x0, symName: '-[RLMManagedSet hash]', symObjAddr: 0x834, symBinAddr: 0x4209E4, symSize: 0x2C }
  - { offset: 0x5F9852, size: 0x8, addend: 0x0, symName: '-[RLMManagedSet countByEnumeratingWithState:objects:count:]', symObjAddr: 0x860, symBinAddr: 0x420A10, symSize: 0x14 }
  - { offset: 0x5F98DB, size: 0x8, addend: 0x0, symName: '-[RLMManagedSet addObject:]', symObjAddr: 0x874, symBinAddr: 0x420A24, symSize: 0x118 }
  - { offset: 0x5F9963, size: 0x8, addend: 0x0, symName: __ZL9changeSetP13RLMManagedSetU13block_pointerFvvE, symObjAddr: 0xA28, symBinAddr: 0x420BD8, symSize: 0x1A8 }
  - { offset: 0x5F9C86, size: 0x8, addend: 0x0, symName: '-[RLMManagedSet addObjects:]', symObjAddr: 0x98C, symBinAddr: 0x420B3C, symSize: 0x9C }
  - { offset: 0x5FA11A, size: 0x8, addend: 0x0, symName: '___28-[RLMManagedSet addObjects:]_block_invoke', symObjAddr: 0xBD0, symBinAddr: 0x420D80, symSize: 0x1B8 }
  - { offset: 0x5FA40A, size: 0x8, addend: 0x0, symName: __ZNK5realm12object_store3Set8dispatchIZNS1_6insertIRU8__strongKP11objc_object18RLMAccessorContextEENSt3__14pairImbEERT0_OT_NS_12CreatePolicyEEUlSE_E_EEDaSF_, symObjAddr: 0x44A0, symBinAddr: 0x424650, symSize: 0x504 }
  - { offset: 0x5FAAD9, size: 0x8, addend: 0x0, symName: '-[RLMManagedSet removeObject:]', symObjAddr: 0xD88, symBinAddr: 0x420F38, symSize: 0x118 }
  - { offset: 0x5FAB45, size: 0x8, addend: 0x0, symName: '-[RLMManagedSet removeAllObjects]', symObjAddr: 0xEA0, symBinAddr: 0x421050, symSize: 0x54 }
  - { offset: 0x5FAB86, size: 0x8, addend: 0x0, symName: '___33-[RLMManagedSet removeAllObjects]_block_invoke', symObjAddr: 0xEF4, symBinAddr: 0x4210A4, symSize: 0x14 }
  - { offset: 0x5FABC5, size: 0x8, addend: 0x0, symName: '-[RLMManagedSet replaceAllObjectsWithObjects:]', symObjAddr: 0xF08, symBinAddr: 0x4210B8, symSize: 0x9C }
  - { offset: 0x5FB03E, size: 0x8, addend: 0x0, symName: '___46-[RLMManagedSet replaceAllObjectsWithObjects:]_block_invoke', symObjAddr: 0xFA4, symBinAddr: 0x421154, symSize: 0x250 }
  - { offset: 0x5FB378, size: 0x8, addend: 0x0, symName: __ZNK5realm12object_store3Set8dispatchIZNS1_6insertIRU8__strongP11objc_object18RLMAccessorContextEENSt3__14pairImbEERT0_OT_NS_12CreatePolicyEEUlSE_E_EEDaSF_, symObjAddr: 0x3F9C, symBinAddr: 0x42414C, symSize: 0x504 }
  - { offset: 0x5FBA49, size: 0x8, addend: 0x0, symName: '-[RLMManagedSet managedObjectFrom:]', symObjAddr: 0x11F4, symBinAddr: 0x4213A4, symSize: 0x1F0 }
  - { offset: 0x5FBB05, size: 0x8, addend: 0x0, symName: __ZL15RLMTypeToString15RLMPropertyType, symObjAddr: 0x13E4, symBinAddr: 0x421594, symSize: 0x24 }
  - { offset: 0x5FBB34, size: 0x8, addend: 0x0, symName: '-[RLMManagedSet isSubsetOfSet:]', symObjAddr: 0x1408, symBinAddr: 0x4215B8, symSize: 0x64 }
  - { offset: 0x5FBB8C, size: 0x8, addend: 0x0, symName: '-[RLMManagedSet intersectsSet:]', symObjAddr: 0x146C, symBinAddr: 0x42161C, symSize: 0x64 }
  - { offset: 0x5FC669, size: 0x8, addend: 0x0, symName: '-[RLMManagedSet containsObject:]', symObjAddr: 0x14D0, symBinAddr: 0x421680, symSize: 0x38C }
  - { offset: 0x5FCFF6, size: 0x8, addend: 0x0, symName: '-[RLMManagedSet isEqualToSet:]', symObjAddr: 0x185C, symBinAddr: 0x421A0C, symSize: 0x5C }
  - { offset: 0x5FD04E, size: 0x8, addend: 0x0, symName: '-[RLMManagedSet setSet:]', symObjAddr: 0x18B8, symBinAddr: 0x421A68, symSize: 0xFC }
  - { offset: 0x5FD0BE, size: 0x8, addend: 0x0, symName: __ZL24ensureInWriteTransactionP8NSStringP13RLMManagedSetS2_, symObjAddr: 0x19B4, symBinAddr: 0x421B64, symSize: 0x130 }
  - { offset: 0x5FD233, size: 0x8, addend: 0x0, symName: '___24-[RLMManagedSet setSet:]_block_invoke', symObjAddr: 0x1AE4, symBinAddr: 0x421C94, symSize: 0x250 }
  - { offset: 0x5FD56E, size: 0x8, addend: 0x0, symName: '-[RLMManagedSet intersectSet:]', symObjAddr: 0x1D34, symBinAddr: 0x421EE4, symSize: 0xFC }
  - { offset: 0x5FD5DE, size: 0x8, addend: 0x0, symName: '___30-[RLMManagedSet intersectSet:]_block_invoke', symObjAddr: 0x1E30, symBinAddr: 0x421FE0, symSize: 0x18 }
  - { offset: 0x5FD62F, size: 0x8, addend: 0x0, symName: '-[RLMManagedSet unionSet:]', symObjAddr: 0x1E48, symBinAddr: 0x421FF8, symSize: 0xFC }
  - { offset: 0x5FD69F, size: 0x8, addend: 0x0, symName: '___26-[RLMManagedSet unionSet:]_block_invoke', symObjAddr: 0x1F44, symBinAddr: 0x4220F4, symSize: 0x18 }
  - { offset: 0x5FD6F0, size: 0x8, addend: 0x0, symName: '-[RLMManagedSet minusSet:]', symObjAddr: 0x1F5C, symBinAddr: 0x42210C, symSize: 0xFC }
  - { offset: 0x5FD760, size: 0x8, addend: 0x0, symName: '___26-[RLMManagedSet minusSet:]_block_invoke', symObjAddr: 0x2058, symBinAddr: 0x422208, symSize: 0x18 }
  - { offset: 0x5FD7B1, size: 0x8, addend: 0x0, symName: '-[RLMManagedSet objectAtIndex:]', symObjAddr: 0x2070, symBinAddr: 0x422220, symSize: 0xC4 }
  - { offset: 0x5FDB16, size: 0x8, addend: 0x0, symName: '-[RLMManagedSet objectsAtIndexes:]', symObjAddr: 0x2134, symBinAddr: 0x4222E4, symSize: 0x198 }
  - { offset: 0x5FDDAC, size: 0x8, addend: 0x0, symName: '-[RLMManagedSet firstObject]', symObjAddr: 0x22CC, symBinAddr: 0x42247C, symSize: 0xE0 }
  - { offset: 0x5FE0EE, size: 0x8, addend: 0x0, symName: '-[RLMManagedSet lastObject]', symObjAddr: 0x23AC, symBinAddr: 0x42255C, symSize: 0xE0 }
  - { offset: 0x5FE448, size: 0x8, addend: 0x0, symName: '-[RLMManagedSet valueForKeyPath:]', symObjAddr: 0x248C, symBinAddr: 0x42263C, symSize: 0x158 }
  - { offset: 0x5FE646, size: 0x8, addend: 0x0, symName: '-[RLMManagedSet valueForKey:]', symObjAddr: 0x25E4, symBinAddr: 0x422794, symSize: 0x12C }
  - { offset: 0x5FE7C0, size: 0x8, addend: 0x0, symName: '-[RLMManagedSet setValue:forKey:]', symObjAddr: 0x2710, symBinAddr: 0x4228C0, symSize: 0x1C0 }
  - { offset: 0x5FEC8B, size: 0x8, addend: 0x0, symName: '-[RLMManagedSet minOfProperty:]', symObjAddr: 0x28D0, symBinAddr: 0x422A80, symSize: 0x108 }
  - { offset: 0x5FF0B7, size: 0x8, addend: 0x0, symName: '-[RLMManagedSet maxOfProperty:]', symObjAddr: 0x29D8, symBinAddr: 0x422B88, symSize: 0x108 }
  - { offset: 0x5FF36E, size: 0x8, addend: 0x0, symName: '-[RLMManagedSet sumOfProperty:]', symObjAddr: 0x2AE0, symBinAddr: 0x422C90, symSize: 0xF8 }
  - { offset: 0x5FF5D1, size: 0x8, addend: 0x0, symName: '-[RLMManagedSet averageOfProperty:]', symObjAddr: 0x2BD8, symBinAddr: 0x422D88, symSize: 0x108 }
  - { offset: 0x5FF889, size: 0x8, addend: 0x0, symName: '-[RLMManagedSet deleteObjectsFromRealm]', symObjAddr: 0x2CE0, symBinAddr: 0x422E90, symSize: 0xE0 }
  - { offset: 0x5FFA46, size: 0x8, addend: 0x0, symName: '-[RLMManagedSet sortedResultsUsingDescriptors:]', symObjAddr: 0x2DC0, symBinAddr: 0x422F70, symSize: 0x114 }
  - { offset: 0x5FFD5F, size: 0x8, addend: 0x0, symName: '-[RLMManagedSet distinctResultsUsingKeyPaths:]', symObjAddr: 0x2ED4, symBinAddr: 0x423084, symSize: 0x110 }
  - { offset: 0x5FFEB8, size: 0x8, addend: 0x0, symName: '-[RLMManagedSet objectsWithPredicate:]', symObjAddr: 0x2FE4, symBinAddr: 0x423194, symSize: 0x1AC }
  - { offset: 0x600029, size: 0x8, addend: 0x0, symName: '-[RLMManagedSet sectionedResultsSortedUsingKeyPath:ascending:keyBlock:]', symObjAddr: 0x3190, symBinAddr: 0x423340, symSize: 0xD4 }
  - { offset: 0x600091, size: 0x8, addend: 0x0, symName: '-[RLMManagedSet sectionedResultsUsingSortDescriptors:keyBlock:]', symObjAddr: 0x3264, symBinAddr: 0x423414, symSize: 0xC4 }
  - { offset: 0x6000E9, size: 0x8, addend: 0x0, symName: '-[RLMManagedSet addObserver:forKeyPath:options:context:]', symObjAddr: 0x3328, symBinAddr: 0x4234D8, symSize: 0xCC }
  - { offset: 0x60016B, size: 0x8, addend: 0x0, symName: '-[RLMManagedSet fastEnumerator]', symObjAddr: 0x33F4, symBinAddr: 0x4235A4, symSize: 0x80 }
  - { offset: 0x60029D, size: 0x8, addend: 0x0, symName: '-[RLMManagedSet tableView]', symObjAddr: 0x3474, symBinAddr: 0x423624, symSize: 0x88 }
  - { offset: 0x6003CA, size: 0x8, addend: 0x0, symName: '-[RLMManagedSet isFrozen]', symObjAddr: 0x34FC, symBinAddr: 0x4236AC, symSize: 0x10 }
  - { offset: 0x600402, size: 0x8, addend: 0x0, symName: '-[RLMManagedSet resolveInRealm:]', symObjAddr: 0x350C, symBinAddr: 0x4236BC, symSize: 0x15C }
  - { offset: 0x6005E2, size: 0x8, addend: 0x0, symName: '-[RLMManagedSet freeze]', symObjAddr: 0x3668, symBinAddr: 0x423818, symSize: 0x80 }
  - { offset: 0x60061A, size: 0x8, addend: 0x0, symName: '-[RLMManagedSet thaw]', symObjAddr: 0x36E8, symBinAddr: 0x423898, symSize: 0x88 }
  - { offset: 0x600A2A, size: 0x8, addend: 0x0, symName: '-[RLMManagedSet addNotificationCallback:keyPaths:]', symObjAddr: 0x3770, symBinAddr: 0x423920, symSize: 0x108 }
  - { offset: 0x601103, size: 0x8, addend: 0x0, symName: '-[RLMManagedSet makeThreadSafeReference]', symObjAddr: 0x3878, symBinAddr: 0x423A28, symSize: 0x14 }
  - { offset: 0x60113B, size: 0x8, addend: 0x0, symName: '-[RLMManagedSet objectiveCMetadata]', symObjAddr: 0x388C, symBinAddr: 0x423A3C, symSize: 0xC0 }
  - { offset: 0x601183, size: 0x8, addend: 0x0, symName: '+[RLMManagedSet objectWithThreadSafeReference:metadata:realm:]', symObjAddr: 0x394C, symBinAddr: 0x423AFC, symSize: 0x1A8 }
  - { offset: 0x60133C, size: 0x8, addend: 0x0, symName: '-[RLMManagedSet .cxx_destruct]', symObjAddr: 0x3AF4, symBinAddr: 0x423CA4, symSize: 0x50 }
  - { offset: 0x601517, size: 0x8, addend: 0x0, symName: '-[RLMManagedSet .cxx_construct]', symObjAddr: 0x3B44, symBinAddr: 0x423CF4, symSize: 0x50 }
  - { offset: 0x6015F7, size: 0x8, addend: 0x0, symName: ____ZL15RLMInsertObjectP13RLMManagedSetP11objc_object_block_invoke, symObjAddr: 0x3B94, symBinAddr: 0x423D44, symSize: 0xBC }
  - { offset: 0x601F22, size: 0x8, addend: 0x0, symName: ____ZL15RLMRemoveObjectP13RLMManagedSetP11objc_object_block_invoke, symObjAddr: 0x3C50, symBinAddr: 0x423E00, symSize: 0x34C }
  - { offset: 0x607B5A, size: 0x8, addend: 0x0, symName: '-[RLMMigration initWithRealm:oldRealm:schema:]', symObjAddr: 0x0, symBinAddr: 0x424B54, symSize: 0xC8 }
  - { offset: 0x6520B7, size: 0x8, addend: 0x0, symName: '-[RLMMigration initWithRealm:oldRealm:schema:]', symObjAddr: 0x0, symBinAddr: 0x424B54, symSize: 0xC8 }
  - { offset: 0x65211E, size: 0x8, addend: 0x0, symName: '-[RLMMigration oldSchema]', symObjAddr: 0xC8, symBinAddr: 0x424C1C, symSize: 0x8 }
  - { offset: 0x652155, size: 0x8, addend: 0x0, symName: '-[RLMMigration newSchema]', symObjAddr: 0xD0, symBinAddr: 0x424C24, symSize: 0x20 }
  - { offset: 0x6522A0, size: 0x8, addend: 0x0, symName: '-[RLMMigration enumerateObjects:block:]', symObjAddr: 0xF0, symBinAddr: 0x424C44, symSize: 0x538 }
  - { offset: 0x652520, size: 0x8, addend: 0x0, symName: '-[RLMMigration execute:objectClass:]', symObjAddr: 0x628, symBinAddr: 0x42517C, symSize: 0x2FC }
  - { offset: 0x6525EB, size: 0x8, addend: 0x0, symName: '-[RLMMigration createObject:withValue:]', symObjAddr: 0x924, symBinAddr: 0x425478, symSize: 0x20 }
  - { offset: 0x652642, size: 0x8, addend: 0x0, symName: '-[RLMMigration createObject:withObject:]', symObjAddr: 0x944, symBinAddr: 0x425498, symSize: 0x1C }
  - { offset: 0x652699, size: 0x8, addend: 0x0, symName: '-[RLMMigration deleteObject:]', symObjAddr: 0x960, symBinAddr: 0x4254B4, symSize: 0x8 }
  - { offset: 0x652759, size: 0x8, addend: 0x0, symName: '-[RLMMigration deleteDataForClassName:]', symObjAddr: 0x968, symBinAddr: 0x4254BC, symSize: 0x13C }
  - { offset: 0x652865, size: 0x8, addend: 0x0, symName: '-[RLMMigration renamePropertyForClass:oldName:newName:]', symObjAddr: 0xAA4, symBinAddr: 0x4255F8, symSize: 0x15C }
  - { offset: 0x652A5A, size: 0x8, addend: 0x0, symName: '-[RLMMigration .cxx_destruct]', symObjAddr: 0xC00, symBinAddr: 0x425754, symSize: 0x30 }
  - { offset: 0x65490A, size: 0x8, addend: 0x0, symName: '-[RLMMongoClient initWithUser:serviceName:]', symObjAddr: 0x0, symBinAddr: 0x425784, symSize: 0xC0 }
  - { offset: 0x6549D3, size: 0x8, addend: 0x0, symName: '-[RLMMongoClient initWithUser:serviceName:]', symObjAddr: 0x0, symBinAddr: 0x425784, symSize: 0xC0 }
  - { offset: 0x654A2A, size: 0x8, addend: 0x0, symName: '-[RLMMongoClient databaseWithName:]', symObjAddr: 0xC0, symBinAddr: 0x425844, symSize: 0xD4 }
  - { offset: 0x654A71, size: 0x8, addend: 0x0, symName: '-[RLMMongoClient name]', symObjAddr: 0x194, symBinAddr: 0x425918, symSize: 0x8 }
  - { offset: 0x654AA8, size: 0x8, addend: 0x0, symName: '-[RLMMongoClient user]', symObjAddr: 0x19C, symBinAddr: 0x425920, symSize: 0x8 }
  - { offset: 0x654ADF, size: 0x8, addend: 0x0, symName: '-[RLMMongoClient setUser:]', symObjAddr: 0x1A4, symBinAddr: 0x425928, symSize: 0xC }
  - { offset: 0x654B20, size: 0x8, addend: 0x0, symName: '-[RLMMongoClient .cxx_destruct]', symObjAddr: 0x1B0, symBinAddr: 0x425934, symSize: 0x30 }
  - { offset: 0x654B53, size: 0x8, addend: 0x0, symName: '-[RLMMongoDatabase initWithUser:serviceName:databaseName:]', symObjAddr: 0x1E0, symBinAddr: 0x425964, symSize: 0xF4 }
  - { offset: 0x654BBA, size: 0x8, addend: 0x0, symName: '-[RLMMongoDatabase collectionWithName:]', symObjAddr: 0x2D4, symBinAddr: 0x425A58, symSize: 0x10C }
  - { offset: 0x654C01, size: 0x8, addend: 0x0, symName: '-[RLMMongoDatabase name]', symObjAddr: 0x3E0, symBinAddr: 0x425B64, symSize: 0x8 }
  - { offset: 0x654C38, size: 0x8, addend: 0x0, symName: '-[RLMMongoDatabase user]', symObjAddr: 0x3E8, symBinAddr: 0x425B6C, symSize: 0x8 }
  - { offset: 0x654C6F, size: 0x8, addend: 0x0, symName: '-[RLMMongoDatabase setUser:]', symObjAddr: 0x3F0, symBinAddr: 0x425B74, symSize: 0xC }
  - { offset: 0x654CB0, size: 0x8, addend: 0x0, symName: '-[RLMMongoDatabase serviceName]', symObjAddr: 0x3FC, symBinAddr: 0x425B80, symSize: 0x8 }
  - { offset: 0x654CE7, size: 0x8, addend: 0x0, symName: '-[RLMMongoDatabase setServiceName:]', symObjAddr: 0x404, symBinAddr: 0x425B88, symSize: 0xC }
  - { offset: 0x654D28, size: 0x8, addend: 0x0, symName: '-[RLMMongoDatabase .cxx_destruct]', symObjAddr: 0x410, symBinAddr: 0x425B94, symSize: 0x3C }
  - { offset: 0x65770E, size: 0x8, addend: 0x0, symName: '-[RLMChangeStream didCloseWithError:]', symObjAddr: 0x0, symBinAddr: 0x425BD0, symSize: 0xAC }
  - { offset: 0x669A2E, size: 0x8, addend: 0x0, symName: '-[RLMChangeStream didCloseWithError:]', symObjAddr: 0x0, symBinAddr: 0x425BD0, symSize: 0xAC }
  - { offset: 0x669A7D, size: 0x8, addend: 0x0, symName: '___37-[RLMChangeStream didCloseWithError:]_block_invoke', symObjAddr: 0xAC, symBinAddr: 0x425C7C, symSize: 0xC }
  - { offset: 0x669ACC, size: 0x8, addend: 0x0, symName: '-[RLMChangeStream didOpen]', symObjAddr: 0xB8, symBinAddr: 0x425C88, symSize: 0x60 }
  - { offset: 0x669B0B, size: 0x8, addend: 0x0, symName: '___26-[RLMChangeStream didOpen]_block_invoke', symObjAddr: 0x118, symBinAddr: 0x425CE8, symSize: 0xC }
  - { offset: 0x669B4A, size: 0x8, addend: 0x0, symName: '-[RLMChangeStream didReceiveError:]', symObjAddr: 0x124, symBinAddr: 0x425CF4, symSize: 0xAC }
  - { offset: 0x669B99, size: 0x8, addend: 0x0, symName: '___35-[RLMChangeStream didReceiveError:]_block_invoke', symObjAddr: 0x1D0, symBinAddr: 0x425DA0, symSize: 0xC }
  - { offset: 0x66A059, size: 0x8, addend: 0x0, symName: '-[RLMChangeStream didReceiveEvent:]', symObjAddr: 0x1DC, symBinAddr: 0x425DAC, symSize: 0x290 }
  - { offset: 0x66A685, size: 0x8, addend: 0x0, symName: '___35-[RLMChangeStream didReceiveEvent:]_block_invoke', symObjAddr: 0x46C, symBinAddr: 0x42603C, symSize: 0x10 }
  - { offset: 0x66A6EA, size: 0x8, addend: 0x0, symName: '___35-[RLMChangeStream didReceiveEvent:]_block_invoke.2', symObjAddr: 0x47C, symBinAddr: 0x42604C, symSize: 0xC }
  - { offset: 0x66A739, size: 0x8, addend: 0x0, symName: '-[RLMChangeStream close]', symObjAddr: 0x488, symBinAddr: 0x426058, symSize: 0x40 }
  - { offset: 0x66A8FD, size: 0x8, addend: 0x0, symName: '-[RLMChangeStream .cxx_destruct]', symObjAddr: 0x4C8, symBinAddr: 0x426098, symSize: 0xA8 }
  - { offset: 0x66B2BA, size: 0x8, addend: 0x0, symName: '-[RLMChangeStream .cxx_construct]', symObjAddr: 0x570, symBinAddr: 0x426140, symSize: 0x2C }
  - { offset: 0x66B2F2, size: 0x8, addend: 0x0, symName: '-[RLMChangeStream .cxx_construct]', symObjAddr: 0x570, symBinAddr: 0x426140, symSize: 0x2C }
  - { offset: 0x66B311, size: 0x8, addend: 0x0, symName: '-[RLMChangeStream .cxx_construct]', symObjAddr: 0x570, symBinAddr: 0x426140, symSize: 0x2C }
  - { offset: 0x66B5D3, size: 0x8, addend: 0x0, symName: '-[RLMMongoCollection initWithUser:serviceName:databaseName:collectionName:]', symObjAddr: 0x59C, symBinAddr: 0x42616C, symSize: 0x128 }
  - { offset: 0x66B777, size: 0x8, addend: 0x0, symName: '-[RLMMongoCollection collection]', symObjAddr: 0x6C4, symBinAddr: 0x426294, symSize: 0x264 }
  - { offset: 0x66C0FD, size: 0x8, addend: 0x0, symName: __ZN5realm3app13MongoDatabaseD2Ev, symObjAddr: 0x2DE8, symBinAddr: 0x42896C, symSize: 0x50 }
  - { offset: 0x66C3D6, size: 0x8, addend: 0x0, symName: '-[RLMMongoCollection findWhere:options:completion:]', symObjAddr: 0x928, symBinAddr: 0x4264F8, symSize: 0x1D4 }
  - { offset: 0x66D202, size: 0x8, addend: 0x0, symName: __ZL14toBsonDocumentPU17objcproto7RLMBSON11objc_object, symObjAddr: 0xAFC, symBinAddr: 0x4266CC, symSize: 0xD8 }
  - { offset: 0x66D303, size: 0x8, addend: 0x0, symName: __ZN5realm3app15MongoCollectionD2Ev, symObjAddr: 0x2E88, symBinAddr: 0x4289BC, symSize: 0x84 }
  - { offset: 0x66D935, size: 0x8, addend: 0x0, symName: '-[RLMMongoCollection findWhere:completion:]', symObjAddr: 0xBD4, symBinAddr: 0x4267A4, symSize: 0xA8 }
  - { offset: 0x66D988, size: 0x8, addend: 0x0, symName: '-[RLMMongoCollection findOneDocumentWhere:options:completion:]', symObjAddr: 0xC7C, symBinAddr: 0x42684C, symSize: 0x1D4 }
  - { offset: 0x66E66A, size: 0x8, addend: 0x0, symName: '-[RLMMongoCollection findOneDocumentWhere:completion:]', symObjAddr: 0xE50, symBinAddr: 0x426A20, symSize: 0xA8 }
  - { offset: 0x66E6BD, size: 0x8, addend: 0x0, symName: '-[RLMMongoCollection insertOneDocument:completion:]', symObjAddr: 0xEF8, symBinAddr: 0x426AC8, symSize: 0x150 }
  - { offset: 0x66EF9D, size: 0x8, addend: 0x0, symName: '-[RLMMongoCollection insertManyDocuments:completion:]', symObjAddr: 0x1048, symBinAddr: 0x426C18, symSize: 0x14C }
  - { offset: 0x66F903, size: 0x8, addend: 0x0, symName: __ZL11toBsonArrayPU17objcproto7RLMBSON11objc_object, symObjAddr: 0x1194, symBinAddr: 0x426D64, symSize: 0xF8 }
  - { offset: 0x66FB00, size: 0x8, addend: 0x0, symName: '-[RLMMongoCollection aggregateWithPipeline:completion:]', symObjAddr: 0x128C, symBinAddr: 0x426E5C, symSize: 0x14C }
  - { offset: 0x6701BD, size: 0x8, addend: 0x0, symName: '-[RLMMongoCollection countWhere:limit:completion:]', symObjAddr: 0x13D8, symBinAddr: 0x426FA8, symSize: 0x158 }
  - { offset: 0x6708C0, size: 0x8, addend: 0x0, symName: '-[RLMMongoCollection countWhere:completion:]', symObjAddr: 0x1530, symBinAddr: 0x427100, symSize: 0xC }
  - { offset: 0x67090F, size: 0x8, addend: 0x0, symName: '-[RLMMongoCollection deleteOneDocumentWhere:completion:]', symObjAddr: 0x153C, symBinAddr: 0x42710C, symSize: 0x150 }
  - { offset: 0x671192, size: 0x8, addend: 0x0, symName: '-[RLMMongoCollection deleteManyDocumentsWhere:completion:]', symObjAddr: 0x168C, symBinAddr: 0x42725C, symSize: 0x150 }
  - { offset: 0x671828, size: 0x8, addend: 0x0, symName: '-[RLMMongoCollection updateOneDocumentWhere:updateDocument:upsert:completion:]', symObjAddr: 0x17DC, symBinAddr: 0x4273AC, symSize: 0x1B4 }
  - { offset: 0x6722E8, size: 0x8, addend: 0x0, symName: '-[RLMMongoCollection updateOneDocumentWhere:updateDocument:completion:]', symObjAddr: 0x1990, symBinAddr: 0x427560, symSize: 0xC }
  - { offset: 0x672348, size: 0x8, addend: 0x0, symName: '-[RLMMongoCollection updateManyDocumentsWhere:updateDocument:upsert:completion:]', symObjAddr: 0x199C, symBinAddr: 0x42756C, symSize: 0x1B4 }
  - { offset: 0x672B70, size: 0x8, addend: 0x0, symName: '-[RLMMongoCollection updateManyDocumentsWhere:updateDocument:completion:]', symObjAddr: 0x1B50, symBinAddr: 0x427720, symSize: 0xC }
  - { offset: 0x672BD0, size: 0x8, addend: 0x0, symName: '-[RLMMongoCollection findOneAndUpdateWhere:updateDocument:options:completion:]', symObjAddr: 0x1B5C, symBinAddr: 0x42772C, symSize: 0x238 }
  - { offset: 0x67384E, size: 0x8, addend: 0x0, symName: '-[RLMMongoCollection findOneAndUpdateWhere:updateDocument:completion:]', symObjAddr: 0x1D94, symBinAddr: 0x427964, symSize: 0xD4 }
  - { offset: 0x6738B2, size: 0x8, addend: 0x0, symName: '-[RLMMongoCollection findOneAndReplaceWhere:replacementDocument:options:completion:]', symObjAddr: 0x1E68, symBinAddr: 0x427A38, symSize: 0x238 }
  - { offset: 0x6744EE, size: 0x8, addend: 0x0, symName: '-[RLMMongoCollection findOneAndReplaceWhere:replacementDocument:completion:]', symObjAddr: 0x20A0, symBinAddr: 0x427C70, symSize: 0xD4 }
  - { offset: 0x674552, size: 0x8, addend: 0x0, symName: '-[RLMMongoCollection findOneAndDeleteWhere:options:completion:]', symObjAddr: 0x2174, symBinAddr: 0x427D44, symSize: 0x1D4 }
  - { offset: 0x675021, size: 0x8, addend: 0x0, symName: '-[RLMMongoCollection findOneAndDeleteWhere:completion:]', symObjAddr: 0x2348, symBinAddr: 0x427F18, symSize: 0xA8 }
  - { offset: 0x675075, size: 0x8, addend: 0x0, symName: '-[RLMMongoCollection watchWithDelegate:delegateQueue:]', symObjAddr: 0x23F0, symBinAddr: 0x427FC0, symSize: 0x2C }
  - { offset: 0x6750DB, size: 0x8, addend: 0x0, symName: '-[RLMMongoCollection watchWithMatchFilter:idFilter:delegate:delegateQueue:]', symObjAddr: 0x241C, symBinAddr: 0x427FEC, symSize: 0x148 }
  - { offset: 0x675176, size: 0x8, addend: 0x0, symName: '-[RLMMongoCollection watchWithFilterIds:delegate:delegateQueue:]', symObjAddr: 0x2564, symBinAddr: 0x428134, symSize: 0x20 }
  - { offset: 0x6751EC, size: 0x8, addend: 0x0, symName: '-[RLMMongoCollection watchWithMatchFilter:delegate:delegateQueue:]', symObjAddr: 0x2584, symBinAddr: 0x428154, symSize: 0x24 }
  - { offset: 0x675262, size: 0x8, addend: 0x0, symName: '___75-[RLMMongoCollection watchWithMatchFilter:idFilter:delegate:delegateQueue:]_block_invoke', symObjAddr: 0x25A8, symBinAddr: 0x428178, symSize: 0x8 }
  - { offset: 0x675B92, size: 0x8, addend: 0x0, symName: '-[RLMMongoCollection watchWithMatchFilter:idFilter:delegate:scheduler:]', symObjAddr: 0x25B0, symBinAddr: 0x428180, symSize: 0x79C }
  - { offset: 0x677DC1, size: 0x8, addend: 0x0, symName: '-[RLMMongoCollection name]', symObjAddr: 0x2D98, symBinAddr: 0x42891C, symSize: 0x8 }
  - { offset: 0x677DF8, size: 0x8, addend: 0x0, symName: '-[RLMMongoCollection .cxx_destruct]', symObjAddr: 0x2DA0, symBinAddr: 0x428924, symSize: 0x48 }
  - { offset: 0x677FEB, size: 0x8, addend: 0x0, symName: '__ZN5realm4util14UniqueFunctionIFvONSt3__18optionalINS_4bson9BsonArrayEEENS3_INS_3app8AppErrorEEEEE12SpecificImplIZ51-[RLMMongoCollection findWhere:options:completion:]E3$_0ED1Ev', symObjAddr: 0x2FF8, symBinAddr: 0x428A40, symSize: 0x28 }
  - { offset: 0x678088, size: 0x8, addend: 0x0, symName: '__ZN5realm4util14UniqueFunctionIFvONSt3__18optionalINS_4bson9BsonArrayEEENS3_INS_3app8AppErrorEEEEE12SpecificImplIZ51-[RLMMongoCollection findWhere:options:completion:]E3$_0ED0Ev', symObjAddr: 0x3020, symBinAddr: 0x428A68, symSize: 0x28 }
  - { offset: 0x6789CC, size: 0x8, addend: 0x0, symName: '__ZN5realm4util14UniqueFunctionIFvONSt3__18optionalINS_4bson9BsonArrayEEENS3_INS_3app8AppErrorEEEEE12SpecificImplIZ51-[RLMMongoCollection findWhere:options:completion:]E3$_0E4callES7_OSA_', symObjAddr: 0x3048, symBinAddr: 0x428A90, symSize: 0x230 }
  - { offset: 0x679709, size: 0x8, addend: 0x0, symName: '__ZN5realm4util14UniqueFunctionIFvONSt3__18optionalINS_4bson12BsonDocumentEEENS3_INS_3app8AppErrorEEEEE12SpecificImplIZ62-[RLMMongoCollection findOneDocumentWhere:options:completion:]E3$_1ED1Ev', symObjAddr: 0x3278, symBinAddr: 0x428CC0, symSize: 0x28 }
  - { offset: 0x6797A6, size: 0x8, addend: 0x0, symName: '__ZN5realm4util14UniqueFunctionIFvONSt3__18optionalINS_4bson12BsonDocumentEEENS3_INS_3app8AppErrorEEEEE12SpecificImplIZ62-[RLMMongoCollection findOneDocumentWhere:options:completion:]E3$_1ED0Ev', symObjAddr: 0x32A0, symBinAddr: 0x428CE8, symSize: 0x28 }
  - { offset: 0x67994E, size: 0x8, addend: 0x0, symName: '__ZN5realm4util14UniqueFunctionIFvONSt3__18optionalINS_4bson12BsonDocumentEEENS3_INS_3app8AppErrorEEEEE12SpecificImplIZ62-[RLMMongoCollection findOneDocumentWhere:options:completion:]E3$_1E4callES7_OSA_', symObjAddr: 0x32C8, symBinAddr: 0x428D10, symSize: 0x1DC }
  - { offset: 0x67A323, size: 0x8, addend: 0x0, symName: __ZNSt3__120__optional_move_baseIN5realm4bson12BsonDocumentELb0EEC2B8ne180100EOS4_, symObjAddr: 0x34A4, symBinAddr: 0x428EEC, symSize: 0x58 }
  - { offset: 0x67A681, size: 0x8, addend: 0x0, symName: '__ZN5realm4util14UniqueFunctionIFvONSt3__18optionalINS_4bson4BsonEEENS3_INS_3app8AppErrorEEEEE12SpecificImplIZ51-[RLMMongoCollection insertOneDocument:completion:]E3$_2ED1Ev', symObjAddr: 0x34FC, symBinAddr: 0x428F44, symSize: 0x28 }
  - { offset: 0x67A71E, size: 0x8, addend: 0x0, symName: '__ZN5realm4util14UniqueFunctionIFvONSt3__18optionalINS_4bson4BsonEEENS3_INS_3app8AppErrorEEEEE12SpecificImplIZ51-[RLMMongoCollection insertOneDocument:completion:]E3$_2ED0Ev', symObjAddr: 0x3524, symBinAddr: 0x428F6C, symSize: 0x28 }
  - { offset: 0x67AA88, size: 0x8, addend: 0x0, symName: '__ZN5realm4util14UniqueFunctionIFvONSt3__18optionalINS_4bson4BsonEEENS3_INS_3app8AppErrorEEEEE12SpecificImplIZ51-[RLMMongoCollection insertOneDocument:completion:]E3$_2E4callES7_OSA_', symObjAddr: 0x354C, symBinAddr: 0x428F94, symSize: 0x18C }
  - { offset: 0x67B4B1, size: 0x8, addend: 0x0, symName: '__ZN5realm4util14UniqueFunctionIFvONS_4bson9BsonArrayENSt3__18optionalINS_3app8AppErrorEEEEE12SpecificImplIZ53-[RLMMongoCollection insertManyDocuments:completion:]E3$_3ED1Ev', symObjAddr: 0x36D8, symBinAddr: 0x429120, symSize: 0x28 }
  - { offset: 0x67B54E, size: 0x8, addend: 0x0, symName: '__ZN5realm4util14UniqueFunctionIFvONS_4bson9BsonArrayENSt3__18optionalINS_3app8AppErrorEEEEE12SpecificImplIZ53-[RLMMongoCollection insertManyDocuments:completion:]E3$_3ED0Ev', symObjAddr: 0x3700, symBinAddr: 0x429148, symSize: 0x28 }
  - { offset: 0x67B6A8, size: 0x8, addend: 0x0, symName: '__ZN5realm4util14UniqueFunctionIFvONS_4bson9BsonArrayENSt3__18optionalINS_3app8AppErrorEEEEE12SpecificImplIZ53-[RLMMongoCollection insertManyDocuments:completion:]E3$_3E4callES4_OS9_', symObjAddr: 0x3728, symBinAddr: 0x429170, symSize: 0x1C0 }
  - { offset: 0x67BEF8, size: 0x8, addend: 0x0, symName: '__ZN5realm4util14UniqueFunctionIFvONSt3__18optionalINS_4bson9BsonArrayEEENS3_INS_3app8AppErrorEEEEE12SpecificImplIZ55-[RLMMongoCollection aggregateWithPipeline:completion:]E3$_4ED1Ev', symObjAddr: 0x38E8, symBinAddr: 0x429330, symSize: 0x28 }
  - { offset: 0x67BF95, size: 0x8, addend: 0x0, symName: '__ZN5realm4util14UniqueFunctionIFvONSt3__18optionalINS_4bson9BsonArrayEEENS3_INS_3app8AppErrorEEEEE12SpecificImplIZ55-[RLMMongoCollection aggregateWithPipeline:completion:]E3$_4ED0Ev', symObjAddr: 0x3910, symBinAddr: 0x429358, symSize: 0x28 }
  - { offset: 0x67C07B, size: 0x8, addend: 0x0, symName: '__ZN5realm4util14UniqueFunctionIFvONSt3__18optionalINS_4bson9BsonArrayEEENS3_INS_3app8AppErrorEEEEE12SpecificImplIZ55-[RLMMongoCollection aggregateWithPipeline:completion:]E3$_4E4callES7_OSA_', symObjAddr: 0x3938, symBinAddr: 0x429380, symSize: 0x230 }
  - { offset: 0x67CDB8, size: 0x8, addend: 0x0, symName: '__ZN5realm4util14UniqueFunctionIFvONSt3__18optionalINS_4bson4BsonEEENS3_INS_3app8AppErrorEEEEE12SpecificImplIZ50-[RLMMongoCollection countWhere:limit:completion:]E3$_5ED1Ev', symObjAddr: 0x3B68, symBinAddr: 0x4295B0, symSize: 0x28 }
  - { offset: 0x67CE55, size: 0x8, addend: 0x0, symName: '__ZN5realm4util14UniqueFunctionIFvONSt3__18optionalINS_4bson4BsonEEENS3_INS_3app8AppErrorEEEEE12SpecificImplIZ50-[RLMMongoCollection countWhere:limit:completion:]E3$_5ED0Ev', symObjAddr: 0x3B90, symBinAddr: 0x4295D8, symSize: 0x28 }
  - { offset: 0x67CF6C, size: 0x8, addend: 0x0, symName: '__ZN5realm4util14UniqueFunctionIFvONSt3__18optionalINS_4bson4BsonEEENS3_INS_3app8AppErrorEEEEE12SpecificImplIZ50-[RLMMongoCollection countWhere:limit:completion:]E3$_5E4callES7_OSA_', symObjAddr: 0x3BB8, symBinAddr: 0x429600, symSize: 0xE0 }
  - { offset: 0x67D0B4, size: 0x8, addend: 0x0, symName: '__ZN5realm4util14UniqueFunctionIFvOyNSt3__18optionalINS_3app8AppErrorEEEEE12SpecificImplIZ56-[RLMMongoCollection deleteOneDocumentWhere:completion:]E3$_6ED1Ev', symObjAddr: 0x3C98, symBinAddr: 0x4296E0, symSize: 0x28 }
  - { offset: 0x67D151, size: 0x8, addend: 0x0, symName: '__ZN5realm4util14UniqueFunctionIFvOyNSt3__18optionalINS_3app8AppErrorEEEEE12SpecificImplIZ56-[RLMMongoCollection deleteOneDocumentWhere:completion:]E3$_6ED0Ev', symObjAddr: 0x3CC0, symBinAddr: 0x429708, symSize: 0x28 }
  - { offset: 0x67D237, size: 0x8, addend: 0x0, symName: '__ZN5realm4util14UniqueFunctionIFvOyNSt3__18optionalINS_3app8AppErrorEEEEE12SpecificImplIZ56-[RLMMongoCollection deleteOneDocumentWhere:completion:]E3$_6E4callES2_OS7_', symObjAddr: 0x3CE8, symBinAddr: 0x429730, symSize: 0xF4 }
  - { offset: 0x67D7EB, size: 0x8, addend: 0x0, symName: '__ZN5realm4util14UniqueFunctionIFvOyNSt3__18optionalINS_3app8AppErrorEEEEE12SpecificImplIZ58-[RLMMongoCollection deleteManyDocumentsWhere:completion:]E3$_7ED1Ev', symObjAddr: 0x3DDC, symBinAddr: 0x429824, symSize: 0x28 }
  - { offset: 0x67D888, size: 0x8, addend: 0x0, symName: '__ZN5realm4util14UniqueFunctionIFvOyNSt3__18optionalINS_3app8AppErrorEEEEE12SpecificImplIZ58-[RLMMongoCollection deleteManyDocumentsWhere:completion:]E3$_7ED0Ev', symObjAddr: 0x3E04, symBinAddr: 0x42984C, symSize: 0x28 }
  - { offset: 0x67D96E, size: 0x8, addend: 0x0, symName: '__ZN5realm4util14UniqueFunctionIFvOyNSt3__18optionalINS_3app8AppErrorEEEEE12SpecificImplIZ58-[RLMMongoCollection deleteManyDocumentsWhere:completion:]E3$_7E4callES2_OS7_', symObjAddr: 0x3E2C, symBinAddr: 0x429874, symSize: 0xF4 }
  - { offset: 0x67DF22, size: 0x8, addend: 0x0, symName: '__ZN5realm4util14UniqueFunctionIFvONS_3app15MongoCollection12UpdateResultENSt3__18optionalINS2_8AppErrorEEEEE12SpecificImplIZ78-[RLMMongoCollection updateOneDocumentWhere:updateDocument:upsert:completion:]E3$_8ED1Ev', symObjAddr: 0x3F20, symBinAddr: 0x429968, symSize: 0x28 }
  - { offset: 0x67DFC0, size: 0x8, addend: 0x0, symName: '__ZN5realm4util14UniqueFunctionIFvONS_3app15MongoCollection12UpdateResultENSt3__18optionalINS2_8AppErrorEEEEE12SpecificImplIZ78-[RLMMongoCollection updateOneDocumentWhere:updateDocument:upsert:completion:]E3$_8ED0Ev', symObjAddr: 0x3F48, symBinAddr: 0x429990, symSize: 0x28 }
  - { offset: 0x67E22D, size: 0x8, addend: 0x0, symName: '__ZN5realm4util14UniqueFunctionIFvONS_3app15MongoCollection12UpdateResultENSt3__18optionalINS2_8AppErrorEEEEE12SpecificImplIZ78-[RLMMongoCollection updateOneDocumentWhere:updateDocument:upsert:completion:]E3$_8E4callES5_OS9_', symObjAddr: 0x3F70, symBinAddr: 0x4299B8, symSize: 0x214 }
  - { offset: 0x67F03B, size: 0x8, addend: 0x0, symName: __ZNSt3__120__optional_copy_baseIN5realm4bson4BsonELb0EEC2B8ne180100ERKS4_, symObjAddr: 0x4184, symBinAddr: 0x429BCC, symSize: 0x5C }
  - { offset: 0x67F229, size: 0x8, addend: 0x0, symName: '__ZN5realm4util14UniqueFunctionIFvONS_3app15MongoCollection12UpdateResultENSt3__18optionalINS2_8AppErrorEEEEE12SpecificImplIZ80-[RLMMongoCollection updateManyDocumentsWhere:updateDocument:upsert:completion:]E3$_9ED1Ev', symObjAddr: 0x41E0, symBinAddr: 0x429C28, symSize: 0x28 }
  - { offset: 0x67F2C7, size: 0x8, addend: 0x0, symName: '__ZN5realm4util14UniqueFunctionIFvONS_3app15MongoCollection12UpdateResultENSt3__18optionalINS2_8AppErrorEEEEE12SpecificImplIZ80-[RLMMongoCollection updateManyDocumentsWhere:updateDocument:upsert:completion:]E3$_9ED0Ev', symObjAddr: 0x4208, symBinAddr: 0x429C50, symSize: 0x28 }
  - { offset: 0x67F3B0, size: 0x8, addend: 0x0, symName: '__ZN5realm4util14UniqueFunctionIFvONS_3app15MongoCollection12UpdateResultENSt3__18optionalINS2_8AppErrorEEEEE12SpecificImplIZ80-[RLMMongoCollection updateManyDocumentsWhere:updateDocument:upsert:completion:]E3$_9E4callES5_OS9_', symObjAddr: 0x4230, symBinAddr: 0x429C78, symSize: 0x214 }
  - { offset: 0x6801DA, size: 0x8, addend: 0x0, symName: '__ZN5realm4util14UniqueFunctionIFvONSt3__18optionalINS_4bson12BsonDocumentEEENS3_INS_3app8AppErrorEEEEE12SpecificImplIZ78-[RLMMongoCollection findOneAndUpdateWhere:updateDocument:options:completion:]E4$_10ED1Ev', symObjAddr: 0x4444, symBinAddr: 0x429E8C, symSize: 0x28 }
  - { offset: 0x680278, size: 0x8, addend: 0x0, symName: '__ZN5realm4util14UniqueFunctionIFvONSt3__18optionalINS_4bson12BsonDocumentEEENS3_INS_3app8AppErrorEEEEE12SpecificImplIZ78-[RLMMongoCollection findOneAndUpdateWhere:updateDocument:options:completion:]E4$_10ED0Ev', symObjAddr: 0x446C, symBinAddr: 0x429EB4, symSize: 0x28 }
  - { offset: 0x680414, size: 0x8, addend: 0x0, symName: '__ZN5realm4util14UniqueFunctionIFvONSt3__18optionalINS_4bson12BsonDocumentEEENS3_INS_3app8AppErrorEEEEE12SpecificImplIZ78-[RLMMongoCollection findOneAndUpdateWhere:updateDocument:options:completion:]E4$_10E4callES7_OSA_', symObjAddr: 0x4494, symBinAddr: 0x429EDC, symSize: 0x16C }
  - { offset: 0x680F14, size: 0x8, addend: 0x0, symName: '__ZN5realm4util14UniqueFunctionIFvONSt3__18optionalINS_4bson12BsonDocumentEEENS3_INS_3app8AppErrorEEEEE12SpecificImplIZ84-[RLMMongoCollection findOneAndReplaceWhere:replacementDocument:options:completion:]E4$_11ED1Ev', symObjAddr: 0x4600, symBinAddr: 0x42A048, symSize: 0x28 }
  - { offset: 0x680FB2, size: 0x8, addend: 0x0, symName: '__ZN5realm4util14UniqueFunctionIFvONSt3__18optionalINS_4bson12BsonDocumentEEENS3_INS_3app8AppErrorEEEEE12SpecificImplIZ84-[RLMMongoCollection findOneAndReplaceWhere:replacementDocument:options:completion:]E4$_11ED0Ev', symObjAddr: 0x4628, symBinAddr: 0x42A070, symSize: 0x28 }
  - { offset: 0x68109B, size: 0x8, addend: 0x0, symName: '__ZN5realm4util14UniqueFunctionIFvONSt3__18optionalINS_4bson12BsonDocumentEEENS3_INS_3app8AppErrorEEEEE12SpecificImplIZ84-[RLMMongoCollection findOneAndReplaceWhere:replacementDocument:options:completion:]E4$_11E4callES7_OSA_', symObjAddr: 0x4650, symBinAddr: 0x42A098, symSize: 0x16C }
  - { offset: 0x681B9B, size: 0x8, addend: 0x0, symName: '__ZN5realm4util14UniqueFunctionIFvONSt3__18optionalINS_4bson12BsonDocumentEEENS3_INS_3app8AppErrorEEEEE12SpecificImplIZ63-[RLMMongoCollection findOneAndDeleteWhere:options:completion:]E4$_12ED1Ev', symObjAddr: 0x47BC, symBinAddr: 0x42A204, symSize: 0x28 }
  - { offset: 0x681C39, size: 0x8, addend: 0x0, symName: '__ZN5realm4util14UniqueFunctionIFvONSt3__18optionalINS_4bson12BsonDocumentEEENS3_INS_3app8AppErrorEEEEE12SpecificImplIZ63-[RLMMongoCollection findOneAndDeleteWhere:options:completion:]E4$_12ED0Ev', symObjAddr: 0x47E4, symBinAddr: 0x42A22C, symSize: 0x28 }
  - { offset: 0x681D22, size: 0x8, addend: 0x0, symName: '__ZN5realm4util14UniqueFunctionIFvONSt3__18optionalINS_4bson12BsonDocumentEEENS3_INS_3app8AppErrorEEEEE12SpecificImplIZ63-[RLMMongoCollection findOneAndDeleteWhere:options:completion:]E4$_12E4callES7_OSA_', symObjAddr: 0x480C, symBinAddr: 0x42A254, symSize: 0x16C }
  - { offset: 0x684926, size: 0x8, addend: 0x0, symName: '-[RLMRequest method]', symObjAddr: 0x0, symBinAddr: 0x42A3C0, symSize: 0x8 }
  - { offset: 0x684940, size: 0x8, addend: 0x0, symName: __ZL23RLMHTTPMethodToNSString, symObjAddr: 0x1890, symBinAddr: 0x639520, symSize: 0x0 }
  - { offset: 0x6893EB, size: 0x8, addend: 0x0, symName: '-[RLMRequest method]', symObjAddr: 0x0, symBinAddr: 0x42A3C0, symSize: 0x8 }
  - { offset: 0x689422, size: 0x8, addend: 0x0, symName: '-[RLMRequest setMethod:]', symObjAddr: 0x8, symBinAddr: 0x42A3C8, symSize: 0x8 }
  - { offset: 0x68945F, size: 0x8, addend: 0x0, symName: '-[RLMRequest url]', symObjAddr: 0x10, symBinAddr: 0x42A3D0, symSize: 0x8 }
  - { offset: 0x689496, size: 0x8, addend: 0x0, symName: '-[RLMRequest setUrl:]', symObjAddr: 0x18, symBinAddr: 0x42A3D8, symSize: 0xC }
  - { offset: 0x6894D7, size: 0x8, addend: 0x0, symName: '-[RLMRequest timeout]', symObjAddr: 0x24, symBinAddr: 0x42A3E4, symSize: 0x8 }
  - { offset: 0x68950C, size: 0x8, addend: 0x0, symName: '-[RLMRequest setTimeout:]', symObjAddr: 0x2C, symBinAddr: 0x42A3EC, symSize: 0x8 }
  - { offset: 0x68954A, size: 0x8, addend: 0x0, symName: '-[RLMRequest headers]', symObjAddr: 0x34, symBinAddr: 0x42A3F4, symSize: 0x8 }
  - { offset: 0x689581, size: 0x8, addend: 0x0, symName: '-[RLMRequest setHeaders:]', symObjAddr: 0x3C, symBinAddr: 0x42A3FC, symSize: 0xC }
  - { offset: 0x6895C2, size: 0x8, addend: 0x0, symName: '-[RLMRequest body]', symObjAddr: 0x48, symBinAddr: 0x42A408, symSize: 0x8 }
  - { offset: 0x6895F9, size: 0x8, addend: 0x0, symName: '-[RLMRequest setBody:]', symObjAddr: 0x50, symBinAddr: 0x42A410, symSize: 0xC }
  - { offset: 0x68963A, size: 0x8, addend: 0x0, symName: '-[RLMRequest .cxx_destruct]', symObjAddr: 0x5C, symBinAddr: 0x42A41C, symSize: 0x3C }
  - { offset: 0x68966D, size: 0x8, addend: 0x0, symName: '-[RLMResponse httpStatusCode]', symObjAddr: 0x98, symBinAddr: 0x42A458, symSize: 0x8 }
  - { offset: 0x6896A4, size: 0x8, addend: 0x0, symName: '-[RLMResponse setHttpStatusCode:]', symObjAddr: 0xA0, symBinAddr: 0x42A460, symSize: 0x8 }
  - { offset: 0x6896E1, size: 0x8, addend: 0x0, symName: '-[RLMResponse customStatusCode]', symObjAddr: 0xA8, symBinAddr: 0x42A468, symSize: 0x8 }
  - { offset: 0x689718, size: 0x8, addend: 0x0, symName: '-[RLMResponse setCustomStatusCode:]', symObjAddr: 0xB0, symBinAddr: 0x42A470, symSize: 0x8 }
  - { offset: 0x689755, size: 0x8, addend: 0x0, symName: '-[RLMResponse headers]', symObjAddr: 0xB8, symBinAddr: 0x42A478, symSize: 0x8 }
  - { offset: 0x68978C, size: 0x8, addend: 0x0, symName: '-[RLMResponse setHeaders:]', symObjAddr: 0xC0, symBinAddr: 0x42A480, symSize: 0xC }
  - { offset: 0x6897CD, size: 0x8, addend: 0x0, symName: '-[RLMResponse body]', symObjAddr: 0xCC, symBinAddr: 0x42A48C, symSize: 0x8 }
  - { offset: 0x689804, size: 0x8, addend: 0x0, symName: '-[RLMResponse setBody:]', symObjAddr: 0xD4, symBinAddr: 0x42A494, symSize: 0xC }
  - { offset: 0x689845, size: 0x8, addend: 0x0, symName: '-[RLMResponse .cxx_destruct]', symObjAddr: 0xE0, symBinAddr: 0x42A4A0, symSize: 0x30 }
  - { offset: 0x689878, size: 0x8, addend: 0x0, symName: '-[RLMNetworkTransport sendRequestToServer:completion:]', symObjAddr: 0x110, symBinAddr: 0x42A4D0, symSize: 0x414 }
  - { offset: 0x68991E, size: 0x8, addend: 0x0, symName: '-[RLMNetworkTransport doStreamRequest:eventSubscriber:]', symObjAddr: 0x524, symBinAddr: 0x42A8E4, symSize: 0x28C }
  - { offset: 0x689B9B, size: 0x8, addend: 0x0, symName: __Z21RLMRequestFromRequestRKN5realm3app7RequestE, symObjAddr: 0x7B0, symBinAddr: 0x42AB70, symSize: 0x204 }
  - { offset: 0x689FCD, size: 0x8, addend: 0x0, symName: '+[RLMSessionDelegate delegateWithCompletion:]', symObjAddr: 0x9B4, symBinAddr: 0x42AD74, symSize: 0x6C }
  - { offset: 0x68A020, size: 0x8, addend: 0x0, symName: '-[RLMSessionDelegate URLSession:dataTask:didReceiveData:]', symObjAddr: 0xA20, symBinAddr: 0x42ADE0, symSize: 0x98 }
  - { offset: 0x68A07B, size: 0x8, addend: 0x0, symName: '-[RLMSessionDelegate URLSession:task:didCompleteWithError:]', symObjAddr: 0xAB8, symBinAddr: 0x42AE78, symSize: 0x198 }
  - { offset: 0x68A106, size: 0x8, addend: 0x0, symName: '-[RLMSessionDelegate .cxx_destruct]', symObjAddr: 0xC50, symBinAddr: 0x42B010, symSize: 0x30 }
  - { offset: 0x68A139, size: 0x8, addend: 0x0, symName: '+[RLMEventSessionDelegate delegateWithEventSubscriber:]', symObjAddr: 0xC80, symBinAddr: 0x42B040, symSize: 0x58 }
  - { offset: 0x68A18C, size: 0x8, addend: 0x0, symName: '-[RLMEventSessionDelegate URLSession:dataTask:didReceiveData:]', symObjAddr: 0xCD8, symBinAddr: 0x42B098, symSize: 0x2EC }
  - { offset: 0x68A21F, size: 0x8, addend: 0x0, symName: '-[RLMEventSessionDelegate URLSession:task:didCompleteWithError:]', symObjAddr: 0xFC4, symBinAddr: 0x42B384, symSize: 0x3E4 }
  - { offset: 0x68A2BE, size: 0x8, addend: 0x0, symName: '-[RLMEventSessionDelegate .cxx_destruct]', symObjAddr: 0x13A8, symBinAddr: 0x42B768, symSize: 0xC }
  - { offset: 0x68C478, size: 0x8, addend: 0x0, symName: '-[RLMObject init]', symObjAddr: 0x0, symBinAddr: 0x42B774, symSize: 0x34 }
  - { offset: 0x6978A4, size: 0x8, addend: 0x0, symName: '-[RLMObject init]', symObjAddr: 0x0, symBinAddr: 0x42B774, symSize: 0x34 }
  - { offset: 0x6978DB, size: 0x8, addend: 0x0, symName: '-[RLMObject initWithValue:]', symObjAddr: 0x34, symBinAddr: 0x42B7A8, symSize: 0xC8 }
  - { offset: 0x69794D, size: 0x8, addend: 0x0, symName: '+[RLMObject createInDefaultRealmWithValue:]', symObjAddr: 0xFC, symBinAddr: 0x42B870, symSize: 0xC8 }
  - { offset: 0x697994, size: 0x8, addend: 0x0, symName: '+[RLMObject createInRealm:withValue:]', symObjAddr: 0x1C4, symBinAddr: 0x42B938, symSize: 0xB4 }
  - { offset: 0x6979EB, size: 0x8, addend: 0x0, symName: '+[RLMObject createOrUpdateInDefaultRealmWithValue:]', symObjAddr: 0x278, symBinAddr: 0x42B9EC, symSize: 0x9C }
  - { offset: 0x697A32, size: 0x8, addend: 0x0, symName: '+[RLMObject createOrUpdateModifiedInDefaultRealmWithValue:]', symObjAddr: 0x314, symBinAddr: 0x42BA88, symSize: 0x9C }
  - { offset: 0x697A79, size: 0x8, addend: 0x0, symName: '+[RLMObject createOrUpdateInRealm:withValue:]', symObjAddr: 0x3B0, symBinAddr: 0x42BB24, symSize: 0xBC }
  - { offset: 0x697AEC, size: 0x8, addend: 0x0, symName: '+[RLMObject createOrUpdateModifiedInRealm:withValue:]', symObjAddr: 0x46C, symBinAddr: 0x42BBE0, symSize: 0xBC }
  - { offset: 0x697B51, size: 0x8, addend: 0x0, symName: '-[RLMObject objectForKeyedSubscript:]', symObjAddr: 0x528, symBinAddr: 0x42BC9C, symSize: 0x20 }
  - { offset: 0x697B98, size: 0x8, addend: 0x0, symName: '-[RLMObject setObject:forKeyedSubscript:]', symObjAddr: 0x548, symBinAddr: 0x42BCBC, symSize: 0x8 }
  - { offset: 0x697BE7, size: 0x8, addend: 0x0, symName: '+[RLMObject allObjects]', symObjAddr: 0x550, symBinAddr: 0x42BCC4, symSize: 0x9C }
  - { offset: 0x697C58, size: 0x8, addend: 0x0, symName: '+[RLMObject allObjectsInRealm:]', symObjAddr: 0x5EC, symBinAddr: 0x42BD60, symSize: 0x60 }
  - { offset: 0x697CAD, size: 0x8, addend: 0x0, symName: '+[RLMObject objectsWhere:]', symObjAddr: 0x64C, symBinAddr: 0x42BDC0, symSize: 0x30 }
  - { offset: 0x697D15, size: 0x8, addend: 0x0, symName: '+[RLMObject objectsWhere:args:]', symObjAddr: 0x67C, symBinAddr: 0x42BDF0, symSize: 0x6C }
  - { offset: 0x697D6C, size: 0x8, addend: 0x0, symName: '+[RLMObject objectsInRealm:where:]', symObjAddr: 0x6E8, symBinAddr: 0x42BE5C, symSize: 0x30 }
  - { offset: 0x697DE4, size: 0x8, addend: 0x0, symName: '+[RLMObject objectsInRealm:where:args:]', symObjAddr: 0x718, symBinAddr: 0x42BE8C, symSize: 0xAC }
  - { offset: 0x697E4B, size: 0x8, addend: 0x0, symName: '+[RLMObject objectsWithPredicate:]', symObjAddr: 0x7C4, symBinAddr: 0x42BF38, symSize: 0xC4 }
  - { offset: 0x697EA0, size: 0x8, addend: 0x0, symName: '+[RLMObject objectsInRealm:withPredicate:]', symObjAddr: 0x888, symBinAddr: 0x42BFFC, symSize: 0xB0 }
  - { offset: 0x697F05, size: 0x8, addend: 0x0, symName: '+[RLMObject objectForPrimaryKey:]', symObjAddr: 0x938, symBinAddr: 0x42C0AC, symSize: 0xC4 }
  - { offset: 0x697F76, size: 0x8, addend: 0x0, symName: '+[RLMObject objectInRealm:forPrimaryKey:]', symObjAddr: 0x9FC, symBinAddr: 0x42C170, symSize: 0xB0 }
  - { offset: 0x697FDB, size: 0x8, addend: 0x0, symName: '-[RLMObject isEqualToObject:]', symObjAddr: 0xAAC, symBinAddr: 0x42C220, symSize: 0x7C }
  - { offset: 0x698047, size: 0x8, addend: 0x0, symName: '-[RLMObject freeze]', symObjAddr: 0xB28, symBinAddr: 0x42C29C, symSize: 0x4 }
  - { offset: 0x69807F, size: 0x8, addend: 0x0, symName: '-[RLMObject freeze]', symObjAddr: 0xB28, symBinAddr: 0x42C29C, symSize: 0x4 }
  - { offset: 0x69809C, size: 0x8, addend: 0x0, symName: '-[RLMObject thaw]', symObjAddr: 0xB2C, symBinAddr: 0x42C2A0, symSize: 0x4 }
  - { offset: 0x6980D4, size: 0x8, addend: 0x0, symName: '-[RLMObject thaw]', symObjAddr: 0xB2C, symBinAddr: 0x42C2A0, symSize: 0x4 }
  - { offset: 0x6980F1, size: 0x8, addend: 0x0, symName: '-[RLMObject isFrozen]', symObjAddr: 0xB30, symBinAddr: 0x42C2A4, symSize: 0x8 }
  - { offset: 0x698128, size: 0x8, addend: 0x0, symName: '-[RLMObject addNotificationBlock:]', symObjAddr: 0xB38, symBinAddr: 0x42C2AC, symSize: 0x28 }
  - { offset: 0x69816F, size: 0x8, addend: 0x0, symName: '-[RLMObject addNotificationBlock:queue:]', symObjAddr: 0xB60, symBinAddr: 0x42C2D4, symSize: 0x24 }
  - { offset: 0x6981C6, size: 0x8, addend: 0x0, symName: '-[RLMObject addNotificationBlock:keyPaths:]', symObjAddr: 0xB84, symBinAddr: 0x42C2F8, symSize: 0x28 }
  - { offset: 0x69821D, size: 0x8, addend: 0x0, symName: '-[RLMObject addNotificationBlock:keyPaths:queue:]', symObjAddr: 0xBAC, symBinAddr: 0x42C320, symSize: 0x28 }
  - { offset: 0x698284, size: 0x8, addend: 0x0, symName: '+[RLMObject className]', symObjAddr: 0xBD4, symBinAddr: 0x42C348, symSize: 0x3C }
  - { offset: 0x6982BB, size: 0x8, addend: 0x0, symName: '+[RLMObject indexedProperties]', symObjAddr: 0xC10, symBinAddr: 0x42C384, symSize: 0x10 }
  - { offset: 0x6982EE, size: 0x8, addend: 0x0, symName: '+[RLMObject linkingObjectsProperties]', symObjAddr: 0xC20, symBinAddr: 0x42C394, symSize: 0x10 }
  - { offset: 0x698321, size: 0x8, addend: 0x0, symName: '+[RLMObject defaultPropertyValues]', symObjAddr: 0xC30, symBinAddr: 0x42C3A4, symSize: 0x8 }
  - { offset: 0x698354, size: 0x8, addend: 0x0, symName: '+[RLMObject primaryKey]', symObjAddr: 0xC38, symBinAddr: 0x42C3AC, symSize: 0x8 }
  - { offset: 0x698387, size: 0x8, addend: 0x0, symName: '+[RLMObject ignoredProperties]', symObjAddr: 0xC40, symBinAddr: 0x42C3B4, symSize: 0x8 }
  - { offset: 0x6983BA, size: 0x8, addend: 0x0, symName: '+[RLMObject requiredProperties]', symObjAddr: 0xC48, symBinAddr: 0x42C3BC, symSize: 0x10 }
  - { offset: 0x6983ED, size: 0x8, addend: 0x0, symName: '+[RLMObject _realmIgnoreClass]', symObjAddr: 0xC58, symBinAddr: 0x42C3CC, symSize: 0x8 }
  - { offset: 0x698420, size: 0x8, addend: 0x0, symName: '+[RLMDynamicObject _realmIgnoreClass]', symObjAddr: 0xC60, symBinAddr: 0x42C3D4, symSize: 0x8 }
  - { offset: 0x698453, size: 0x8, addend: 0x0, symName: '+[RLMDynamicObject shouldIncludeInDefaultSchema]', symObjAddr: 0xC68, symBinAddr: 0x42C3DC, symSize: 0x8 }
  - { offset: 0x698486, size: 0x8, addend: 0x0, symName: '-[RLMDynamicObject valueForUndefinedKey:]', symObjAddr: 0xC70, symBinAddr: 0x42C3E4, symSize: 0x20 }
  - { offset: 0x6984F2, size: 0x8, addend: 0x0, symName: '-[RLMDynamicObject setValue:forUndefinedKey:]', symObjAddr: 0xC90, symBinAddr: 0x42C404, symSize: 0x8 }
  - { offset: 0x698567, size: 0x8, addend: 0x0, symName: '+[RLMDynamicObject sharedSchema]', symObjAddr: 0xC98, symBinAddr: 0x42C40C, symSize: 0x8 }
  - { offset: 0x6985C4, size: 0x8, addend: 0x0, symName: _RLMIsObjectOrSubclass, symObjAddr: 0xCA0, symBinAddr: 0x42C414, symSize: 0x60 }
  - { offset: 0x698636, size: 0x8, addend: 0x0, symName: _RLMIsObjectSubclass, symObjAddr: 0xD00, symBinAddr: 0x42C474, symSize: 0x68 }
  - { offset: 0x69A420, size: 0x8, addend: 0x0, symName: '-[RLMObjectBase init]', symObjAddr: 0x0, symBinAddr: 0x42C4DC, symSize: 0x230 }
  - { offset: 0x69A43A, size: 0x8, addend: 0x0, symName: _RLMDescriptionMaxDepth, symObjAddr: 0x4E48, symBinAddr: 0x59C530, symSize: 0x0 }
  - { offset: 0x69A450, size: 0x8, addend: 0x0, symName: '-[RLMObjectBase descriptionWithMaxDepth:]', symObjAddr: 0x154C, symBinAddr: 0x42DA28, symSize: 0x448 }
  - { offset: 0x6EA245, size: 0x8, addend: 0x0, symName: '-[RLMObjectBase init]', symObjAddr: 0x0, symBinAddr: 0x42C4DC, symSize: 0x230 }
  - { offset: 0x6EA37C, size: 0x8, addend: 0x0, symName: '-[RLMObjectBase dealloc]', symObjAddr: 0x230, symBinAddr: 0x42C70C, symSize: 0x54 }
  - { offset: 0x6EA3F5, size: 0x8, addend: 0x0, symName: _RLMInitializeWithValue, symObjAddr: 0x284, symBinAddr: 0x42C760, symSize: 0x550 }
  - { offset: 0x6EA559, size: 0x8, addend: 0x0, symName: __ZL14RLMCoerceToNilP11objc_object, symObjAddr: 0xC7C, symBinAddr: 0x42D158, symSize: 0xBC }
  - { offset: 0x6EA5C3, size: 0x8, addend: 0x0, symName: __ZL26validatedObjectForPropertyP11objc_objectP15RLMObjectSchemaP11RLMPropertyP9RLMSchema, symObjAddr: 0x7D4, symBinAddr: 0x42CCB0, symSize: 0x4A8 }
  - { offset: 0x6EA702, size: 0x8, addend: 0x0, symName: _RLMValidatedValueForProperty, symObjAddr: 0xD38, symBinAddr: 0x42D214, symSize: 0x14C }
  - { offset: 0x6EA7B4, size: 0x8, addend: 0x0, symName: __ZL18coerceToObjectTypeP11objc_objectP10objc_classP9RLMSchema, symObjAddr: 0x3BC0, symBinAddr: 0x43009C, symSize: 0x104 }
  - { offset: 0x6EA84E, size: 0x8, addend: 0x0, symName: __Z24RLMCreateManagedAccessorP10objc_classP12RLMClassInfo, symObjAddr: 0xE84, symBinAddr: 0x42D360, symSize: 0x44 }
  - { offset: 0x6EA89D, size: 0x8, addend: 0x0, symName: '-[RLMObjectBase valueForKey:]', symObjAddr: 0xEC8, symBinAddr: 0x42D3A4, symSize: 0x98 }
  - { offset: 0x6EA8E4, size: 0x8, addend: 0x0, symName: '-[RLMObjectBase valueForUndefinedKey:]', symObjAddr: 0xF60, symBinAddr: 0x42D43C, symSize: 0x104 }
  - { offset: 0x6EA960, size: 0x8, addend: 0x0, symName: '-[RLMObjectBase setValue:forUndefinedKey:]', symObjAddr: 0x1064, symBinAddr: 0x42D540, symSize: 0x1DC }
  - { offset: 0x6EAA0D, size: 0x8, addend: 0x0, symName: '+[RLMObjectBase className]', symObjAddr: 0x1240, symBinAddr: 0x42D71C, symSize: 0x78 }
  - { offset: 0x6EAA75, size: 0x8, addend: 0x0, symName: '+[RLMObjectBase sharedSchema]', symObjAddr: 0x12B8, symBinAddr: 0x42D794, symSize: 0x2C }
  - { offset: 0x6EAAAC, size: 0x8, addend: 0x0, symName: '+[RLMObjectBase initializeLinkedObjectSchemas]', symObjAddr: 0x12E4, symBinAddr: 0x42D7C0, symSize: 0x21C }
  - { offset: 0x6EAAF6, size: 0x8, addend: 0x0, symName: '+[RLMObjectBase _getProperties]', symObjAddr: 0x1500, symBinAddr: 0x42D9DC, symSize: 0x8 }
  - { offset: 0x6EAB29, size: 0x8, addend: 0x0, symName: '-[RLMObjectBase description]', symObjAddr: 0x1508, symBinAddr: 0x42D9E4, symSize: 0x44 }
  - { offset: 0x6EAB60, size: 0x8, addend: 0x0, symName: '-[RLMObjectBase realm]', symObjAddr: 0x1994, symBinAddr: 0x42DE70, symSize: 0x8 }
  - { offset: 0x6EAB98, size: 0x8, addend: 0x0, symName: '-[RLMObjectBase objectSchema]', symObjAddr: 0x199C, symBinAddr: 0x42DE78, symSize: 0x8 }
  - { offset: 0x6EABD0, size: 0x8, addend: 0x0, symName: '-[RLMObjectBase isInvalidated]', symObjAddr: 0x19A4, symBinAddr: 0x42DE80, symSize: 0x2C }
  - { offset: 0x6EAC30, size: 0x8, addend: 0x0, symName: '-[RLMObjectBase isEqual:]', symObjAddr: 0x19D0, symBinAddr: 0x42DEAC, symSize: 0x110 }
  - { offset: 0x6EACB0, size: 0x8, addend: 0x0, symName: _RLMObjectBaseAreEqual, symObjAddr: 0x1AE0, symBinAddr: 0x42DFBC, symSize: 0x148 }
  - { offset: 0x6EAE33, size: 0x8, addend: 0x0, symName: '-[RLMObjectBase hash]', symObjAddr: 0x1C28, symBinAddr: 0x42E104, symSize: 0x118 }
  - { offset: 0x6EAEA3, size: 0x8, addend: 0x0, symName: '+[RLMObjectBase shouldIncludeInDefaultSchema]', symObjAddr: 0x1D40, symBinAddr: 0x42E21C, symSize: 0x4 }
  - { offset: 0x6EAEDC, size: 0x8, addend: 0x0, symName: '+[RLMObjectBase shouldIncludeInDefaultSchema]', symObjAddr: 0x1D40, symBinAddr: 0x42E21C, symSize: 0x4 }
  - { offset: 0x6EAEF9, size: 0x8, addend: 0x0, symName: '+[RLMObjectBase primaryKey]', symObjAddr: 0x1D44, symBinAddr: 0x42E220, symSize: 0x8 }
  - { offset: 0x6EAF2D, size: 0x8, addend: 0x0, symName: '+[RLMObjectBase _realmObjectName]', symObjAddr: 0x1D4C, symBinAddr: 0x42E228, symSize: 0x8 }
  - { offset: 0x6EAF61, size: 0x8, addend: 0x0, symName: '+[RLMObjectBase _realmColumnNames]', symObjAddr: 0x1D54, symBinAddr: 0x42E230, symSize: 0x8 }
  - { offset: 0x6EAF95, size: 0x8, addend: 0x0, symName: '+[RLMObjectBase _realmIgnoreClass]', symObjAddr: 0x1D5C, symBinAddr: 0x42E238, symSize: 0x8 }
  - { offset: 0x6EAFC9, size: 0x8, addend: 0x0, symName: '+[RLMObjectBase isEmbedded]', symObjAddr: 0x1D64, symBinAddr: 0x42E240, symSize: 0x8 }
  - { offset: 0x6EAFFD, size: 0x8, addend: 0x0, symName: '+[RLMObjectBase isAsymmetric]', symObjAddr: 0x1D6C, symBinAddr: 0x42E248, symSize: 0x8 }
  - { offset: 0x6EB031, size: 0x8, addend: 0x0, symName: '+[RLMObjectBase propertiesMapping]', symObjAddr: 0x1D74, symBinAddr: 0x42E250, symSize: 0x10 }
  - { offset: 0x6EB065, size: 0x8, addend: 0x0, symName: '-[RLMObjectBase mutableArrayValueForKey:]', symObjAddr: 0x1D84, symBinAddr: 0x42E260, symSize: 0xDC }
  - { offset: 0x6EB0BD, size: 0x8, addend: 0x0, symName: '-[RLMObjectBase mutableSetValueForKey:]', symObjAddr: 0x1E60, symBinAddr: 0x42E33C, symSize: 0xDC }
  - { offset: 0x6EB140, size: 0x8, addend: 0x0, symName: '-[RLMObjectBase addObserver:forKeyPath:options:context:]', symObjAddr: 0x1F3C, symBinAddr: 0x42E418, symSize: 0x108 }
  - { offset: 0x6EB2C1, size: 0x8, addend: 0x0, symName: '-[RLMObjectBase removeObserver:forKeyPath:]', symObjAddr: 0x2044, symBinAddr: 0x42E520, symSize: 0xAC }
  - { offset: 0x6EB334, size: 0x8, addend: 0x0, symName: '+[RLMObjectBase automaticallyNotifiesObserversForKey:]', symObjAddr: 0x20F0, symBinAddr: 0x42E5CC, symSize: 0x110 }
  - { offset: 0x6EB3D1, size: 0x8, addend: 0x0, symName: '+[RLMObjectBase observe:keyPaths:block:completion:]', symObjAddr: 0x2200, symBinAddr: 0x42E6DC, symSize: 0x4 }
  - { offset: 0x6EB529, size: 0x8, addend: 0x0, symName: '-[RLMObjectBase makeThreadSafeReference]', symObjAddr: 0x2204, symBinAddr: 0x42E6E0, symSize: 0x88 }
  - { offset: 0x6EB625, size: 0x8, addend: 0x0, symName: '-[RLMObjectBase objectiveCMetadata]', symObjAddr: 0x228C, symBinAddr: 0x42E768, symSize: 0x8 }
  - { offset: 0x6EB6F8, size: 0x8, addend: 0x0, symName: '+[RLMObjectBase objectWithThreadSafeReference:metadata:realm:]', symObjAddr: 0x2294, symBinAddr: 0x42E770, symSize: 0xF4 }
  - { offset: 0x6EB856, size: 0x8, addend: 0x0, symName: '-[RLMObjectBase lastAccessedNames]', symObjAddr: 0x2388, symBinAddr: 0x42E864, symSize: 0x8 }
  - { offset: 0x6EB88D, size: 0x8, addend: 0x0, symName: '-[RLMObjectBase setLastAccessedNames:]', symObjAddr: 0x2390, symBinAddr: 0x42E86C, symSize: 0xC }
  - { offset: 0x6EB8CE, size: 0x8, addend: 0x0, symName: '-[RLMObjectBase .cxx_destruct]', symObjAddr: 0x239C, symBinAddr: 0x42E878, symSize: 0x30 }
  - { offset: 0x6EB901, size: 0x8, addend: 0x0, symName: '-[RLMObjectBase .cxx_construct]', symObjAddr: 0x23CC, symBinAddr: 0x42E8A8, symSize: 0x20 }
  - { offset: 0x6EB939, size: 0x8, addend: 0x0, symName: '-[RLMObjectBase .cxx_construct]', symObjAddr: 0x23CC, symBinAddr: 0x42E8A8, symSize: 0x20 }
  - { offset: 0x6EB958, size: 0x8, addend: 0x0, symName: '-[RLMObjectBase .cxx_construct]', symObjAddr: 0x23CC, symBinAddr: 0x42E8A8, symSize: 0x20 }
  - { offset: 0x6EB977, size: 0x8, addend: 0x0, symName: '-[RLMObjectBase .cxx_construct]', symObjAddr: 0x23CC, symBinAddr: 0x42E8A8, symSize: 0x20 }
  - { offset: 0x6EB996, size: 0x8, addend: 0x0, symName: '-[RLMObjectBase .cxx_construct]', symObjAddr: 0x23CC, symBinAddr: 0x42E8A8, symSize: 0x20 }
  - { offset: 0x6EB9B5, size: 0x8, addend: 0x0, symName: '-[RLMObjectBase .cxx_construct]', symObjAddr: 0x23CC, symBinAddr: 0x42E8A8, symSize: 0x20 }
  - { offset: 0x6EBA56, size: 0x8, addend: 0x0, symName: _RLMObjectBaseRealm, symObjAddr: 0x23EC, symBinAddr: 0x42E8C8, symSize: 0xC }
  - { offset: 0x6EBA82, size: 0x8, addend: 0x0, symName: _RLMObjectBaseObjectSchema, symObjAddr: 0x23F8, symBinAddr: 0x42E8D4, symSize: 0xC }
  - { offset: 0x6EBAAE, size: 0x8, addend: 0x0, symName: _RLMObjectBaseObjectForKeyedSubscript, symObjAddr: 0x2404, symBinAddr: 0x42E8E0, symSize: 0xAC }
  - { offset: 0x6EBB0F, size: 0x8, addend: 0x0, symName: _RLMObjectBaseSetObjectForKeyedSubscript, symObjAddr: 0x24B0, symBinAddr: 0x42E98C, symSize: 0xCC }
  - { offset: 0x6EBB9C, size: 0x8, addend: 0x0, symName: _RLMObjectFreeze, symObjAddr: 0x257C, symBinAddr: 0x42EA58, symSize: 0x120 }
  - { offset: 0x6EBC07, size: 0x8, addend: 0x0, symName: __ZL13resolveObjectP13RLMObjectBaseP8RLMRealm, symObjAddr: 0x269C, symBinAddr: 0x42EB78, symSize: 0x140 }
  - { offset: 0x6EBD15, size: 0x8, addend: 0x0, symName: _RLMObjectThaw, symObjAddr: 0x27DC, symBinAddr: 0x42ECB8, symSize: 0xFC }
  - { offset: 0x6EBD73, size: 0x8, addend: 0x0, symName: '-[RLMPropertyChange description]', symObjAddr: 0x28D8, symBinAddr: 0x42EDB4, symSize: 0x44 }
  - { offset: 0x6EBDAB, size: 0x8, addend: 0x0, symName: '-[RLMPropertyChange name]', symObjAddr: 0x291C, symBinAddr: 0x42EDF8, symSize: 0x8 }
  - { offset: 0x6EBDE3, size: 0x8, addend: 0x0, symName: '-[RLMPropertyChange setName:]', symObjAddr: 0x2924, symBinAddr: 0x42EE00, symSize: 0xC }
  - { offset: 0x6EBE25, size: 0x8, addend: 0x0, symName: '-[RLMPropertyChange previousValue]', symObjAddr: 0x2930, symBinAddr: 0x42EE0C, symSize: 0x8 }
  - { offset: 0x6EBE5D, size: 0x8, addend: 0x0, symName: '-[RLMPropertyChange setPreviousValue:]', symObjAddr: 0x2938, symBinAddr: 0x42EE14, symSize: 0xC }
  - { offset: 0x6EBE9F, size: 0x8, addend: 0x0, symName: '-[RLMPropertyChange value]', symObjAddr: 0x2944, symBinAddr: 0x42EE20, symSize: 0x8 }
  - { offset: 0x6EBED7, size: 0x8, addend: 0x0, symName: '-[RLMPropertyChange setValue:]', symObjAddr: 0x294C, symBinAddr: 0x42EE28, symSize: 0xC }
  - { offset: 0x6EBF19, size: 0x8, addend: 0x0, symName: '-[RLMPropertyChange .cxx_destruct]', symObjAddr: 0x2958, symBinAddr: 0x42EE34, symSize: 0x3C }
  - { offset: 0x6EC009, size: 0x8, addend: 0x0, symName: '-[RLMObjectNotificationToken realm]', symObjAddr: 0x2994, symBinAddr: 0x42EE70, symSize: 0x58 }
  - { offset: 0x6EC12F, size: 0x8, addend: 0x0, symName: '-[RLMObjectNotificationToken suppressNextNotification]', symObjAddr: 0x29EC, symBinAddr: 0x42EEC8, symSize: 0x78 }
  - { offset: 0x6EC408, size: 0x8, addend: 0x0, symName: '-[RLMObjectNotificationToken invalidate]', symObjAddr: 0x2A64, symBinAddr: 0x42EF40, symSize: 0x178 }
  - { offset: 0x6ECAC2, size: 0x8, addend: 0x0, symName: __ZN5realm24CollectionChangeCallbackC1IN12_GLOBAL__N_127ObjectChangeCallbackWrapperEEET_, symObjAddr: 0x2BDC, symBinAddr: 0x42F0B8, symSize: 0x118 }
  - { offset: 0x6ECE8D, size: 0x8, addend: 0x0, symName: '-[RLMObjectNotificationToken observe:keyPaths:block:]', symObjAddr: 0x2CF4, symBinAddr: 0x42F1D0, symSize: 0x310 }
  - { offset: 0x6ED9B7, size: 0x8, addend: 0x0, symName: '-[RLMObjectNotificationToken registrationComplete:]', symObjAddr: 0x3004, symBinAddr: 0x42F4E0, symSize: 0xAC }
  - { offset: 0x6EDB39, size: 0x8, addend: 0x0, symName: _RLMObjectBaseAddNotificationBlock, symObjAddr: 0x30B0, symBinAddr: 0x42F58C, symSize: 0x280 }
  - { offset: 0x6EDC91, size: 0x8, addend: 0x0, symName: ___RLMObjectBaseAddNotificationBlock_block_invoke, symObjAddr: 0x3330, symBinAddr: 0x42F80C, symSize: 0x390 }
  - { offset: 0x6EE47B, size: 0x8, addend: 0x0, symName: ___copy_helper_block_ea8_32s40s48s56s64s72b, symObjAddr: 0x36C0, symBinAddr: 0x42FB9C, symSize: 0x54 }
  - { offset: 0x6EE4A4, size: 0x8, addend: 0x0, symName: '-[RLMObjectNotificationToken .cxx_destruct]', symObjAddr: 0x3714, symBinAddr: 0x42FBF0, symSize: 0x48 }
  - { offset: 0x6EE50C, size: 0x8, addend: 0x0, symName: '-[RLMObjectNotificationToken .cxx_construct]', symObjAddr: 0x375C, symBinAddr: 0x42FC38, symSize: 0x48 }
  - { offset: 0x6EE635, size: 0x8, addend: 0x0, symName: __Z29RLMObjectAddNotificationBlockP13RLMObjectBaseU13block_pointerFvbP7NSArrayIP17RLMPropertyChangeEP7NSErrorEPS1_IP8NSStringEPU28objcproto17OS_dispatch_queue8NSObject, symObjAddr: 0x37A4, symBinAddr: 0x42FC80, symSize: 0xC4 }
  - { offset: 0x6EE6A3, size: 0x8, addend: 0x0, symName: ____Z29RLMObjectAddNotificationBlockP13RLMObjectBaseU13block_pointerFvbP7NSArrayIP17RLMPropertyChangeEP7NSErrorEPS1_IP8NSStringEPU28objcproto17OS_dispatch_queue8NSObject_block_invoke, symObjAddr: 0x3868, symBinAddr: 0x42FD44, symSize: 0x2D4 }
  - { offset: 0x6EE7BE, size: 0x8, addend: 0x0, symName: _RLMObjectBaseGetCombineId, symObjAddr: 0x3B3C, symBinAddr: 0x430018, symSize: 0x64 }
  - { offset: 0x6EE832, size: 0x8, addend: 0x0, symName: '+[RealmSwiftObject accessInstanceVariablesDirectly]', symObjAddr: 0x3BA0, symBinAddr: 0x43007C, symSize: 0x8 }
  - { offset: 0x6EE866, size: 0x8, addend: 0x0, symName: '+[RealmSwiftEmbeddedObject accessInstanceVariablesDirectly]', symObjAddr: 0x3BA8, symBinAddr: 0x430084, symSize: 0x8 }
  - { offset: 0x6EE89A, size: 0x8, addend: 0x0, symName: '+[RealmSwiftAsymmetricObject accessInstanceVariablesDirectly]', symObjAddr: 0x3BB0, symBinAddr: 0x43008C, symSize: 0x8 }
  - { offset: 0x6EE8CE, size: 0x8, addend: 0x0, symName: '+[RealmSwiftAsymmetricObject isAsymmetric]', symObjAddr: 0x3BB8, symBinAddr: 0x430094, symSize: 0x8 }
  - { offset: 0x6EE935, size: 0x8, addend: 0x0, symName: '____ZZ53-[RLMObjectNotificationToken observe:keyPaths:block:]ENK3$_0cvU13block_pointerFvvEEv_block_invoke', symObjAddr: 0x3CC4, symBinAddr: 0x4301A0, symSize: 0x98 }
  - { offset: 0x6EEA9D, size: 0x8, addend: 0x0, symName: '___copy_helper_block_ea8_32c66_ZTSKZ53-[RLMObjectNotificationToken observe:keyPaths:block:]E3$_0', symObjAddr: 0x3D5C, symBinAddr: 0x430238, symSize: 0x28 }
  - { offset: 0x6EEB1A, size: 0x8, addend: 0x0, symName: '___destroy_helper_block_ea8_32c66_ZTSKZ53-[RLMObjectNotificationToken observe:keyPaths:block:]E3$_0', symObjAddr: 0x3D84, symBinAddr: 0x430260, symSize: 0x8 }
  - { offset: 0x6EEB3C, size: 0x8, addend: 0x0, symName: '___destroy_helper_block_ea8_32c66_ZTSKZ53-[RLMObjectNotificationToken observe:keyPaths:block:]E3$_0', symObjAddr: 0x3D84, symBinAddr: 0x430260, symSize: 0x8 }
  - { offset: 0x6EEB5A, size: 0x8, addend: 0x0, symName: '___destroy_helper_block_ea8_32c66_ZTSKZ53-[RLMObjectNotificationToken observe:keyPaths:block:]E3$_0', symObjAddr: 0x3D84, symBinAddr: 0x430260, symSize: 0x8 }
  - { offset: 0x6EEB95, size: 0x8, addend: 0x0, symName: __ZNSt3__120__shared_ptr_emplaceIN5realm24CollectionChangeCallback5Impl2IN12_GLOBAL__N_127ObjectChangeCallbackWrapperEEENS_9allocatorIS6_EEED1Ev, symObjAddr: 0x3D8C, symBinAddr: 0x430268, symSize: 0x10 }
  - { offset: 0x6EEBB9, size: 0x8, addend: 0x0, symName: __ZNSt3__120__shared_ptr_emplaceIN5realm24CollectionChangeCallback5Impl2IN12_GLOBAL__N_127ObjectChangeCallbackWrapperEEENS_9allocatorIS6_EEED1Ev, symObjAddr: 0x3D8C, symBinAddr: 0x430268, symSize: 0x10 }
  - { offset: 0x6EEBF0, size: 0x8, addend: 0x0, symName: __ZNSt3__120__shared_ptr_emplaceIN5realm24CollectionChangeCallback5Impl2IN12_GLOBAL__N_127ObjectChangeCallbackWrapperEEENS_9allocatorIS6_EEED0Ev, symObjAddr: 0x3D9C, symBinAddr: 0x430278, symSize: 0x20 }
  - { offset: 0x6EECC3, size: 0x8, addend: 0x0, symName: __ZNSt3__120__shared_ptr_emplaceIN5realm24CollectionChangeCallback5Impl2IN12_GLOBAL__N_127ObjectChangeCallbackWrapperEEENS_9allocatorIS6_EEE16__on_zero_sharedEv, symObjAddr: 0x3DBC, symBinAddr: 0x430298, symSize: 0xC }
  - { offset: 0x6EECED, size: 0x8, addend: 0x0, symName: __ZNSt3__120__shared_ptr_emplaceIN5realm24CollectionChangeCallback5Impl2IN12_GLOBAL__N_127ObjectChangeCallbackWrapperEEENS_9allocatorIS6_EEE16__on_zero_sharedEv, symObjAddr: 0x3DBC, symBinAddr: 0x430298, symSize: 0xC }
  - { offset: 0x6EED0D, size: 0x8, addend: 0x0, symName: __ZNSt3__120__shared_ptr_emplaceIN5realm24CollectionChangeCallback5Impl2IN12_GLOBAL__N_127ObjectChangeCallbackWrapperEEENS_9allocatorIS6_EEE16__on_zero_sharedEv, symObjAddr: 0x3DBC, symBinAddr: 0x430298, symSize: 0xC }
  - { offset: 0x6EED2D, size: 0x8, addend: 0x0, symName: __ZNSt3__120__shared_ptr_emplaceIN5realm24CollectionChangeCallback5Impl2IN12_GLOBAL__N_127ObjectChangeCallbackWrapperEEENS_9allocatorIS6_EEE16__on_zero_sharedEv, symObjAddr: 0x3DBC, symBinAddr: 0x430298, symSize: 0xC }
  - { offset: 0x6EEDB6, size: 0x8, addend: 0x0, symName: __ZNSt3__120__shared_ptr_emplaceIN5realm24CollectionChangeCallback5Impl2IN12_GLOBAL__N_127ObjectChangeCallbackWrapperEEENS_9allocatorIS6_EEE21__on_zero_shared_weakEv, symObjAddr: 0x3DC8, symBinAddr: 0x4302A4, symSize: 0x4 }
  - { offset: 0x6EEDEB, size: 0x8, addend: 0x0, symName: __ZNSt3__120__shared_ptr_emplaceIN5realm24CollectionChangeCallback5Impl2IN12_GLOBAL__N_127ObjectChangeCallbackWrapperEEENS_9allocatorIS6_EEE21__on_zero_shared_weakEv, symObjAddr: 0x3DC8, symBinAddr: 0x4302A4, symSize: 0x4 }
  - { offset: 0x6EEE10, size: 0x8, addend: 0x0, symName: __ZNSt3__120__shared_ptr_emplaceIN5realm24CollectionChangeCallback5Impl2IN12_GLOBAL__N_127ObjectChangeCallbackWrapperEEENS_9allocatorIS6_EEE21__on_zero_shared_weakEv, symObjAddr: 0x3DC8, symBinAddr: 0x4302A4, symSize: 0x4 }
  - { offset: 0x6EEE35, size: 0x8, addend: 0x0, symName: __ZNSt3__120__shared_ptr_emplaceIN5realm24CollectionChangeCallback5Impl2IN12_GLOBAL__N_127ObjectChangeCallbackWrapperEEENS_9allocatorIS6_EEE21__on_zero_shared_weakEv, symObjAddr: 0x3DC8, symBinAddr: 0x4302A4, symSize: 0x4 }
  - { offset: 0x6EEE65, size: 0x8, addend: 0x0, symName: __ZNSt3__120__shared_ptr_emplaceIN5realm24CollectionChangeCallback5Impl2IN12_GLOBAL__N_127ObjectChangeCallbackWrapperEEENS_9allocatorIS6_EEE21__on_zero_shared_weakEv, symObjAddr: 0x3DC8, symBinAddr: 0x4302A4, symSize: 0x4 }
  - { offset: 0x6EEE8F, size: 0x8, addend: 0x0, symName: __ZNSt3__120__shared_ptr_emplaceIN5realm24CollectionChangeCallback5Impl2IN12_GLOBAL__N_127ObjectChangeCallbackWrapperEEENS_9allocatorIS6_EEE21__on_zero_shared_weakEv, symObjAddr: 0x3DC8, symBinAddr: 0x4302A4, symSize: 0x4 }
  - { offset: 0x6EEED7, size: 0x8, addend: 0x0, symName: __ZN5realm24CollectionChangeCallback5Impl2IN12_GLOBAL__N_127ObjectChangeCallbackWrapperEED1Ev, symObjAddr: 0x3DCC, symBinAddr: 0x4302A8, symSize: 0x48 }
  - { offset: 0x6EEF75, size: 0x8, addend: 0x0, symName: __ZN5realm24CollectionChangeCallback5Impl2IN12_GLOBAL__N_127ObjectChangeCallbackWrapperEED0Ev, symObjAddr: 0x3E14, symBinAddr: 0x4302F0, symSize: 0x48 }
  - { offset: 0x6EF042, size: 0x8, addend: 0x0, symName: __ZN5realm24CollectionChangeCallback5Impl2IN12_GLOBAL__N_127ObjectChangeCallbackWrapperEE6beforeERKNS_19CollectionChangeSetE, symObjAddr: 0x3E5C, symBinAddr: 0x430338, symSize: 0x5C }
  - { offset: 0x6EF0B1, size: 0x8, addend: 0x0, symName: __ZN12_GLOBAL__N_127ObjectChangeCallbackWrapper10readValuesERKN5realm19CollectionChangeSetE, symObjAddr: 0x3FA0, symBinAddr: 0x43047C, symSize: 0x4A4 }
  - { offset: 0x6EF2EF, size: 0x8, addend: 0x0, symName: __ZN5realm24CollectionChangeCallback5Impl2IN12_GLOBAL__N_127ObjectChangeCallbackWrapperEE5afterERKNS_19CollectionChangeSetE, symObjAddr: 0x3EB8, symBinAddr: 0x430394, symSize: 0xE8 }
  - { offset: 0x6EF4C3, size: 0x8, addend: 0x0, symName: __ZNKSt3__112__hash_tableINS_17__hash_value_typeIxN5realm8IndexSetEEENS_22__unordered_map_hasherIxS4_NS_4hashIxEENS_8equal_toIxEELb1EEENS_21__unordered_map_equalIxS4_S9_S7_Lb1EEENS_9allocatorIS4_EEE4findIxEENS_21__hash_const_iteratorIPNS_11__hash_nodeIS4_PvEEEERKT_, symObjAddr: 0x4444, symBinAddr: 0x430920, symSize: 0xA8 }
  - { offset: 0x6F180A, size: 0x8, addend: 0x0, symName: '-[RLMObjectId init]', symObjAddr: 0x0, symBinAddr: 0x4309C8, symSize: 0xB8 }
  - { offset: 0x6F50D9, size: 0x8, addend: 0x0, symName: '-[RLMObjectId init]', symObjAddr: 0x0, symBinAddr: 0x4309C8, symSize: 0xB8 }
  - { offset: 0x6F51BA, size: 0x8, addend: 0x0, symName: '-[RLMObjectId initWithString:error:]', symObjAddr: 0xB8, symBinAddr: 0x430A80, symSize: 0x214 }
  - { offset: 0x6F545C, size: 0x8, addend: 0x0, symName: '-[RLMObjectId initWithTimestamp:machineIdentifier:processIdentifier:]', symObjAddr: 0x2CC, symBinAddr: 0x430C94, symSize: 0x1D4 }
  - { offset: 0x6F56A7, size: 0x8, addend: 0x0, symName: '-[RLMObjectId copyWithZone:]', symObjAddr: 0x4D4, symBinAddr: 0x430E68, symSize: 0x4 }
  - { offset: 0x6F570B, size: 0x8, addend: 0x0, symName: '+[RLMObjectId objectId]', symObjAddr: 0x4D8, symBinAddr: 0x430E6C, symSize: 0x54 }
  - { offset: 0x6F57C9, size: 0x8, addend: 0x0, symName: '-[RLMObjectId isEqual:]', symObjAddr: 0x52C, symBinAddr: 0x430EC0, symSize: 0x98 }
  - { offset: 0x6F59C7, size: 0x8, addend: 0x0, symName: '-[RLMObjectId isGreaterThan:]', symObjAddr: 0x5C4, symBinAddr: 0x430F58, symSize: 0x98 }
  - { offset: 0x6F5B35, size: 0x8, addend: 0x0, symName: '-[RLMObjectId isGreaterThanOrEqualTo:]', symObjAddr: 0x678, symBinAddr: 0x430FF0, symSize: 0x98 }
  - { offset: 0x6F5CA3, size: 0x8, addend: 0x0, symName: '-[RLMObjectId isLessThan:]', symObjAddr: 0x710, symBinAddr: 0x431088, symSize: 0x98 }
  - { offset: 0x6F5E11, size: 0x8, addend: 0x0, symName: '-[RLMObjectId isLessThanOrEqualTo:]', symObjAddr: 0x7A8, symBinAddr: 0x431120, symSize: 0x98 }
  - { offset: 0x6F5F5D, size: 0x8, addend: 0x0, symName: '-[RLMObjectId hash]', symObjAddr: 0x840, symBinAddr: 0x4311B8, symSize: 0x8 }
  - { offset: 0x6F5F94, size: 0x8, addend: 0x0, symName: '-[RLMObjectId description]', symObjAddr: 0x848, symBinAddr: 0x4311C0, symSize: 0x4 }
  - { offset: 0x6F60DC, size: 0x8, addend: 0x0, symName: '-[RLMObjectId stringValue]', symObjAddr: 0x84C, symBinAddr: 0x4311C4, symSize: 0x8C }
  - { offset: 0x6F644B, size: 0x8, addend: 0x0, symName: '-[RLMObjectId timestamp]', symObjAddr: 0x8D8, symBinAddr: 0x431250, symSize: 0x68 }
  - { offset: 0x6F64FA, size: 0x8, addend: 0x0, symName: '-[RLMObjectId .cxx_construct]', symObjAddr: 0x940, symBinAddr: 0x4312B8, symSize: 0xC }
  - { offset: 0x6F6532, size: 0x8, addend: 0x0, symName: '-[RLMObjectId .cxx_construct]', symObjAddr: 0x940, symBinAddr: 0x4312B8, symSize: 0xC }
  - { offset: 0x6F6551, size: 0x8, addend: 0x0, symName: '-[RLMObjectId .cxx_construct]', symObjAddr: 0x940, symBinAddr: 0x4312B8, symSize: 0xC }
  - { offset: 0x6F82D9, size: 0x8, addend: 0x0, symName: '-[RLMObjectSchema initWithClassName:objectClass:properties:]', symObjAddr: 0x0, symBinAddr: 0x4312C4, symSize: 0xFC }
  - { offset: 0x6FDD96, size: 0x8, addend: 0x0, symName: '-[RLMObjectSchema initWithClassName:objectClass:properties:]', symObjAddr: 0x0, symBinAddr: 0x4312C4, symSize: 0xFC }
  - { offset: 0x6FDDFD, size: 0x8, addend: 0x0, symName: '-[RLMObjectSchema objectForKeyedSubscript:]', symObjAddr: 0xFC, symBinAddr: 0x4313C0, symSize: 0x8 }
  - { offset: 0x6FDE42, size: 0x8, addend: 0x0, symName: '-[RLMObjectSchema setProperties:]', symObjAddr: 0x104, symBinAddr: 0x4313C8, symSize: 0x2C }
  - { offset: 0x6FDE85, size: 0x8, addend: 0x0, symName: '-[RLMObjectSchema setComputedProperties:]', symObjAddr: 0x130, symBinAddr: 0x4313F4, symSize: 0x2C }
  - { offset: 0x6FDEC8, size: 0x8, addend: 0x0, symName: '-[RLMObjectSchema _propertiesDidChange]', symObjAddr: 0x15C, symBinAddr: 0x431420, symSize: 0x4A0 }
  - { offset: 0x6FDFC5, size: 0x8, addend: 0x0, symName: '-[RLMObjectSchema setPrimaryKeyProperty:]', symObjAddr: 0x5FC, symBinAddr: 0x4318C0, symSize: 0x7C }
  - { offset: 0x6FE041, size: 0x8, addend: 0x0, symName: '+[RLMObjectSchema schemaForObjectClass:]', symObjAddr: 0x678, symBinAddr: 0x43193C, symSize: 0xAF8 }
  - { offset: 0x6FE2A8, size: 0x8, addend: 0x0, symName: __ZL15RLMTypeToString15RLMPropertyType, symObjAddr: 0x1234, symBinAddr: 0x4324F8, symSize: 0x24 }
  - { offset: 0x6FE2D7, size: 0x8, addend: 0x0, symName: '___40+[RLMObjectSchema schemaForObjectClass:]_block_invoke', symObjAddr: 0x1170, symBinAddr: 0x432434, symSize: 0x50 }
  - { offset: 0x6FE338, size: 0x8, addend: 0x0, symName: '___40+[RLMObjectSchema schemaForObjectClass:]_block_invoke_2', symObjAddr: 0x11C0, symBinAddr: 0x432484, symSize: 0x50 }
  - { offset: 0x6FE399, size: 0x8, addend: 0x0, symName: '___40+[RLMObjectSchema schemaForObjectClass:]_block_invoke_3', symObjAddr: 0x1210, symBinAddr: 0x4324D4, symSize: 0x24 }
  - { offset: 0x6FE4EE, size: 0x8, addend: 0x0, symName: '+[RLMObjectSchema propertiesForClass:isSwift:]', symObjAddr: 0x1258, symBinAddr: 0x43251C, symSize: 0x718 }
  - { offset: 0x6FE795, size: 0x8, addend: 0x0, symName: '-[RLMObjectSchema copyWithZone:]', symObjAddr: 0x1970, symBinAddr: 0x432C34, symSize: 0xF4 }
  - { offset: 0x6FE7ED, size: 0x8, addend: 0x0, symName: '-[RLMObjectSchema isEqualToObjectSchema:]', symObjAddr: 0x1A64, symBinAddr: 0x432D28, symSize: 0x110 }
  - { offset: 0x6FE835, size: 0x8, addend: 0x0, symName: '-[RLMObjectSchema description]', symObjAddr: 0x1B74, symBinAddr: 0x432E38, symSize: 0x388 }
  - { offset: 0x6FE8AB, size: 0x8, addend: 0x0, symName: '-[RLMObjectSchema objectName]', symObjAddr: 0x1EFC, symBinAddr: 0x4331C0, symSize: 0x4C }
  - { offset: 0x6FE9A3, size: 0x8, addend: 0x0, symName: '-[RLMObjectSchema objectStoreName]', symObjAddr: 0x1F48, symBinAddr: 0x43320C, symSize: 0x7C }
  - { offset: 0x6FED16, size: 0x8, addend: 0x0, symName: '-[RLMObjectSchema objectStoreCopy:]', symObjAddr: 0x1FC4, symBinAddr: 0x433288, symSize: 0x4D0 }
  - { offset: 0x6FFD82, size: 0x8, addend: 0x0, symName: __ZNSt3__16vectorIN5realm8PropertyENS_9allocatorIS2_EEE21__push_back_slow_pathIS2_EEPS2_OT_, symObjAddr: 0x2A0C, symBinAddr: 0x433C70, symSize: 0x204 }
  - { offset: 0x7008D7, size: 0x8, addend: 0x0, symName: '+[RLMObjectSchema objectSchemaForObjectStoreSchema:]', symObjAddr: 0x24F4, symBinAddr: 0x433758, symSize: 0x3D8 }
  - { offset: 0x700D6C, size: 0x8, addend: 0x0, symName: '-[RLMObjectSchema properties]', symObjAddr: 0x28CC, symBinAddr: 0x433B30, symSize: 0x8 }
  - { offset: 0x700DA3, size: 0x8, addend: 0x0, symName: '-[RLMObjectSchema className]', symObjAddr: 0x28D4, symBinAddr: 0x433B38, symSize: 0x8 }
  - { offset: 0x700DDA, size: 0x8, addend: 0x0, symName: '-[RLMObjectSchema setClassName:]', symObjAddr: 0x28DC, symBinAddr: 0x433B40, symSize: 0xC }
  - { offset: 0x700E1B, size: 0x8, addend: 0x0, symName: '-[RLMObjectSchema primaryKeyProperty]', symObjAddr: 0x28E8, symBinAddr: 0x433B4C, symSize: 0x8 }
  - { offset: 0x700E52, size: 0x8, addend: 0x0, symName: '-[RLMObjectSchema isEmbedded]', symObjAddr: 0x28F0, symBinAddr: 0x433B54, symSize: 0x8 }
  - { offset: 0x700E89, size: 0x8, addend: 0x0, symName: '-[RLMObjectSchema setIsEmbedded:]', symObjAddr: 0x28F8, symBinAddr: 0x433B5C, symSize: 0x8 }
  - { offset: 0x700EC4, size: 0x8, addend: 0x0, symName: '-[RLMObjectSchema isAsymmetric]', symObjAddr: 0x2900, symBinAddr: 0x433B64, symSize: 0x8 }
  - { offset: 0x700EFB, size: 0x8, addend: 0x0, symName: '-[RLMObjectSchema setIsAsymmetric:]', symObjAddr: 0x2908, symBinAddr: 0x433B6C, symSize: 0x8 }
  - { offset: 0x700F36, size: 0x8, addend: 0x0, symName: '-[RLMObjectSchema allPropertiesByName]', symObjAddr: 0x2910, symBinAddr: 0x433B74, symSize: 0x8 }
  - { offset: 0x700F6D, size: 0x8, addend: 0x0, symName: '-[RLMObjectSchema setAllPropertiesByName:]', symObjAddr: 0x2918, symBinAddr: 0x433B7C, symSize: 0xC }
  - { offset: 0x700FAE, size: 0x8, addend: 0x0, symName: '-[RLMObjectSchema isSwiftClass]', symObjAddr: 0x2924, symBinAddr: 0x433B88, symSize: 0x8 }
  - { offset: 0x700FE5, size: 0x8, addend: 0x0, symName: '-[RLMObjectSchema setIsSwiftClass:]', symObjAddr: 0x292C, symBinAddr: 0x433B90, symSize: 0x8 }
  - { offset: 0x701020, size: 0x8, addend: 0x0, symName: '-[RLMObjectSchema objectClass]', symObjAddr: 0x2934, symBinAddr: 0x433B98, symSize: 0x8 }
  - { offset: 0x701057, size: 0x8, addend: 0x0, symName: '-[RLMObjectSchema setObjectClass:]', symObjAddr: 0x293C, symBinAddr: 0x433BA0, symSize: 0x8 }
  - { offset: 0x701094, size: 0x8, addend: 0x0, symName: '-[RLMObjectSchema accessorClass]', symObjAddr: 0x2944, symBinAddr: 0x433BA8, symSize: 0x8 }
  - { offset: 0x7010CB, size: 0x8, addend: 0x0, symName: '-[RLMObjectSchema setAccessorClass:]', symObjAddr: 0x294C, symBinAddr: 0x433BB0, symSize: 0x8 }
  - { offset: 0x701108, size: 0x8, addend: 0x0, symName: '-[RLMObjectSchema unmanagedClass]', symObjAddr: 0x2954, symBinAddr: 0x433BB8, symSize: 0x8 }
  - { offset: 0x70113F, size: 0x8, addend: 0x0, symName: '-[RLMObjectSchema setUnmanagedClass:]', symObjAddr: 0x295C, symBinAddr: 0x433BC0, symSize: 0x8 }
  - { offset: 0x70117C, size: 0x8, addend: 0x0, symName: '-[RLMObjectSchema hasCustomEventSerialization]', symObjAddr: 0x2964, symBinAddr: 0x433BC8, symSize: 0x8 }
  - { offset: 0x7011B3, size: 0x8, addend: 0x0, symName: '-[RLMObjectSchema setHasCustomEventSerialization:]', symObjAddr: 0x296C, symBinAddr: 0x433BD0, symSize: 0x8 }
  - { offset: 0x7011EE, size: 0x8, addend: 0x0, symName: '-[RLMObjectSchema computedProperties]', symObjAddr: 0x2974, symBinAddr: 0x433BD8, symSize: 0x8 }
  - { offset: 0x701225, size: 0x8, addend: 0x0, symName: '-[RLMObjectSchema swiftGenericProperties]', symObjAddr: 0x297C, symBinAddr: 0x433BE0, symSize: 0x8 }
  - { offset: 0x70125C, size: 0x8, addend: 0x0, symName: '-[RLMObjectSchema .cxx_destruct]', symObjAddr: 0x2984, symBinAddr: 0x433BE8, symSize: 0x7C }
  - { offset: 0x701491, size: 0x8, addend: 0x0, symName: '-[RLMObjectSchema .cxx_construct]', symObjAddr: 0x2A00, symBinAddr: 0x433C64, symSize: 0xC }
  - { offset: 0x7014C9, size: 0x8, addend: 0x0, symName: '-[RLMObjectSchema .cxx_construct]', symObjAddr: 0x2A00, symBinAddr: 0x433C64, symSize: 0xC }
  - { offset: 0x7014E8, size: 0x8, addend: 0x0, symName: '-[RLMObjectSchema .cxx_construct]', symObjAddr: 0x2A00, symBinAddr: 0x433C64, symSize: 0xC }
  - { offset: 0x701508, size: 0x8, addend: 0x0, symName: '-[RLMObjectSchema .cxx_construct]', symObjAddr: 0x2A00, symBinAddr: 0x433C64, symSize: 0xC }
  - { offset: 0x701528, size: 0x8, addend: 0x0, symName: '-[RLMObjectSchema .cxx_construct]', symObjAddr: 0x2A00, symBinAddr: 0x433C64, symSize: 0xC }
  - { offset: 0x701547, size: 0x8, addend: 0x0, symName: '-[RLMObjectSchema .cxx_construct]', symObjAddr: 0x2A00, symBinAddr: 0x433C64, symSize: 0xC }
  - { offset: 0x7038C8, size: 0x8, addend: 0x0, symName: _RLMVerifyInWriteTransaction, symObjAddr: 0x0, symBinAddr: 0x433E74, symSize: 0x78 }
  - { offset: 0x70661B, size: 0x8, addend: 0x0, symName: __ZN5realm4util6formatIJRKNSt3__112basic_stringIcNS2_11char_traitsIcEENS2_9allocatorIcEEEESA_EEES8_PKcDpOT_, symObjAddr: 0x1820, symBinAddr: 0x43560C, symSize: 0xA4 }
  - { offset: 0x75218A, size: 0x8, addend: 0x0, symName: _RLMVerifyInWriteTransaction, symObjAddr: 0x0, symBinAddr: 0x433E74, symSize: 0x78 }
  - { offset: 0x752320, size: 0x8, addend: 0x0, symName: _RLMInitializeSwiftAccessor, symObjAddr: 0x78, symBinAddr: 0x433EEC, symSize: 0x21C }
  - { offset: 0x7523E5, size: 0x8, addend: 0x0, symName: _RLMVerifyHasPrimaryKey, symObjAddr: 0x294, symBinAddr: 0x434108, symSize: 0xFC }
  - { offset: 0x752468, size: 0x8, addend: 0x0, symName: _RLMAddObjectToRealm, symObjAddr: 0x390, symBinAddr: 0x434204, symSize: 0x110 }
  - { offset: 0x752717, size: 0x8, addend: 0x0, symName: _RLMCreateObjectInRealmWithValue, symObjAddr: 0x4A0, symBinAddr: 0x434314, symSize: 0x1B4 }
  - { offset: 0x752A1B, size: 0x8, addend: 0x0, symName: _RLMCreateAsymmetricObjectInRealm, symObjAddr: 0x654, symBinAddr: 0x4344C8, symSize: 0x10C }
  - { offset: 0x752EF9, size: 0x8, addend: 0x0, symName: __Z20RLMObjectFromObjLinkP8RLMRealmON5realm7ObjLinkEb, symObjAddr: 0x760, symBinAddr: 0x4345D4, symSize: 0x2B4 }
  - { offset: 0x7533D9, size: 0x8, addend: 0x0, symName: __Z23RLMCreateObjectAccessorR12RLMClassInfox, symObjAddr: 0xA14, symBinAddr: 0x434888, symSize: 0x50 }
  - { offset: 0x753426, size: 0x8, addend: 0x0, symName: __Z23RLMCreateObjectAccessorR12RLMClassInfoRKN5realm3ObjE, symObjAddr: 0x1728, symBinAddr: 0x43559C, symSize: 0x70 }
  - { offset: 0x753483, size: 0x8, addend: 0x0, symName: _RLMDeleteObjectFromRealm, symObjAddr: 0xA64, symBinAddr: 0x4348D8, symSize: 0xB0 }
  - { offset: 0x75359A, size: 0x8, addend: 0x0, symName: _RLMDeleteAllObjectsFromRealm, symObjAddr: 0xB14, symBinAddr: 0x434988, symSize: 0x58 }
  - { offset: 0x753BA1, size: 0x8, addend: 0x0, symName: _RLMGetObjects, symObjAddr: 0xB6C, symBinAddr: 0x4349E0, symSize: 0x3C4 }
  - { offset: 0x755878, size: 0x8, addend: 0x0, symName: _RLMGetObject, symObjAddr: 0xF30, symBinAddr: 0x434DA4, symSize: 0x7F8 }
  - { offset: 0x75B7F0, size: 0x8, addend: 0x0, symName: __ZN18RLMObservationInfoC2ER12RLMClassInfoN5realm6ObjKeyEP11objc_object, symObjAddr: 0x0, symBinAddr: 0x4356B0, symSize: 0xC4 }
  - { offset: 0x7A1E5C, size: 0x8, addend: 0x0, symName: __ZNSt3__111__introsortINS_17_ClassicAlgPolicyERNS_6__lessIvvEEPN5realm14BindingContext13ObserverStateELb0EEEvT1_S9_T0_NS_15iterator_traitsIS9_E15difference_typeEb, symObjAddr: 0x1D90, symBinAddr: 0x4373A8, symSize: 0xBF8 }
  - { offset: 0x7A4DC0, size: 0x8, addend: 0x0, symName: __ZNSt3__127__insertion_sort_incompleteB8ne180100INS_17_ClassicAlgPolicyERNS_6__lessIvvEEPN5realm14BindingContext13ObserverStateEEEbT1_S9_T0_, symObjAddr: 0x2B40, symBinAddr: 0x438158, symSize: 0x250 }
  - { offset: 0x7A5443, size: 0x8, addend: 0x0, symName: __ZNSt3__111__introsortINS_17_ClassicAlgPolicyERZN21RLMObservationTracker19cascadeNotificationIN5realm5Group19CascadeNotificationEEEvRKT_EUlS7_T0_E_PPNS_6vectorIP18RLMObservationInfoNS_9allocatorISF_EEEELb0EEEvT1_SL_SA_NS_15iterator_traitsISL_E15difference_typeEb, symObjAddr: 0x3A98, symBinAddr: 0x439014, symSize: 0xB8C }
  - { offset: 0x7A7DB7, size: 0x8, addend: 0x0, symName: __ZNSt3__127__insertion_sort_incompleteB8ne180100INS_17_ClassicAlgPolicyERZN21RLMObservationTracker19cascadeNotificationIN5realm5Group19CascadeNotificationEEEvRKT_EUlS7_T0_E_PPNS_6vectorIP18RLMObservationInfoNS_9allocatorISF_EEEEEEbT1_SL_SA_, symObjAddr: 0x4808, symBinAddr: 0x439D84, symSize: 0x238 }
  - { offset: 0x7A8D59, size: 0x8, addend: 0x0, symName: __ZNSt3__119__allocate_at_leastB8ne180100INS_9allocatorIP18RLMObservationInfoEEEENS_19__allocation_resultINS_16allocator_traitsIT_E7pointerEEERS7_m, symObjAddr: 0x1A94, symBinAddr: 0x437144, symSize: 0x34 }
  - { offset: 0x7A9708, size: 0x8, addend: 0x0, symName: __ZNSt3__119__allocate_at_leastB8ne180100INS_9allocatorIN5realm14BindingContext13ObserverStateEEEEENS_19__allocation_resultINS_16allocator_traitsIT_E7pointerEEERS8_m, symObjAddr: 0x1C88, symBinAddr: 0x4372A0, symSize: 0x34 }
  - { offset: 0x7AA9E3, size: 0x8, addend: 0x0, symName: __ZNSt3__17__sort3B8ne180100INS_17_ClassicAlgPolicyERNS_6__lessIvvEEPN5realm14BindingContext13ObserverStateEEEjT1_S9_S9_T0_, symObjAddr: 0x2A24, symBinAddr: 0x43803C, symSize: 0x11C }
  - { offset: 0x7AAD71, size: 0x8, addend: 0x0, symName: __ZNSt3__17__sort4B8ne180100INS_17_ClassicAlgPolicyERNS_6__lessIvvEEPN5realm14BindingContext13ObserverStateEEEvT1_S9_S9_S9_T0_, symObjAddr: 0x2E68, symBinAddr: 0x438480, symSize: 0xF4 }
  - { offset: 0x7AB083, size: 0x8, addend: 0x0, symName: __ZNSt3__17__sort5B8ne180100INS_17_ClassicAlgPolicyERNS_6__lessIvvEEPN5realm14BindingContext13ObserverStateEEEvT1_S9_S9_S9_S9_T0_, symObjAddr: 0x2F5C, symBinAddr: 0x438574, symSize: 0x140 }
  - { offset: 0x7AC767, size: 0x8, addend: 0x0, symName: __ZNSt3__17__sort3B8ne180100INS_17_ClassicAlgPolicyERZN21RLMObservationTracker19cascadeNotificationIN5realm5Group19CascadeNotificationEEEvRKT_EUlS7_T0_E_PPNS_6vectorIP18RLMObservationInfoNS_9allocatorISF_EEEEEEjT1_SL_SL_SA_, symObjAddr: 0x4624, symBinAddr: 0x439BA0, symSize: 0x1E4 }
  - { offset: 0x7AD118, size: 0x8, addend: 0x0, symName: __ZNSt3__17__sort4B8ne180100INS_17_ClassicAlgPolicyERZN21RLMObservationTracker19cascadeNotificationIN5realm5Group19CascadeNotificationEEEvRKT_EUlS7_T0_E_PPNS_6vectorIP18RLMObservationInfoNS_9allocatorISF_EEEEEEvT1_SL_SL_SL_SA_, symObjAddr: 0x4A40, symBinAddr: 0x439FBC, symSize: 0x14C }
  - { offset: 0x7AD727, size: 0x8, addend: 0x0, symName: __ZNSt3__17__sort5B8ne180100INS_17_ClassicAlgPolicyERZN21RLMObservationTracker19cascadeNotificationIN5realm5Group19CascadeNotificationEEEvRKT_EUlS7_T0_E_PPNS_6vectorIP18RLMObservationInfoNS_9allocatorISF_EEEEEEvT1_SL_SL_SL_SL_SA_, symObjAddr: 0x4B8C, symBinAddr: 0x43A108, symSize: 0x1B0 }
  - { offset: 0x7B2A16, size: 0x8, addend: 0x0, symName: __ZN18RLMObservationInfo11valueForKeyEP8NSString, symObjAddr: 0x970, symBinAddr: 0x436020, symSize: 0x428 }
  - { offset: 0x7B2A3C, size: 0x8, addend: 0x0, symName: __MergedGlobals, symObjAddr: 0x2852A8, symBinAddr: 0x667058, symSize: 0x0 }
  - { offset: 0x7B33C0, size: 0x8, addend: 0x0, symName: __ZNSt3__16vectorIN5realm14BindingContext13ObserverStateENS_9allocatorIS3_EEE26__swap_out_circular_bufferERNS_14__split_bufferIS3_RS5_EE, symObjAddr: 0x1BC0, symBinAddr: 0x4371EC, symSize: 0xB4 }
  - { offset: 0x7B38D7, size: 0x8, addend: 0x0, symName: __ZN18RLMObservationInfoC2ER12RLMClassInfoN5realm6ObjKeyEP11objc_object, symObjAddr: 0x0, symBinAddr: 0x4356B0, symSize: 0xC4 }
  - { offset: 0x7B3A02, size: 0x8, addend: 0x0, symName: __ZN18RLMObservationInfo6setRowERKN5realm5TableENS0_6ObjKeyE, symObjAddr: 0xC4, symBinAddr: 0x435774, symSize: 0x154 }
  - { offset: 0x7B3F46, size: 0x8, addend: 0x0, symName: __ZN18RLMObservationInfoC1ER12RLMClassInfoN5realm6ObjKeyEP11objc_object, symObjAddr: 0x218, symBinAddr: 0x4358C8, symSize: 0x4 }
  - { offset: 0x7B436E, size: 0x8, addend: 0x0, symName: __ZNKSt3__16vectorIP18RLMObservationInfoNS_9allocatorIS2_EEE20__throw_length_errorB8ne180100Ev, symObjAddr: 0x1A80, symBinAddr: 0x437130, symSize: 0x14 }
  - { offset: 0x7B4391, size: 0x8, addend: 0x0, symName: __ZN18RLMObservationInfoC1ER12RLMClassInfoN5realm6ObjKeyEP11objc_object, symObjAddr: 0x218, symBinAddr: 0x4358C8, symSize: 0x4 }
  - { offset: 0x7B43E9, size: 0x8, addend: 0x0, symName: __ZN18RLMObservationInfoC1ER12RLMClassInfoN5realm6ObjKeyEP11objc_object, symObjAddr: 0x218, symBinAddr: 0x4358C8, symSize: 0x4 }
  - { offset: 0x7B43F4, size: 0x8, addend: 0x0, symName: __ZN18RLMObservationInfoC2EP11objc_object, symObjAddr: 0x21C, symBinAddr: 0x4358CC, symSize: 0x34 }
  - { offset: 0x7B4505, size: 0x8, addend: 0x0, symName: __ZN18RLMObservationInfoC1EP11objc_object, symObjAddr: 0x250, symBinAddr: 0x435900, symSize: 0x34 }
  - { offset: 0x7B4541, size: 0x8, addend: 0x0, symName: __ZN18RLMObservationInfoC1EP11objc_object, symObjAddr: 0x250, symBinAddr: 0x435900, symSize: 0x34 }
  - { offset: 0x7B46BA, size: 0x8, addend: 0x0, symName: __ZN18RLMObservationInfoD2Ev, symObjAddr: 0x284, symBinAddr: 0x435934, symSize: 0xC8 }
  - { offset: 0x7B4851, size: 0x8, addend: 0x0, symName: __ZN18RLMObservationInfoD1Ev, symObjAddr: 0x34C, symBinAddr: 0x4359FC, symSize: 0x4 }
  - { offset: 0x7B487F, size: 0x8, addend: 0x0, symName: __ZN18RLMObservationInfoD1Ev, symObjAddr: 0x34C, symBinAddr: 0x4359FC, symSize: 0x4 }
  - { offset: 0x7B488A, size: 0x8, addend: 0x0, symName: __ZNK18RLMObservationInfo10columnNameEN5realm6ColKeyE, symObjAddr: 0x350, symBinAddr: 0x435A00, symSize: 0x4C }
  - { offset: 0x7B48C3, size: 0x8, addend: 0x0, symName: __ZNK18RLMObservationInfo10willChangeEP8NSString16NSKeyValueChangeP10NSIndexSet, symObjAddr: 0x39C, symBinAddr: 0x435A4C, symSize: 0x204 }
  - { offset: 0x7B4C0F, size: 0x8, addend: 0x0, symName: __ZNK18RLMObservationInfo9didChangeEP8NSString16NSKeyValueChangeP10NSIndexSet, symObjAddr: 0x5A0, symBinAddr: 0x435C50, symSize: 0x204 }
  - { offset: 0x7B4F56, size: 0x8, addend: 0x0, symName: __ZN18RLMObservationInfo22prepareForInvalidationEv, symObjAddr: 0x7A4, symBinAddr: 0x435E54, symSize: 0x18 }
  - { offset: 0x7B4F77, size: 0x8, addend: 0x0, symName: __ZN18RLMObservationInfo22prepareForInvalidationEv, symObjAddr: 0x7A4, symBinAddr: 0x435E54, symSize: 0x18 }
  - { offset: 0x7B4F8F, size: 0x8, addend: 0x0, symName: __ZN18RLMObservationInfo14recordObserverERN5realm3ObjEP12RLMClassInfoP15RLMObjectSchemaP8NSString, symObjAddr: 0x7BC, symBinAddr: 0x435E6C, symSize: 0x1B4 }
  - { offset: 0x7B52D4, size: 0x8, addend: 0x0, symName: '__ZZN18RLMObservationInfo11valueForKeyEP8NSStringENK3$_0clEv', symObjAddr: 0xE64, symBinAddr: 0x436514, symSize: 0xA4 }
  - { offset: 0x7B5383, size: 0x8, addend: 0x0, symName: __ZL14RLMCoerceToNilP11objc_object, symObjAddr: 0xDA8, symBinAddr: 0x436458, symSize: 0xBC }
  - { offset: 0x7B5405, size: 0x8, addend: 0x0, symName: __ZN18RLMObservationInfo14removeObserverEv, symObjAddr: 0xD98, symBinAddr: 0x436448, symSize: 0x10 }
  - { offset: 0x7B54F9, size: 0x8, addend: 0x0, symName: __Z21RLMGetObservationInfoP18RLMObservationInfoN5realm6ObjKeyER12RLMClassInfo, symObjAddr: 0xF08, symBinAddr: 0x4365B8, symSize: 0x34 }
  - { offset: 0x7B57E6, size: 0x8, addend: 0x0, symName: __Z13RLMClearTableR12RLMClassInfo, symObjAddr: 0xF3C, symBinAddr: 0x4365EC, symSize: 0x19C }
  - { offset: 0x7B5C8E, size: 0x8, addend: 0x0, symName: __ZN21RLMObservationTrackerC2EP8RLMRealmb, symObjAddr: 0x10E0, symBinAddr: 0x436790, symSize: 0xC0 }
  - { offset: 0x7B6091, size: 0x8, addend: 0x0, symName: __ZN21RLMObservationTrackerD2Ev, symObjAddr: 0x131C, symBinAddr: 0x4369CC, symSize: 0x70 }
  - { offset: 0x7B63F9, size: 0x8, addend: 0x0, symName: __ZN21RLMObservationTrackerC1EP8RLMRealmb, symObjAddr: 0x10D8, symBinAddr: 0x436788, symSize: 0x4 }
  - { offset: 0x7B6432, size: 0x8, addend: 0x0, symName: __ZN21RLMObservationTrackerC1EP8RLMRealmb, symObjAddr: 0x10D8, symBinAddr: 0x436788, symSize: 0x4 }
  - { offset: 0x7B643D, size: 0x8, addend: 0x0, symName: __ZN21RLMObservationTrackerD1Ev, symObjAddr: 0x10DC, symBinAddr: 0x43678C, symSize: 0x4 }
  - { offset: 0x7B6461, size: 0x8, addend: 0x0, symName: __ZN21RLMObservationTrackerD1Ev, symObjAddr: 0x10DC, symBinAddr: 0x43678C, symSize: 0x4 }
  - { offset: 0x7B66AB, size: 0x8, addend: 0x0, symName: __ZN21RLMObservationTracker14trackDeletionsEv, symObjAddr: 0x11A0, symBinAddr: 0x436850, symSize: 0x17C }
  - { offset: 0x7B6E2C, size: 0x8, addend: 0x0, symName: __ZNSt3__16vectorIN21RLMObservationTracker6ChangeENS_9allocatorIS2_EEE16__destroy_vectorclB8ne180100Ev, symObjAddr: 0x1AC8, symBinAddr: 0x437178, symSize: 0x74 }
  - { offset: 0x7B754B, size: 0x8, addend: 0x0, symName: __ZN21RLMObservationTracker9didChangeEv, symObjAddr: 0x138C, symBinAddr: 0x436A3C, symSize: 0xF0 }
  - { offset: 0x7B7B3E, size: 0x8, addend: 0x0, symName: __ZN21RLMObservationTracker10willChangeEP18RLMObservationInfoP8NSString16NSKeyValueChangeP10NSIndexSet, symObjAddr: 0x147C, symBinAddr: 0x436B2C, symSize: 0xBC }
  - { offset: 0x7B7F9C, size: 0x8, addend: 0x0, symName: __Z18RLMGetObservedRowsRK13RLMSchemaInfo, symObjAddr: 0x1538, symBinAddr: 0x436BE8, symSize: 0x128 }
  - { offset: 0x7B86A4, size: 0x8, addend: 0x0, symName: __ZNSt3__16vectorIN5realm14BindingContext13ObserverStateENS_9allocatorIS3_EEE9push_backB8ne180100EOS3_, symObjAddr: 0x1660, symBinAddr: 0x436D10, symSize: 0x120 }
  - { offset: 0x7B8C15, size: 0x8, addend: 0x0, symName: __ZNSt3__112__hash_tableINS_17__hash_value_typeIxN5realm14BindingContext10ColumnInfoEEENS_22__unordered_map_hasherIxS5_NS_4hashIxEENS_8equal_toIxEELb1EEENS_21__unordered_map_equalIxS5_SA_S8_Lb1EEENS_9allocatorIS5_EEED2Ev, symObjAddr: 0x1D0C, symBinAddr: 0x437324, symSize: 0x38 }
  - { offset: 0x7B8D9C, size: 0x8, addend: 0x0, symName: __ZNSt3__16vectorIN5realm14BindingContext13ObserverStateENS_9allocatorIS3_EEE16__destroy_vectorclB8ne180100Ev, symObjAddr: 0x309C, symBinAddr: 0x4386B4, symSize: 0x74 }
  - { offset: 0x7B94A3, size: 0x8, addend: 0x0, symName: __ZNSt3__114__split_bufferIN5realm14BindingContext13ObserverStateERNS_9allocatorIS3_EEED2Ev, symObjAddr: 0x1CBC, symBinAddr: 0x4372D4, symSize: 0x50 }
  - { offset: 0x7B9700, size: 0x8, addend: 0x0, symName: __Z13RLMWillChangeRKNSt3__16vectorIN5realm14BindingContext13ObserverStateENS_9allocatorIS3_EEEERKNS0_IPvNS4_IS9_EEEE, symObjAddr: 0x1780, symBinAddr: 0x436E30, symSize: 0x198 }
  - { offset: 0x7B9AFC, size: 0x8, addend: 0x0, symName: __ZL7convertRKN5realm8IndexSetEP17NSMutableIndexSet, symObjAddr: 0x5A38, symBinAddr: 0x43A438, symSize: 0xE8 }
  - { offset: 0x7B9D45, size: 0x8, addend: 0x0, symName: __Z12RLMDidChangeRKNSt3__16vectorIN5realm14BindingContext13ObserverStateENS_9allocatorIS3_EEEERKNS0_IPvNS4_IS9_EEEE, symObjAddr: 0x1918, symBinAddr: 0x436FC8, symSize: 0x168 }
  - { offset: 0x7BA574, size: 0x8, addend: 0x0, symName: __ZNSt3__112__hash_tableINS_17__hash_value_typeIxN5realm14BindingContext10ColumnInfoEEENS_22__unordered_map_hasherIxS5_NS_4hashIxEENS_8equal_toIxEELb1EEENS_21__unordered_map_equalIxS5_SA_S8_Lb1EEENS_9allocatorIS5_EEE17__deallocate_nodeEPNS_16__hash_node_baseIPNS_11__hash_nodeIS5_PvEEEE, symObjAddr: 0x1D44, symBinAddr: 0x43735C, symSize: 0x4C }
  - { offset: 0x7BAC05, size: 0x8, addend: 0x0, symName: __ZNSt3__112__hash_tableINS_17__hash_value_typeIxN5realm14BindingContext10ColumnInfoEEENS_22__unordered_map_hasherIxS5_NS_4hashIxEENS_8equal_toIxEELb1EEENS_21__unordered_map_equalIxS5_SA_S8_Lb1EEENS_9allocatorIS5_EEE13__move_assignERSG_NS_17integral_constantIbLb1EEE, symObjAddr: 0x2D90, symBinAddr: 0x4383A8, symSize: 0xD8 }
  - { offset: 0x7BAEE7, size: 0x8, addend: 0x0, symName: __ZNSt3__18_IterOpsINS_17_ClassicAlgPolicyEE9iter_swapB8ne180100IRPN5realm14BindingContext13ObserverStateES8_EEvOT_OT0_, symObjAddr: 0x2988, symBinAddr: 0x437FA0, symSize: 0x9C }
  - { offset: 0x7BB2E0, size: 0x8, addend: 0x0, symName: '__ZN5realm4util14UniqueFunctionIFvRKNS_5Group19CascadeNotificationEEE12SpecificImplIZN21RLMObservationTracker14trackDeletionsEvE3$_0ED1Ev', symObjAddr: 0x3110, symBinAddr: 0x438728, symSize: 0x4 }
  - { offset: 0x7BB30B, size: 0x8, addend: 0x0, symName: '__ZN5realm4util14UniqueFunctionIFvRKNS_5Group19CascadeNotificationEEE12SpecificImplIZN21RLMObservationTracker14trackDeletionsEvE3$_0ED0Ev', symObjAddr: 0x3114, symBinAddr: 0x43872C, symSize: 0x4 }
  - { offset: 0x7BC01C, size: 0x8, addend: 0x0, symName: '__ZN5realm4util14UniqueFunctionIFvRKNS_5Group19CascadeNotificationEEE12SpecificImplIZN21RLMObservationTracker14trackDeletionsEvE3$_0E4callES5_', symObjAddr: 0x3118, symBinAddr: 0x438730, symSize: 0x798 }
  - { offset: 0x7BDEE9, size: 0x8, addend: 0x0, symName: __ZNSt3__16vectorIN21RLMObservationTracker6ChangeENS_9allocatorIS2_EEE9push_backB8ne180100EOS2_, symObjAddr: 0x38B0, symBinAddr: 0x438EC8, symSize: 0x14C }
  - { offset: 0x7BE82E, size: 0x8, addend: 0x0, symName: __ZNSt3__114__split_bufferIN21RLMObservationTracker6ChangeERNS_9allocatorIS2_EEED2Ev, symObjAddr: 0x4D50, symBinAddr: 0x43A2B8, symSize: 0x50 }
  - { offset: 0x7BEB2E, size: 0x8, addend: 0x0, symName: __ZNSt3__16vectorIN5realm11PathElementENS_9allocatorIS2_EEE16__destroy_vectorclB8ne180100Ev, symObjAddr: 0x58B8, symBinAddr: 0x43A308, symSize: 0x40 }
  - { offset: 0x7BEC9B, size: 0x8, addend: 0x0, symName: __ZNSt3__16vectorIN5realm11PathElementENS_9allocatorIS2_EEE22__base_destruct_at_endB8ne180100EPS2_, symObjAddr: 0x58F8, symBinAddr: 0x43A348, symSize: 0x60 }
  - { offset: 0x7BF14F, size: 0x8, addend: 0x0, symName: __ZZN5realm4util11FunctionRefIFNS_15IteratorControlEPNS_13BPlusTreeNodeEmEEC1IRZNKS_9BPlusTreeINS_6ObjKeyEE8find_allIZNKS_6LnkLst8find_allIZN21RLMObservationTracker19cascadeNotificationINS_5Group19CascadeNotificationEEEvRKT_EUlmE_EEvS9_OSI_EUlmE_EEvS9_SM_EUlS4_mE_EESM_ENUlPvS4_mE_8__invokeESQ_S4_m, symObjAddr: 0x59A8, symBinAddr: 0x43A3A8, symSize: 0x90 }
  - { offset: 0x7C13F2, size: 0x8, addend: 0x0, symName: __Z18transformPredicateP11NSPredicateNSt3__18functionIFP12NSExpressionS4_EEE, symObjAddr: 0x0, symBinAddr: 0x43A520, symSize: 0x1AC }
  - { offset: 0x7C2A39, size: 0x8, addend: 0x0, symName: __Z18transformPredicateP11NSPredicateNSt3__18functionIFP12NSExpressionS4_EEE, symObjAddr: 0x0, symBinAddr: 0x43A520, symSize: 0x1AC }
  - { offset: 0x7C2F11, size: 0x8, addend: 0x0, symName: __ZNK12_GLOBAL__N_130PredicateExpressionTransformer5visitEP11NSPredicate, symObjAddr: 0x1AC, symBinAddr: 0x43A6CC, symSize: 0x36C }
  - { offset: 0x7C2FE0, size: 0x8, addend: 0x0, symName: __ZNK12_GLOBAL__N_130PredicateExpressionTransformer5visitEP12NSExpression, symObjAddr: 0x518, symBinAddr: 0x43AA38, symSize: 0x880 }
  - { offset: 0x7C509F, size: 0x8, addend: 0x0, symName: __Z25RLMPropertyTypeIsComputed15RLMPropertyType, symObjAddr: 0x0, symBinAddr: 0x43B2B8, symSize: 0xC }
  - { offset: 0x7C50CD, size: 0x8, addend: 0x0, symName: '-[RLMProperty setTypeFromRawType:]', symObjAddr: 0x5BC, symBinAddr: 0x43B874, symSize: 0x63C }
  - { offset: 0x7C50F7, size: 0x8, addend: 0x0, symName: '__ZZ34-[RLMProperty setTypeFromRawType:]E11arrayPrefix', symObjAddr: 0x28B9, symBinAddr: 0x59C7D7, symSize: 0x0 }
  - { offset: 0x7C5119, size: 0x8, addend: 0x0, symName: '__ZZ34-[RLMProperty setTypeFromRawType:]E9setPrefix', symObjAddr: 0x28C5, symBinAddr: 0x59C7E3, symSize: 0x0 }
  - { offset: 0x7C513B, size: 0x8, addend: 0x0, symName: '__ZZ34-[RLMProperty setTypeFromRawType:]E16dictionaryPrefix', symObjAddr: 0x28CF, symBinAddr: 0x59C7ED, symSize: 0x0 }
  - { offset: 0x7C515D, size: 0x8, addend: 0x0, symName: '__ZZ34-[RLMProperty setTypeFromRawType:]E12numberPrefix', symObjAddr: 0x28E0, symBinAddr: 0x59C7FE, symSize: 0x0 }
  - { offset: 0x7C517F, size: 0x8, addend: 0x0, symName: '__ZZ34-[RLMProperty setTypeFromRawType:]E20linkingObjectsPrefix', symObjAddr: 0x28EC, symBinAddr: 0x59C80A, symSize: 0x0 }
  - { offset: 0x7C8EA3, size: 0x8, addend: 0x0, symName: __Z25RLMPropertyTypeIsComputed15RLMPropertyType, symObjAddr: 0x0, symBinAddr: 0x43B2B8, symSize: 0xC }
  - { offset: 0x7C8F2B, size: 0x8, addend: 0x0, symName: _RLMValidateSwiftPropertyName, symObjAddr: 0xC, symBinAddr: 0x43B2C4, symSize: 0x120 }
  - { offset: 0x7C9298, size: 0x8, addend: 0x0, symName: '+[RLMProperty propertyForObjectStoreProperty:]', symObjAddr: 0x12C, symBinAddr: 0x43B3E4, symSize: 0x234 }
  - { offset: 0x7C964C, size: 0x8, addend: 0x0, symName: '-[RLMProperty initWithName:type:objectClassName:linkOriginPropertyName:indexed:optional:]', symObjAddr: 0x360, symBinAddr: 0x43B618, symSize: 0x130 }
  - { offset: 0x7C96DB, size: 0x8, addend: 0x0, symName: '-[RLMProperty updateAccessors]', symObjAddr: 0x490, symBinAddr: 0x43B748, symSize: 0x12C }
  - { offset: 0x7C97C9, size: 0x8, addend: 0x0, symName: __ZL22typeFromProtocolStringPKc, symObjAddr: 0xBF8, symBinAddr: 0x43BEB0, symSize: 0x1A8 }
  - { offset: 0x7C98B7, size: 0x8, addend: 0x0, symName: '-[RLMProperty parseObjcProperty:readOnly:computed:rawType:]', symObjAddr: 0xDA0, symBinAddr: 0x43C058, symSize: 0x140 }
  - { offset: 0x7C99DF, size: 0x8, addend: 0x0, symName: '-[RLMProperty initSwiftPropertyWithName:indexed:linkPropertyDescriptor:property:instance:]', symObjAddr: 0xEE0, symBinAddr: 0x43C198, symSize: 0x784 }
  - { offset: 0x7C9C3A, size: 0x8, addend: 0x0, symName: '-[RLMProperty initWithName:indexed:linkPropertyDescriptor:property:]', symObjAddr: 0x1664, symBinAddr: 0x43C91C, symSize: 0x2DC }
  - { offset: 0x7C9D27, size: 0x8, addend: 0x0, symName: __ZL15RLMTypeToString15RLMPropertyType, symObjAddr: 0x1940, symBinAddr: 0x43CBF8, symSize: 0x24 }
  - { offset: 0x7C9D46, size: 0x8, addend: 0x0, symName: '-[RLMProperty copyWithZone:]', symObjAddr: 0x1964, symBinAddr: 0x43CC1C, symSize: 0xDC }
  - { offset: 0x7C9D9E, size: 0x8, addend: 0x0, symName: '-[RLMProperty copyWithNewName:]', symObjAddr: 0x1A40, symBinAddr: 0x43CCF8, symSize: 0x74 }
  - { offset: 0x7C9DF6, size: 0x8, addend: 0x0, symName: '-[RLMProperty isEqual:]', symObjAddr: 0x1AB4, symBinAddr: 0x43CD6C, symSize: 0x7C }
  - { offset: 0x7C9E3E, size: 0x8, addend: 0x0, symName: '-[RLMProperty isEqualToProperty:]', symObjAddr: 0x1B30, symBinAddr: 0x43CDE8, symSize: 0xD8 }
  - { offset: 0x7C9E86, size: 0x8, addend: 0x0, symName: '-[RLMProperty collection]', symObjAddr: 0x1C08, symBinAddr: 0x43CEC0, symSize: 0x44 }
  - { offset: 0x7C9EDC, size: 0x8, addend: 0x0, symName: '-[RLMProperty description]', symObjAddr: 0x1C4C, symBinAddr: 0x43CF04, symSize: 0x248 }
  - { offset: 0x7C9F43, size: 0x8, addend: 0x0, symName: '-[RLMProperty columnName]', symObjAddr: 0x1E94, symBinAddr: 0x43D14C, symSize: 0x1C }
  - { offset: 0x7CA12E, size: 0x8, addend: 0x0, symName: '-[RLMProperty objectStoreCopy:]', symObjAddr: 0x1EB0, symBinAddr: 0x43D168, symSize: 0x244 }
  - { offset: 0x7CA554, size: 0x8, addend: 0x0, symName: '-[RLMProperty typeName]', symObjAddr: 0x20F4, symBinAddr: 0x43D3AC, symSize: 0x124 }
  - { offset: 0x7CA5DC, size: 0x8, addend: 0x0, symName: '-[RLMProperty name]', symObjAddr: 0x2218, symBinAddr: 0x43D4D0, symSize: 0x8 }
  - { offset: 0x7CA613, size: 0x8, addend: 0x0, symName: '-[RLMProperty setName:]', symObjAddr: 0x2220, symBinAddr: 0x43D4D8, symSize: 0xC }
  - { offset: 0x7CA654, size: 0x8, addend: 0x0, symName: '-[RLMProperty type]', symObjAddr: 0x222C, symBinAddr: 0x43D4E4, symSize: 0x8 }
  - { offset: 0x7CA68B, size: 0x8, addend: 0x0, symName: '-[RLMProperty setType:]', symObjAddr: 0x2234, symBinAddr: 0x43D4EC, symSize: 0x8 }
  - { offset: 0x7CA6C8, size: 0x8, addend: 0x0, symName: '-[RLMProperty indexed]', symObjAddr: 0x223C, symBinAddr: 0x43D4F4, symSize: 0x8 }
  - { offset: 0x7CA6FF, size: 0x8, addend: 0x0, symName: '-[RLMProperty setIndexed:]', symObjAddr: 0x2244, symBinAddr: 0x43D4FC, symSize: 0x8 }
  - { offset: 0x7CA73A, size: 0x8, addend: 0x0, symName: '-[RLMProperty objectClassName]', symObjAddr: 0x224C, symBinAddr: 0x43D504, symSize: 0x8 }
  - { offset: 0x7CA771, size: 0x8, addend: 0x0, symName: '-[RLMProperty setObjectClassName:]', symObjAddr: 0x2254, symBinAddr: 0x43D50C, symSize: 0x8 }
  - { offset: 0x7CA7B0, size: 0x8, addend: 0x0, symName: '-[RLMProperty linkOriginPropertyName]', symObjAddr: 0x225C, symBinAddr: 0x43D514, symSize: 0x8 }
  - { offset: 0x7CA7E7, size: 0x8, addend: 0x0, symName: '-[RLMProperty setLinkOriginPropertyName:]', symObjAddr: 0x2264, symBinAddr: 0x43D51C, symSize: 0x8 }
  - { offset: 0x7CA826, size: 0x8, addend: 0x0, symName: '-[RLMProperty optional]', symObjAddr: 0x226C, symBinAddr: 0x43D524, symSize: 0x8 }
  - { offset: 0x7CA85D, size: 0x8, addend: 0x0, symName: '-[RLMProperty setOptional:]', symObjAddr: 0x2274, symBinAddr: 0x43D52C, symSize: 0x8 }
  - { offset: 0x7CA898, size: 0x8, addend: 0x0, symName: '-[RLMProperty array]', symObjAddr: 0x227C, symBinAddr: 0x43D534, symSize: 0x8 }
  - { offset: 0x7CA8CF, size: 0x8, addend: 0x0, symName: '-[RLMProperty setArray:]', symObjAddr: 0x2284, symBinAddr: 0x43D53C, symSize: 0x8 }
  - { offset: 0x7CA90A, size: 0x8, addend: 0x0, symName: '-[RLMProperty set]', symObjAddr: 0x228C, symBinAddr: 0x43D544, symSize: 0x8 }
  - { offset: 0x7CA941, size: 0x8, addend: 0x0, symName: '-[RLMProperty setSet:]', symObjAddr: 0x2294, symBinAddr: 0x43D54C, symSize: 0x8 }
  - { offset: 0x7CA97C, size: 0x8, addend: 0x0, symName: '-[RLMProperty dictionary]', symObjAddr: 0x229C, symBinAddr: 0x43D554, symSize: 0x8 }
  - { offset: 0x7CA9B3, size: 0x8, addend: 0x0, symName: '-[RLMProperty setDictionary:]', symObjAddr: 0x22A4, symBinAddr: 0x43D55C, symSize: 0x8 }
  - { offset: 0x7CA9EE, size: 0x8, addend: 0x0, symName: '-[RLMProperty setColumnName:]', symObjAddr: 0x22AC, symBinAddr: 0x43D564, symSize: 0xC }
  - { offset: 0x7CAA2F, size: 0x8, addend: 0x0, symName: '-[RLMProperty index]', symObjAddr: 0x22B8, symBinAddr: 0x43D570, symSize: 0x8 }
  - { offset: 0x7CAA66, size: 0x8, addend: 0x0, symName: '-[RLMProperty setIndex:]', symObjAddr: 0x22C0, symBinAddr: 0x43D578, symSize: 0x8 }
  - { offset: 0x7CAAA3, size: 0x8, addend: 0x0, symName: '-[RLMProperty isPrimary]', symObjAddr: 0x22C8, symBinAddr: 0x43D580, symSize: 0x8 }
  - { offset: 0x7CAADA, size: 0x8, addend: 0x0, symName: '-[RLMProperty setIsPrimary:]', symObjAddr: 0x22D0, symBinAddr: 0x43D588, symSize: 0x8 }
  - { offset: 0x7CAB15, size: 0x8, addend: 0x0, symName: '-[RLMProperty isLegacy]', symObjAddr: 0x22D8, symBinAddr: 0x43D590, symSize: 0x8 }
  - { offset: 0x7CAB4C, size: 0x8, addend: 0x0, symName: '-[RLMProperty setIsLegacy:]', symObjAddr: 0x22E0, symBinAddr: 0x43D598, symSize: 0x8 }
  - { offset: 0x7CAB87, size: 0x8, addend: 0x0, symName: '-[RLMProperty swiftIvar]', symObjAddr: 0x22E8, symBinAddr: 0x43D5A0, symSize: 0x8 }
  - { offset: 0x7CABBE, size: 0x8, addend: 0x0, symName: '-[RLMProperty setSwiftIvar:]', symObjAddr: 0x22F0, symBinAddr: 0x43D5A8, symSize: 0x8 }
  - { offset: 0x7CABFB, size: 0x8, addend: 0x0, symName: '-[RLMProperty swiftAccessor]', symObjAddr: 0x22F8, symBinAddr: 0x43D5B0, symSize: 0x8 }
  - { offset: 0x7CAC32, size: 0x8, addend: 0x0, symName: '-[RLMProperty setSwiftAccessor:]', symObjAddr: 0x2300, symBinAddr: 0x43D5B8, symSize: 0x8 }
  - { offset: 0x7CAC6F, size: 0x8, addend: 0x0, symName: '-[RLMProperty dictionaryKeyType]', symObjAddr: 0x2308, symBinAddr: 0x43D5C0, symSize: 0x8 }
  - { offset: 0x7CACA6, size: 0x8, addend: 0x0, symName: '-[RLMProperty setDictionaryKeyType:]', symObjAddr: 0x2310, symBinAddr: 0x43D5C8, symSize: 0x8 }
  - { offset: 0x7CACE3, size: 0x8, addend: 0x0, symName: '-[RLMProperty customMappingIsOptional]', symObjAddr: 0x2318, symBinAddr: 0x43D5D0, symSize: 0x8 }
  - { offset: 0x7CAD1A, size: 0x8, addend: 0x0, symName: '-[RLMProperty setCustomMappingIsOptional:]', symObjAddr: 0x2320, symBinAddr: 0x43D5D8, symSize: 0x8 }
  - { offset: 0x7CAD55, size: 0x8, addend: 0x0, symName: '-[RLMProperty getterName]', symObjAddr: 0x2328, symBinAddr: 0x43D5E0, symSize: 0x8 }
  - { offset: 0x7CAD8C, size: 0x8, addend: 0x0, symName: '-[RLMProperty setGetterName:]', symObjAddr: 0x2330, symBinAddr: 0x43D5E8, symSize: 0x8 }
  - { offset: 0x7CADCB, size: 0x8, addend: 0x0, symName: '-[RLMProperty setterName]', symObjAddr: 0x2338, symBinAddr: 0x43D5F0, symSize: 0x8 }
  - { offset: 0x7CAE02, size: 0x8, addend: 0x0, symName: '-[RLMProperty setSetterName:]', symObjAddr: 0x2340, symBinAddr: 0x43D5F8, symSize: 0x8 }
  - { offset: 0x7CAE41, size: 0x8, addend: 0x0, symName: '-[RLMProperty getterSel]', symObjAddr: 0x2348, symBinAddr: 0x43D600, symSize: 0x8 }
  - { offset: 0x7CAE78, size: 0x8, addend: 0x0, symName: '-[RLMProperty setGetterSel:]', symObjAddr: 0x2350, symBinAddr: 0x43D608, symSize: 0x8 }
  - { offset: 0x7CAEB5, size: 0x8, addend: 0x0, symName: '-[RLMProperty setterSel]', symObjAddr: 0x2358, symBinAddr: 0x43D610, symSize: 0x8 }
  - { offset: 0x7CAEEC, size: 0x8, addend: 0x0, symName: '-[RLMProperty setSetterSel:]', symObjAddr: 0x2360, symBinAddr: 0x43D618, symSize: 0x8 }
  - { offset: 0x7CAF29, size: 0x8, addend: 0x0, symName: '-[RLMProperty .cxx_destruct]', symObjAddr: 0x2368, symBinAddr: 0x43D620, symSize: 0x60 }
  - { offset: 0x7CAF5C, size: 0x8, addend: 0x0, symName: '+[RLMPropertyDescriptor descriptorWithClass:propertyName:]', symObjAddr: 0x23C8, symBinAddr: 0x43D680, symSize: 0x74 }
  - { offset: 0x7CAFC0, size: 0x8, addend: 0x0, symName: '-[RLMPropertyDescriptor objectClass]', symObjAddr: 0x243C, symBinAddr: 0x43D6F4, symSize: 0x8 }
  - { offset: 0x7CAFF7, size: 0x8, addend: 0x0, symName: '-[RLMPropertyDescriptor propertyName]', symObjAddr: 0x2444, symBinAddr: 0x43D6FC, symSize: 0x8 }
  - { offset: 0x7CB02E, size: 0x8, addend: 0x0, symName: '-[RLMPropertyDescriptor .cxx_destruct]', symObjAddr: 0x244C, symBinAddr: 0x43D704, symSize: 0x30 }
  - { offset: 0x7CD0AE, size: 0x8, addend: 0x0, symName: '-[RLMProviderClient initWithApp:]', symObjAddr: 0x0, symBinAddr: 0x43D734, symSize: 0x58 }
  - { offset: 0x7DA834, size: 0x8, addend: 0x0, symName: '-[RLMProviderClient initWithApp:]', symObjAddr: 0x0, symBinAddr: 0x43D734, symSize: 0x58 }
  - { offset: 0x7DA91F, size: 0x8, addend: 0x0, symName: '-[RLMProviderClient app]', symObjAddr: 0x58, symBinAddr: 0x43D78C, symSize: 0x88 }
  - { offset: 0x7DAA2E, size: 0x8, addend: 0x0, symName: __Z17RLMWrapCompletionU13block_pointerFvP7NSErrorE, symObjAddr: 0xE0, symBinAddr: 0x43D814, symSize: 0x50 }
  - { offset: 0x7DAEA1, size: 0x8, addend: 0x0, symName: '-[RLMProviderClient .cxx_destruct]', symObjAddr: 0x130, symBinAddr: 0x43D864, symSize: 0x8 }
  - { offset: 0x7DAF26, size: 0x8, addend: 0x0, symName: '-[RLMProviderClient .cxx_construct]', symObjAddr: 0x138, symBinAddr: 0x43D86C, symSize: 0x8 }
  - { offset: 0x7DAF5E, size: 0x8, addend: 0x0, symName: '-[RLMProviderClient .cxx_construct]', symObjAddr: 0x138, symBinAddr: 0x43D86C, symSize: 0x8 }
  - { offset: 0x7DAF7D, size: 0x8, addend: 0x0, symName: '-[RLMProviderClient .cxx_construct]', symObjAddr: 0x138, symBinAddr: 0x43D86C, symSize: 0x8 }
  - { offset: 0x7DAFB8, size: 0x8, addend: 0x0, symName: '__ZN5realm4util14UniqueFunctionIFvNSt3__18optionalINS_3app8AppErrorEEEEE12SpecificImplIZ17RLMWrapCompletionU13block_pointerFvP7NSErrorEE3$_0ED1Ev', symObjAddr: 0x140, symBinAddr: 0x43D874, symSize: 0x28 }
  - { offset: 0x7DB055, size: 0x8, addend: 0x0, symName: '__ZN5realm4util14UniqueFunctionIFvNSt3__18optionalINS_3app8AppErrorEEEEE12SpecificImplIZ17RLMWrapCompletionU13block_pointerFvP7NSErrorEE3$_0ED0Ev', symObjAddr: 0x168, symBinAddr: 0x43D89C, symSize: 0x28 }
  - { offset: 0x7DB52A, size: 0x8, addend: 0x0, symName: '__ZN5realm4util14UniqueFunctionIFvNSt3__18optionalINS_3app8AppErrorEEEEE12SpecificImplIZ17RLMWrapCompletionU13block_pointerFvP7NSErrorEE3$_0E4callEOS6_', symObjAddr: 0x190, symBinAddr: 0x43D8C4, symSize: 0xF0 }
  - { offset: 0x7DD80D, size: 0x8, addend: 0x0, symName: '-[RLMPushClient initWithPushClient:]', symObjAddr: 0x0, symBinAddr: 0x43D9B4, symSize: 0x158 }
  - { offset: 0x7E1F5B, size: 0x8, addend: 0x0, symName: '-[RLMPushClient initWithPushClient:]', symObjAddr: 0x0, symBinAddr: 0x43D9B4, symSize: 0x158 }
  - { offset: 0x7E2A05, size: 0x8, addend: 0x0, symName: '-[RLMPushClient registerDeviceWithToken:user:completion:]', symObjAddr: 0x158, symBinAddr: 0x43DB0C, symSize: 0x204 }
  - { offset: 0x7E30FF, size: 0x8, addend: 0x0, symName: '___57-[RLMPushClient registerDeviceWithToken:user:completion:]_block_invoke', symObjAddr: 0x35C, symBinAddr: 0x43DD10, symSize: 0x78 }
  - { offset: 0x7E31CE, size: 0x8, addend: 0x0, symName: '-[RLMPushClient deregisterDeviceForUser:completion:]', symObjAddr: 0x3D4, symBinAddr: 0x43DD88, symSize: 0x19C }
  - { offset: 0x7E35D3, size: 0x8, addend: 0x0, symName: '___52-[RLMPushClient deregisterDeviceForUser:completion:]_block_invoke', symObjAddr: 0x570, symBinAddr: 0x43DF24, symSize: 0x78 }
  - { offset: 0x7E3681, size: 0x8, addend: 0x0, symName: '-[RLMPushClient serviceName]', symObjAddr: 0x5E8, symBinAddr: 0x43DF9C, symSize: 0x8 }
  - { offset: 0x7E37B6, size: 0x8, addend: 0x0, symName: '-[RLMPushClient .cxx_destruct]', symObjAddr: 0x5F0, symBinAddr: 0x43DFA4, symSize: 0x40 }
  - { offset: 0x7E3983, size: 0x8, addend: 0x0, symName: '-[RLMPushClient .cxx_construct]', symObjAddr: 0x630, symBinAddr: 0x43DFE4, symSize: 0xC }
  - { offset: 0x7E39BB, size: 0x8, addend: 0x0, symName: '-[RLMPushClient .cxx_construct]', symObjAddr: 0x630, symBinAddr: 0x43DFE4, symSize: 0xC }
  - { offset: 0x7E39DA, size: 0x8, addend: 0x0, symName: '-[RLMPushClient .cxx_construct]', symObjAddr: 0x630, symBinAddr: 0x43DFE4, symSize: 0xC }
  - { offset: 0x7E39FA, size: 0x8, addend: 0x0, symName: '-[RLMPushClient .cxx_construct]', symObjAddr: 0x630, symBinAddr: 0x43DFE4, symSize: 0xC }
  - { offset: 0x7E3A1A, size: 0x8, addend: 0x0, symName: '-[RLMPushClient .cxx_construct]', symObjAddr: 0x630, symBinAddr: 0x43DFE4, symSize: 0xC }
  - { offset: 0x7E3A3A, size: 0x8, addend: 0x0, symName: '-[RLMPushClient .cxx_construct]', symObjAddr: 0x630, symBinAddr: 0x43DFE4, symSize: 0xC }
  - { offset: 0x7E3A5A, size: 0x8, addend: 0x0, symName: '-[RLMPushClient .cxx_construct]', symObjAddr: 0x630, symBinAddr: 0x43DFE4, symSize: 0xC }
  - { offset: 0x7E3A7A, size: 0x8, addend: 0x0, symName: '-[RLMPushClient .cxx_construct]', symObjAddr: 0x630, symBinAddr: 0x43DFE4, symSize: 0xC }
  - { offset: 0x7E3A9A, size: 0x8, addend: 0x0, symName: '-[RLMPushClient .cxx_construct]', symObjAddr: 0x630, symBinAddr: 0x43DFE4, symSize: 0xC }
  - { offset: 0x7E5993, size: 0x8, addend: 0x0, symName: __Z19RLMPredicateToQueryP11NSPredicateP15RLMObjectSchemaP9RLMSchemaRN5realm5GroupE, symObjAddr: 0x0, symBinAddr: 0x43DFF0, symSize: 0x154 }
  - { offset: 0x7ECD79, size: 0x8, addend: 0x0, symName: __ZN12_GLOBAL__N_19get_tableERN5realm5GroupEP15RLMObjectSchema, symObjAddr: 0x154, symBinAddr: 0x43E144, symSize: 0x84 }
  - { offset: 0x7ECEC2, size: 0x8, addend: 0x0, symName: __ZN12_GLOBAL__N_115RLMPreconditionEbP8NSStringS1_z, symObjAddr: 0x10A4, symBinAddr: 0x43F094, symSize: 0xD8 }
  - { offset: 0x7ECF2D, size: 0x8, addend: 0x0, symName: __ZN12_GLOBAL__N_120key_path_from_stringEP9RLMSchemaP15RLMObjectSchemaP8NSString, symObjAddr: 0x16D8, symBinAddr: 0x43F620, symSize: 0x900 }
  - { offset: 0x7ED8FA, size: 0x8, addend: 0x0, symName: __ZN12_GLOBAL__N_114throwExceptionEP8NSStringS1_z, symObjAddr: 0x117C, symBinAddr: 0x51E32C, symSize: 0xA8 }
  - { offset: 0x7ED975, size: 0x8, addend: 0x0, symName: __ZN12_GLOBAL__N_126invert_comparison_operatorE23NSPredicateOperatorType, symObjAddr: 0x57B0, symBinAddr: 0x4436E8, symSize: 0xB0 }
  - { offset: 0x7EDC58, size: 0x8, addend: 0x0, symName: __ZN12_GLOBAL__N_18isNSNullEP11objc_object, symObjAddr: 0x98E94, symBinAddr: 0x4C4C34, symSize: 0x6C }
  - { offset: 0x7EDC87, size: 0x8, addend: 0x0, symName: __ZN12_GLOBAL__N_124isObjectValidForPropertyEP11objc_objectP11RLMProperty, symObjAddr: 0x98F00, symBinAddr: 0x4C4CA0, symSize: 0x218 }
  - { offset: 0x7EDD59, size: 0x8, addend: 0x0, symName: __ZN12_GLOBAL__N_139value_from_constant_expression_or_valueEP11objc_object, symObjAddr: 0xBA374, symBinAddr: 0x4E6114, symSize: 0xD0 }
  - { offset: 0x7EDDC0, size: 0x8, addend: 0x0, symName: __ZN12_GLOBAL__N_137make_diacritic_insensitive_constraintINS_5EqualILm136EEEEEN5realm5QueryEbNSt3__110unique_ptrINS3_7SubexprENS5_14default_deleteIS7_EEEESA_, symObjAddr: 0x7ABC8, symBinAddr: 0x4A6E04, symSize: 0x1C4 }
  - { offset: 0x7EE7B6, size: 0x8, addend: 0x0, symName: __ZN12_GLOBAL__N_137make_diacritic_insensitive_constraintE23NSPredicateOperatorTypebNSt3__110unique_ptrIN5realm7SubexprENS1_14default_deleteIS4_EEEES7_, symObjAddr: 0x7A648, symBinAddr: 0x4A6884, symSize: 0x3BC }
  - { offset: 0x7EFDE8, size: 0x8, addend: 0x0, symName: __ZN12_GLOBAL__N_137make_diacritic_insensitive_constraintINS_8NotEqualILm136EEEEEN5realm5QueryEbNSt3__110unique_ptrINS3_7SubexprENS5_14default_deleteIS7_EEEESA_, symObjAddr: 0x7AA04, symBinAddr: 0x4A6C40, symSize: 0x1C4 }
  - { offset: 0x7F07DF, size: 0x8, addend: 0x0, symName: __ZN12_GLOBAL__N_119get_collection_typeIN5realm10Decimal128EZNS_12QueryBuilder35add_collection_operation_constraintIRU8__strongP11objc_objectEEv23NSPredicateOperatorTypeRKNS_19CollectionOperationEOT_mEUlTyPSD_E_EEvP11RLMPropertyOT0_, symObjAddr: 0x9A558, symBinAddr: 0x4C62F8, symSize: 0x360 }
  - { offset: 0x7F0B0A, size: 0x8, addend: 0x0, symName: __ZN12_GLOBAL__N_119get_collection_typeIN5realm9TimestampEZNS_12QueryBuilder35add_collection_operation_constraintIRU8__strongP11objc_objectEEv23NSPredicateOperatorTypeRKNS_19CollectionOperationEOT_mEUlTyPSD_E_EEvP11RLMPropertyOT0_, symObjAddr: 0x997D8, symBinAddr: 0x4C5578, symSize: 0x360 }
  - { offset: 0x7F0E35, size: 0x8, addend: 0x0, symName: __ZN12_GLOBAL__N_119get_collection_typeIN5realm4UUIDEZNS_12QueryBuilder35add_collection_operation_constraintIRU8__strongP11objc_objectEEv23NSPredicateOperatorTypeRKNS_19CollectionOperationEOT_mEUlTyPSD_E_EEvP11RLMPropertyOT0_, symObjAddr: 0x9AF78, symBinAddr: 0x4C6D18, symSize: 0x360 }
  - { offset: 0x7F1160, size: 0x8, addend: 0x0, symName: __ZN12_GLOBAL__N_119get_collection_typeIN5realm5MixedEZNS_12QueryBuilder35add_collection_operation_constraintIRU8__strongP11objc_objectEEv23NSPredicateOperatorTypeRKNS_19CollectionOperationEOT_mEUlTyPSD_E_EEvP11RLMPropertyOT0_, symObjAddr: 0x9B2D8, symBinAddr: 0x4C7078, symSize: 0x3C8 }
  - { offset: 0x7F274F, size: 0x8, addend: 0x0, symName: __ZN12_GLOBAL__N_119get_collection_typeIN5realm10StringDataEZNS_12QueryBuilder35add_collection_operation_constraintIRU8__strongP11objc_objectEEv23NSPredicateOperatorTypeRKNS_19CollectionOperationEOT_mEUlTyPSD_E_EEvP11RLMPropertyOT0_, symObjAddr: 0x9A8B8, symBinAddr: 0x4C6658, symSize: 0x360 }
  - { offset: 0x7F2A7A, size: 0x8, addend: 0x0, symName: __ZN12_GLOBAL__N_119get_collection_typeIN5realm10BinaryDataEZNS_12QueryBuilder35add_collection_operation_constraintIRU8__strongP11objc_objectEEv23NSPredicateOperatorTypeRKNS_19CollectionOperationEOT_mEUlTyPSD_E_EEvP11RLMPropertyOT0_, symObjAddr: 0x9AC18, symBinAddr: 0x4C69B8, symSize: 0x360 }
  - { offset: 0x7F2DA5, size: 0x8, addend: 0x0, symName: __ZN12_GLOBAL__N_119get_collection_typeIxZNS_12QueryBuilder35add_collection_operation_constraintIRU8__strongP11objc_objectEEv23NSPredicateOperatorTypeRKNS_19CollectionOperationEOT_mEUlTyPSB_E_EEvP11RLMPropertyOT0_, symObjAddr: 0x9A1F8, symBinAddr: 0x4C5F98, symSize: 0x360 }
  - { offset: 0x7F30D0, size: 0x8, addend: 0x0, symName: __ZN12_GLOBAL__N_119get_collection_typeIbZNS_12QueryBuilder35add_collection_operation_constraintIRU8__strongP11objc_objectEEv23NSPredicateOperatorTypeRKNS_19CollectionOperationEOT_mEUlTyPSB_E_EEvP11RLMPropertyOT0_, symObjAddr: 0x99118, symBinAddr: 0x4C4EB8, symSize: 0x360 }
  - { offset: 0x7F33FB, size: 0x8, addend: 0x0, symName: __ZN12_GLOBAL__N_119get_collection_typeIfZNS_12QueryBuilder35add_collection_operation_constraintIRU8__strongP11objc_objectEEv23NSPredicateOperatorTypeRKNS_19CollectionOperationEOT_mEUlTyPSB_E_EEvP11RLMPropertyOT0_, symObjAddr: 0x99E98, symBinAddr: 0x4C5C38, symSize: 0x360 }
  - { offset: 0x7F3726, size: 0x8, addend: 0x0, symName: __ZN12_GLOBAL__N_119get_collection_typeIdZNS_12QueryBuilder35add_collection_operation_constraintIRU8__strongP11objc_objectEEv23NSPredicateOperatorTypeRKNS_19CollectionOperationEOT_mEUlTyPSB_E_EEvP11RLMPropertyOT0_, symObjAddr: 0x99B38, symBinAddr: 0x4C58D8, symSize: 0x360 }
  - { offset: 0x7F3A51, size: 0x8, addend: 0x0, symName: __ZN12_GLOBAL__N_119get_collection_typeIN5realm8ObjectIdEZNS_12QueryBuilder35add_collection_operation_constraintIRU8__strongP11objc_objectEEv23NSPredicateOperatorTypeRKNS_19CollectionOperationEOT_mEUlTyPSD_E_EEvP11RLMPropertyOT0_, symObjAddr: 0x99478, symBinAddr: 0x4C5218, symSize: 0x360 }
  - { offset: 0x7F3D7C, size: 0x8, addend: 0x0, symName: __ZN12_GLOBAL__N_119unsupportedOperatorE15RLMPropertyType23NSPredicateOperatorType, symObjAddr: 0xB5B4, symBinAddr: 0x51E3D4, symSize: 0x78 }
  - { offset: 0x7F3FEF, size: 0x8, addend: 0x0, symName: __ZN12_GLOBAL__N_119get_collection_typeIN5realm10Decimal128EZNS_12QueryBuilder35add_collection_operation_constraintINS_15ColumnReferenceEEEv23NSPredicateOperatorTypeRKNS_19CollectionOperationEOT_mEUlTyPSA_E_EEvP11RLMPropertyOT0_, symObjAddr: 0x7438, symBinAddr: 0x445328, symSize: 0x354 }
  - { offset: 0x7F431A, size: 0x8, addend: 0x0, symName: __ZN12_GLOBAL__N_119get_collection_typeIN5realm9TimestampEZNS_12QueryBuilder35add_collection_operation_constraintINS_15ColumnReferenceEEEv23NSPredicateOperatorTypeRKNS_19CollectionOperationEOT_mEUlTyPSA_E_EEvP11RLMPropertyOT0_, symObjAddr: 0x66E8, symBinAddr: 0x4445D8, symSize: 0x354 }
  - { offset: 0x7F4645, size: 0x8, addend: 0x0, symName: __ZN12_GLOBAL__N_119get_collection_typeIN5realm4UUIDEZNS_12QueryBuilder35add_collection_operation_constraintINS_15ColumnReferenceEEEv23NSPredicateOperatorTypeRKNS_19CollectionOperationEOT_mEUlTyPSA_E_EEvP11RLMPropertyOT0_, symObjAddr: 0x7E34, symBinAddr: 0x445D24, symSize: 0x354 }
  - { offset: 0x7F4970, size: 0x8, addend: 0x0, symName: __ZN12_GLOBAL__N_119get_collection_typeIN5realm5MixedEZNS_12QueryBuilder35add_collection_operation_constraintINS_15ColumnReferenceEEEv23NSPredicateOperatorTypeRKNS_19CollectionOperationEOT_mEUlTyPSA_E_EEvP11RLMPropertyOT0_, symObjAddr: 0x8188, symBinAddr: 0x446078, symSize: 0x3BC }
  - { offset: 0x7F5F5F, size: 0x8, addend: 0x0, symName: __ZN12_GLOBAL__N_119get_collection_typeIN5realm10StringDataEZNS_12QueryBuilder35add_collection_operation_constraintINS_15ColumnReferenceEEEv23NSPredicateOperatorTypeRKNS_19CollectionOperationEOT_mEUlTyPSA_E_EEvP11RLMPropertyOT0_, symObjAddr: 0x778C, symBinAddr: 0x44567C, symSize: 0x354 }
  - { offset: 0x7F628A, size: 0x8, addend: 0x0, symName: __ZN12_GLOBAL__N_119get_collection_typeIN5realm10BinaryDataEZNS_12QueryBuilder35add_collection_operation_constraintINS_15ColumnReferenceEEEv23NSPredicateOperatorTypeRKNS_19CollectionOperationEOT_mEUlTyPSA_E_EEvP11RLMPropertyOT0_, symObjAddr: 0x7AE0, symBinAddr: 0x4459D0, symSize: 0x354 }
  - { offset: 0x7F65B5, size: 0x8, addend: 0x0, symName: __ZN12_GLOBAL__N_119get_collection_typeIxZNS_12QueryBuilder35add_collection_operation_constraintINS_15ColumnReferenceEEEv23NSPredicateOperatorTypeRKNS_19CollectionOperationEOT_mEUlTyPS8_E_EEvP11RLMPropertyOT0_, symObjAddr: 0x70E4, symBinAddr: 0x444FD4, symSize: 0x354 }
  - { offset: 0x7F68E0, size: 0x8, addend: 0x0, symName: __ZN12_GLOBAL__N_119get_collection_typeIbZNS_12QueryBuilder35add_collection_operation_constraintINS_15ColumnReferenceEEEv23NSPredicateOperatorTypeRKNS_19CollectionOperationEOT_mEUlTyPS8_E_EEvP11RLMPropertyOT0_, symObjAddr: 0x6040, symBinAddr: 0x443F30, symSize: 0x354 }
  - { offset: 0x7F6C0B, size: 0x8, addend: 0x0, symName: __ZN12_GLOBAL__N_119get_collection_typeIfZNS_12QueryBuilder35add_collection_operation_constraintINS_15ColumnReferenceEEEv23NSPredicateOperatorTypeRKNS_19CollectionOperationEOT_mEUlTyPS8_E_EEvP11RLMPropertyOT0_, symObjAddr: 0x6D90, symBinAddr: 0x444C80, symSize: 0x354 }
  - { offset: 0x7F6F36, size: 0x8, addend: 0x0, symName: __ZN12_GLOBAL__N_119get_collection_typeIdZNS_12QueryBuilder35add_collection_operation_constraintINS_15ColumnReferenceEEEv23NSPredicateOperatorTypeRKNS_19CollectionOperationEOT_mEUlTyPS8_E_EEvP11RLMPropertyOT0_, symObjAddr: 0x6A3C, symBinAddr: 0x44492C, symSize: 0x354 }
  - { offset: 0x7F7261, size: 0x8, addend: 0x0, symName: __ZN12_GLOBAL__N_119get_collection_typeIN5realm8ObjectIdEZNS_12QueryBuilder35add_collection_operation_constraintINS_15ColumnReferenceEEEv23NSPredicateOperatorTypeRKNS_19CollectionOperationEOT_mEUlTyPSA_E_EEvP11RLMPropertyOT0_, symObjAddr: 0x6394, symBinAddr: 0x444284, symSize: 0x354 }
  - { offset: 0x7F758C, size: 0x8, addend: 0x0, symName: __ZN12_GLOBAL__N_112operatorNameE23NSPredicateOperatorType, symObjAddr: 0x12554, symBinAddr: 0x44D6B0, symSize: 0x110 }
  - { offset: 0x7F768C, size: 0x8, addend: 0x0, symName: __ZN12_GLOBAL__N_125collection_operation_exprIxLNS_19CollectionOperation4TypeE2ELb1ELb0EEEDaS1_, symObjAddr: 0x43348, symBinAddr: 0x46FB78, symSize: 0x13C }
  - { offset: 0x7F7ED1, size: 0x8, addend: 0x0, symName: __ZN12_GLOBAL__N_125collection_operation_exprIxLNS_19CollectionOperation4TypeE2ELb0ELb1EEEDaS1_, symObjAddr: 0x58C80, symBinAddr: 0x484EBC, symSize: 0x84 }
  - { offset: 0x7F8053, size: 0x8, addend: 0x0, symName: __ZN12_GLOBAL__N_125collection_operation_exprIxLNS_19CollectionOperation4TypeE2ELb0ELb0EEEDaS1_, symObjAddr: 0x58F98, symBinAddr: 0x4851D4, symSize: 0x140 }
  - { offset: 0x7F894D, size: 0x8, addend: 0x0, symName: __ZN12_GLOBAL__N_125collection_operation_exprIN5realm5MixedELNS_19CollectionOperation4TypeE2ELb1ELb0EEEDaS3_, symObjAddr: 0x43988, symBinAddr: 0x4701B8, symSize: 0x1F4 }
  - { offset: 0x7F97B3, size: 0x8, addend: 0x0, symName: __ZN12_GLOBAL__N_125collection_operation_exprIN5realm9TimestampELNS_19CollectionOperation4TypeE2ELb1ELb0EEEDaS3_, symObjAddr: 0x43848, symBinAddr: 0x470078, symSize: 0x13C }
  - { offset: 0x7F9FF8, size: 0x8, addend: 0x0, symName: __ZN12_GLOBAL__N_125collection_operation_exprIN5realm10Decimal128ELNS_19CollectionOperation4TypeE2ELb1ELb0EEEDaS3_, symObjAddr: 0x43708, symBinAddr: 0x46FF38, symSize: 0x13C }
  - { offset: 0x7FA83D, size: 0x8, addend: 0x0, symName: __ZN12_GLOBAL__N_125collection_operation_exprIfLNS_19CollectionOperation4TypeE2ELb1ELb0EEEDaS1_, symObjAddr: 0x43488, symBinAddr: 0x46FCB8, symSize: 0x13C }
  - { offset: 0x7FB092, size: 0x8, addend: 0x0, symName: __ZN12_GLOBAL__N_125collection_operation_exprIdLNS_19CollectionOperation4TypeE2ELb1ELb0EEEDaS1_, symObjAddr: 0x435C8, symBinAddr: 0x46FDF8, symSize: 0x13C }
  - { offset: 0x7FB8E7, size: 0x8, addend: 0x0, symName: __ZN12_GLOBAL__N_125collection_operation_exprIN5realm5MixedELNS_19CollectionOperation4TypeE2ELb0ELb1EEEDaS3_, symObjAddr: 0x58F14, symBinAddr: 0x485150, symSize: 0x84 }
  - { offset: 0x7FBA69, size: 0x8, addend: 0x0, symName: __ZN12_GLOBAL__N_125collection_operation_exprIN5realm5MixedELNS_19CollectionOperation4TypeE2ELb0ELb0EEEDaS3_, symObjAddr: 0x59800, symBinAddr: 0x485A3C, symSize: 0x84 }
  - { offset: 0x7FBBEB, size: 0x8, addend: 0x0, symName: __ZN12_GLOBAL__N_125collection_operation_exprIN5realm9TimestampELNS_19CollectionOperation4TypeE2ELb0ELb1EEEDaS3_, symObjAddr: 0x58E90, symBinAddr: 0x4850CC, symSize: 0x84 }
  - { offset: 0x7FBD6D, size: 0x8, addend: 0x0, symName: __ZN12_GLOBAL__N_125collection_operation_exprIN5realm9TimestampELNS_19CollectionOperation4TypeE2ELb0ELb0EEEDaS3_, symObjAddr: 0x59498, symBinAddr: 0x4856D4, symSize: 0x280 }
  - { offset: 0x7FD089, size: 0x8, addend: 0x0, symName: __ZN12_GLOBAL__N_125collection_operation_exprIN5realm10Decimal128ELNS_19CollectionOperation4TypeE2ELb0ELb1EEEDaS3_, symObjAddr: 0x58E0C, symBinAddr: 0x485048, symSize: 0x84 }
  - { offset: 0x7FD20B, size: 0x8, addend: 0x0, symName: __ZN12_GLOBAL__N_125collection_operation_exprIN5realm10Decimal128ELNS_19CollectionOperation4TypeE2ELb0ELb0EEEDaS3_, symObjAddr: 0x59358, symBinAddr: 0x485594, symSize: 0x140 }
  - { offset: 0x7FDB05, size: 0x8, addend: 0x0, symName: __ZN12_GLOBAL__N_125collection_operation_exprIfLNS_19CollectionOperation4TypeE2ELb0ELb1EEEDaS1_, symObjAddr: 0x58D04, symBinAddr: 0x484F40, symSize: 0x84 }
  - { offset: 0x7FDC87, size: 0x8, addend: 0x0, symName: __ZN12_GLOBAL__N_125collection_operation_exprIfLNS_19CollectionOperation4TypeE2ELb0ELb0EEEDaS1_, symObjAddr: 0x590D8, symBinAddr: 0x485314, symSize: 0x140 }
  - { offset: 0x7FE581, size: 0x8, addend: 0x0, symName: __ZN12_GLOBAL__N_125collection_operation_exprIdLNS_19CollectionOperation4TypeE2ELb0ELb1EEEDaS1_, symObjAddr: 0x58D88, symBinAddr: 0x484FC4, symSize: 0x84 }
  - { offset: 0x7FE703, size: 0x8, addend: 0x0, symName: __ZN12_GLOBAL__N_125collection_operation_exprIdLNS_19CollectionOperation4TypeE2ELb0ELb0EEEDaS1_, symObjAddr: 0x59218, symBinAddr: 0x485454, symSize: 0x140 }
  - { offset: 0x7FF2AE, size: 0x8, addend: 0x0, symName: __ZN12_GLOBAL__N_125collection_operation_exprIxLNS_19CollectionOperation4TypeE3ELb1ELb0EEEDaS1_, symObjAddr: 0x697A8, symBinAddr: 0x4959E4, symSize: 0x13C }
  - { offset: 0x7FFAF3, size: 0x8, addend: 0x0, symName: __ZN12_GLOBAL__N_125collection_operation_exprIxLNS_19CollectionOperation4TypeE3ELb0ELb1EEEDaS1_, symObjAddr: 0x6A100, symBinAddr: 0x49633C, symSize: 0x84 }
  - { offset: 0x7FFC75, size: 0x8, addend: 0x0, symName: __ZN12_GLOBAL__N_125collection_operation_exprIxLNS_19CollectionOperation4TypeE3ELb0ELb0EEEDaS1_, symObjAddr: 0x6A418, symBinAddr: 0x496654, symSize: 0x140 }
  - { offset: 0x80056F, size: 0x8, addend: 0x0, symName: __ZN12_GLOBAL__N_125collection_operation_exprIN5realm5MixedELNS_19CollectionOperation4TypeE3ELb1ELb0EEEDaS3_, symObjAddr: 0x69DD4, symBinAddr: 0x496010, symSize: 0x1F4 }
  - { offset: 0x8013D5, size: 0x8, addend: 0x0, symName: __ZN12_GLOBAL__N_125collection_operation_exprIN5realm9TimestampELNS_19CollectionOperation4TypeE3ELb1ELb0EEEDaS3_, symObjAddr: 0x69C98, symBinAddr: 0x495ED4, symSize: 0x13C }
  - { offset: 0x801C1A, size: 0x8, addend: 0x0, symName: __ZN12_GLOBAL__N_125collection_operation_exprIN5realm10Decimal128ELNS_19CollectionOperation4TypeE3ELb1ELb0EEEDaS3_, symObjAddr: 0x69B5C, symBinAddr: 0x495D98, symSize: 0x13C }
  - { offset: 0x80245F, size: 0x8, addend: 0x0, symName: __ZN12_GLOBAL__N_125collection_operation_exprIfLNS_19CollectionOperation4TypeE3ELb1ELb0EEEDaS1_, symObjAddr: 0x698E4, symBinAddr: 0x495B20, symSize: 0x13C }
  - { offset: 0x802CB4, size: 0x8, addend: 0x0, symName: __ZN12_GLOBAL__N_125collection_operation_exprIdLNS_19CollectionOperation4TypeE3ELb1ELb0EEEDaS1_, symObjAddr: 0x69A20, symBinAddr: 0x495C5C, symSize: 0x13C }
  - { offset: 0x803509, size: 0x8, addend: 0x0, symName: __ZN12_GLOBAL__N_125collection_operation_exprIN5realm5MixedELNS_19CollectionOperation4TypeE3ELb0ELb1EEEDaS3_, symObjAddr: 0x6A394, symBinAddr: 0x4965D0, symSize: 0x84 }
  - { offset: 0x80368B, size: 0x8, addend: 0x0, symName: __ZN12_GLOBAL__N_125collection_operation_exprIN5realm5MixedELNS_19CollectionOperation4TypeE3ELb0ELb0EEEDaS3_, symObjAddr: 0x6AC80, symBinAddr: 0x496EBC, symSize: 0x84 }
  - { offset: 0x80380D, size: 0x8, addend: 0x0, symName: __ZN12_GLOBAL__N_125collection_operation_exprIN5realm9TimestampELNS_19CollectionOperation4TypeE3ELb0ELb1EEEDaS3_, symObjAddr: 0x6A310, symBinAddr: 0x49654C, symSize: 0x84 }
  - { offset: 0x80398F, size: 0x8, addend: 0x0, symName: __ZN12_GLOBAL__N_125collection_operation_exprIN5realm9TimestampELNS_19CollectionOperation4TypeE3ELb0ELb0EEEDaS3_, symObjAddr: 0x6A918, symBinAddr: 0x496B54, symSize: 0x280 }
  - { offset: 0x804CAB, size: 0x8, addend: 0x0, symName: __ZN12_GLOBAL__N_125collection_operation_exprIN5realm10Decimal128ELNS_19CollectionOperation4TypeE3ELb0ELb1EEEDaS3_, symObjAddr: 0x6A28C, symBinAddr: 0x4964C8, symSize: 0x84 }
  - { offset: 0x804E2D, size: 0x8, addend: 0x0, symName: __ZN12_GLOBAL__N_125collection_operation_exprIN5realm10Decimal128ELNS_19CollectionOperation4TypeE3ELb0ELb0EEEDaS3_, symObjAddr: 0x6A7D8, symBinAddr: 0x496A14, symSize: 0x140 }
  - { offset: 0x805727, size: 0x8, addend: 0x0, symName: __ZN12_GLOBAL__N_125collection_operation_exprIfLNS_19CollectionOperation4TypeE3ELb0ELb1EEEDaS1_, symObjAddr: 0x6A184, symBinAddr: 0x4963C0, symSize: 0x84 }
  - { offset: 0x8058A9, size: 0x8, addend: 0x0, symName: __ZN12_GLOBAL__N_125collection_operation_exprIfLNS_19CollectionOperation4TypeE3ELb0ELb0EEEDaS1_, symObjAddr: 0x6A558, symBinAddr: 0x496794, symSize: 0x140 }
  - { offset: 0x8061A3, size: 0x8, addend: 0x0, symName: __ZN12_GLOBAL__N_125collection_operation_exprIdLNS_19CollectionOperation4TypeE3ELb0ELb1EEEDaS1_, symObjAddr: 0x6A208, symBinAddr: 0x496444, symSize: 0x84 }
  - { offset: 0x806325, size: 0x8, addend: 0x0, symName: __ZN12_GLOBAL__N_125collection_operation_exprIdLNS_19CollectionOperation4TypeE3ELb0ELb0EEEDaS1_, symObjAddr: 0x6A698, symBinAddr: 0x4968D4, symSize: 0x140 }
  - { offset: 0x806ED0, size: 0x8, addend: 0x0, symName: __ZN12_GLOBAL__N_125collection_operation_exprIxLNS_19CollectionOperation4TypeE4ELb1ELb0EEEDaS1_, symObjAddr: 0x6E69C, symBinAddr: 0x49A8D8, symSize: 0x13C }
  - { offset: 0x807715, size: 0x8, addend: 0x0, symName: __ZN12_GLOBAL__N_125collection_operation_exprIxLNS_19CollectionOperation4TypeE4ELb0ELb1EEEDaS1_, symObjAddr: 0x6EEB8, symBinAddr: 0x49B0F4, symSize: 0x84 }
  - { offset: 0x807897, size: 0x8, addend: 0x0, symName: __ZN12_GLOBAL__N_125collection_operation_exprIxLNS_19CollectionOperation4TypeE4ELb0ELb0EEEDaS1_, symObjAddr: 0x6F14C, symBinAddr: 0x49B388, symSize: 0x140 }
  - { offset: 0x808191, size: 0x8, addend: 0x0, symName: __ZN12_GLOBAL__N_125collection_operation_exprIN5realm10Decimal128ELNS_19CollectionOperation4TypeE4ELb1ELb0EEEDaS3_, symObjAddr: 0x6EA50, symBinAddr: 0x49AC8C, symSize: 0x13C }
  - { offset: 0x8089D6, size: 0x8, addend: 0x0, symName: __ZN12_GLOBAL__N_125collection_operation_exprIN5realm5MixedELNS_19CollectionOperation4TypeE4ELb1ELb0EEEDaS3_, symObjAddr: 0x6EB8C, symBinAddr: 0x49ADC8, symSize: 0x1F4 }
  - { offset: 0x80983C, size: 0x8, addend: 0x0, symName: __ZN12_GLOBAL__N_125collection_operation_exprIdLNS_19CollectionOperation4TypeE4ELb1ELb0EEEDaS1_, symObjAddr: 0x6E914, symBinAddr: 0x49AB50, symSize: 0x13C }
  - { offset: 0x80A091, size: 0x8, addend: 0x0, symName: __ZN12_GLOBAL__N_125collection_operation_exprIfLNS_19CollectionOperation4TypeE4ELb1ELb0EEEDaS1_, symObjAddr: 0x6E7D8, symBinAddr: 0x49AA14, symSize: 0x13C }
  - { offset: 0x80A8E6, size: 0x8, addend: 0x0, symName: __ZN12_GLOBAL__N_125collection_operation_exprIN5realm10Decimal128ELNS_19CollectionOperation4TypeE4ELb0ELb1EEEDaS3_, symObjAddr: 0x6F044, symBinAddr: 0x49B280, symSize: 0x84 }
  - { offset: 0x80AA68, size: 0x8, addend: 0x0, symName: __ZN12_GLOBAL__N_125collection_operation_exprIN5realm10Decimal128ELNS_19CollectionOperation4TypeE4ELb0ELb0EEEDaS3_, symObjAddr: 0x6F50C, symBinAddr: 0x49B748, symSize: 0x140 }
  - { offset: 0x80B362, size: 0x8, addend: 0x0, symName: __ZN12_GLOBAL__N_125collection_operation_exprIN5realm5MixedELNS_19CollectionOperation4TypeE4ELb0ELb1EEEDaS3_, symObjAddr: 0x6F0C8, symBinAddr: 0x49B304, symSize: 0x84 }
  - { offset: 0x80B4E4, size: 0x8, addend: 0x0, symName: __ZN12_GLOBAL__N_125collection_operation_exprIN5realm5MixedELNS_19CollectionOperation4TypeE4ELb0ELb0EEEDaS3_, symObjAddr: 0x6F64C, symBinAddr: 0x49B888, symSize: 0x84 }
  - { offset: 0x80B666, size: 0x8, addend: 0x0, symName: __ZN12_GLOBAL__N_125collection_operation_exprIdLNS_19CollectionOperation4TypeE4ELb0ELb1EEEDaS1_, symObjAddr: 0x6EFC0, symBinAddr: 0x49B1FC, symSize: 0x84 }
  - { offset: 0x80B7E8, size: 0x8, addend: 0x0, symName: __ZN12_GLOBAL__N_125collection_operation_exprIdLNS_19CollectionOperation4TypeE4ELb0ELb0EEEDaS1_, symObjAddr: 0x6F3CC, symBinAddr: 0x49B608, symSize: 0x140 }
  - { offset: 0x80C0E2, size: 0x8, addend: 0x0, symName: __ZN12_GLOBAL__N_125collection_operation_exprIfLNS_19CollectionOperation4TypeE4ELb0ELb1EEEDaS1_, symObjAddr: 0x6EF3C, symBinAddr: 0x49B178, symSize: 0x84 }
  - { offset: 0x80C264, size: 0x8, addend: 0x0, symName: __ZN12_GLOBAL__N_125collection_operation_exprIfLNS_19CollectionOperation4TypeE4ELb0ELb0EEEDaS1_, symObjAddr: 0x6F28C, symBinAddr: 0x49B4C8, symSize: 0x140 }
  - { offset: 0x80CDA5, size: 0x8, addend: 0x0, symName: __ZN12_GLOBAL__N_125collection_operation_exprIxLNS_19CollectionOperation4TypeE5ELb1ELb0EEEDaS1_, symObjAddr: 0x78210, symBinAddr: 0x4A444C, symSize: 0x13C }
  - { offset: 0x80D5EA, size: 0x8, addend: 0x0, symName: __ZN12_GLOBAL__N_125collection_operation_exprIxLNS_19CollectionOperation4TypeE5ELb0ELb1EEEDaS1_, symObjAddr: 0x78A2C, symBinAddr: 0x4A4C68, symSize: 0x84 }
  - { offset: 0x80D76C, size: 0x8, addend: 0x0, symName: __ZN12_GLOBAL__N_125collection_operation_exprIxLNS_19CollectionOperation4TypeE5ELb0ELb0EEEDaS1_, symObjAddr: 0x78CC0, symBinAddr: 0x4A4EFC, symSize: 0x140 }
  - { offset: 0x80E066, size: 0x8, addend: 0x0, symName: __ZN12_GLOBAL__N_125collection_operation_exprIN5realm10Decimal128ELNS_19CollectionOperation4TypeE5ELb1ELb0EEEDaS3_, symObjAddr: 0x785C4, symBinAddr: 0x4A4800, symSize: 0x13C }
  - { offset: 0x80E8AB, size: 0x8, addend: 0x0, symName: __ZN12_GLOBAL__N_125collection_operation_exprIN5realm5MixedELNS_19CollectionOperation4TypeE5ELb1ELb0EEEDaS3_, symObjAddr: 0x78700, symBinAddr: 0x4A493C, symSize: 0x1F4 }
  - { offset: 0x80F711, size: 0x8, addend: 0x0, symName: __ZN12_GLOBAL__N_125collection_operation_exprIdLNS_19CollectionOperation4TypeE5ELb1ELb0EEEDaS1_, symObjAddr: 0x78488, symBinAddr: 0x4A46C4, symSize: 0x13C }
  - { offset: 0x80FF66, size: 0x8, addend: 0x0, symName: __ZN12_GLOBAL__N_125collection_operation_exprIfLNS_19CollectionOperation4TypeE5ELb1ELb0EEEDaS1_, symObjAddr: 0x7834C, symBinAddr: 0x4A4588, symSize: 0x13C }
  - { offset: 0x8107BB, size: 0x8, addend: 0x0, symName: __ZN12_GLOBAL__N_125collection_operation_exprIN5realm10Decimal128ELNS_19CollectionOperation4TypeE5ELb0ELb1EEEDaS3_, symObjAddr: 0x78BB8, symBinAddr: 0x4A4DF4, symSize: 0x84 }
  - { offset: 0x81093D, size: 0x8, addend: 0x0, symName: __ZN12_GLOBAL__N_125collection_operation_exprIN5realm10Decimal128ELNS_19CollectionOperation4TypeE5ELb0ELb0EEEDaS3_, symObjAddr: 0x79080, symBinAddr: 0x4A52BC, symSize: 0x140 }
  - { offset: 0x811237, size: 0x8, addend: 0x0, symName: __ZN12_GLOBAL__N_125collection_operation_exprIN5realm5MixedELNS_19CollectionOperation4TypeE5ELb0ELb1EEEDaS3_, symObjAddr: 0x78C3C, symBinAddr: 0x4A4E78, symSize: 0x84 }
  - { offset: 0x8113B9, size: 0x8, addend: 0x0, symName: __ZN12_GLOBAL__N_125collection_operation_exprIN5realm5MixedELNS_19CollectionOperation4TypeE5ELb0ELb0EEEDaS3_, symObjAddr: 0x791C0, symBinAddr: 0x4A53FC, symSize: 0x84 }
  - { offset: 0x81153B, size: 0x8, addend: 0x0, symName: __ZN12_GLOBAL__N_125collection_operation_exprIdLNS_19CollectionOperation4TypeE5ELb0ELb1EEEDaS1_, symObjAddr: 0x78B34, symBinAddr: 0x4A4D70, symSize: 0x84 }
  - { offset: 0x8116BD, size: 0x8, addend: 0x0, symName: __ZN12_GLOBAL__N_125collection_operation_exprIdLNS_19CollectionOperation4TypeE5ELb0ELb0EEEDaS1_, symObjAddr: 0x78F40, symBinAddr: 0x4A517C, symSize: 0x140 }
  - { offset: 0x811FB7, size: 0x8, addend: 0x0, symName: __ZN12_GLOBAL__N_125collection_operation_exprIfLNS_19CollectionOperation4TypeE5ELb0ELb1EEEDaS1_, symObjAddr: 0x78AB0, symBinAddr: 0x4A4CEC, symSize: 0x84 }
  - { offset: 0x812139, size: 0x8, addend: 0x0, symName: __ZN12_GLOBAL__N_125collection_operation_exprIfLNS_19CollectionOperation4TypeE5ELb0ELb0EEEDaS1_, symObjAddr: 0x78E00, symBinAddr: 0x4A503C, symSize: 0x140 }
  - { offset: 0x813017, size: 0x8, addend: 0x0, symName: __ZN12_GLOBAL__N_110get_stringERKN5realm5MixedE, symObjAddr: 0x7CCE0, symBinAddr: 0x4A8F1C, symSize: 0x60 }
  - { offset: 0x8130E5, size: 0x8, addend: 0x0, symName: __ZN5realm4util5CFPtrIPK10__CFStringED2Ev, symObjAddr: 0x7CD40, symBinAddr: 0x4A8F7C, symSize: 0x30 }
  - { offset: 0x8130F0, size: 0x8, addend: 0x0, symName: __ZN12_GLOBAL__N_118contains_substringEmN5realm10StringDataES1_, symObjAddr: 0x7CBE0, symBinAddr: 0x4A8E1C, symSize: 0x100 }
  - { offset: 0x813333, size: 0x8, addend: 0x0, symName: __ZN12_GLOBAL__N_15equalEmN5realm10StringDataES1_, symObjAddr: 0x80690, symBinAddr: 0x4AC8CC, symSize: 0x104 }
  - { offset: 0x814413, size: 0x8, addend: 0x0, symName: __ZN12_GLOBAL__N_135make_diacritic_sensitive_constraintIN5realm7ColumnsINS1_3LstINS1_5MixedEEEEES4_EENS1_5QueryE23NSPredicateOperatorTypebRT_RKT0_, symObjAddr: 0x94630, symBinAddr: 0x4C03D0, symSize: 0x1CC }
  - { offset: 0x814575, size: 0x8, addend: 0x0, symName: __ZN5realm12make_subexprINS_19ConstantStringValueEJNS_10StringDataEEEENSt3__110unique_ptrINS_7SubexprENS3_14default_deleteIS5_EEEEDpOT0_, symObjAddr: 0x947FC, symBinAddr: 0x4C059C, symSize: 0x54 }
  - { offset: 0x8145EE, size: 0x8, addend: 0x0, symName: __ZN12_GLOBAL__N_135make_diacritic_sensitive_constraintIN5realm7ColumnsINS1_3SetINS1_5MixedEEEEES4_EENS1_5QueryE23NSPredicateOperatorTypebRT_RKT0_, symObjAddr: 0x94FE0, symBinAddr: 0x4C0D80, symSize: 0x1CC }
  - { offset: 0x814750, size: 0x8, addend: 0x0, symName: __ZN12_GLOBAL__N_112QueryBuilder22add_numeric_constraintIN5realm7ColumnsINS2_10DictionaryEEENS2_4nullEEEv15RLMPropertyType23NSPredicateOperatorTypeOT_OT0_, symObjAddr: 0x951AC, symBinAddr: 0x4C0F4C, symSize: 0x138 }
  - { offset: 0x8147C9, size: 0x8, addend: 0x0, symName: __ZN12_GLOBAL__N_135make_diacritic_sensitive_constraintIN5realm7ColumnsINS1_10DictionaryEEENS1_5MixedEEENS1_5QueryE23NSPredicateOperatorTypebRT_RKT0_, symObjAddr: 0x95794, symBinAddr: 0x4C1534, symSize: 0x218 }
  - { offset: 0x8149B2, size: 0x8, addend: 0x0, symName: __ZN12_GLOBAL__N_135make_diacritic_sensitive_constraintIN5realm7ColumnsINS1_5MixedEEES3_EENS1_5QueryE23NSPredicateOperatorTypebRT_RKT0_, symObjAddr: 0x95E5C, symBinAddr: 0x4C1BFC, symSize: 0x1CC }
  - { offset: 0x814B14, size: 0x8, addend: 0x0, symName: __ZN12_GLOBAL__N_112QueryBuilder22add_between_constraintERKNS_15ColumnReferenceEP11objc_object, symObjAddr: 0x96028, symBinAddr: 0x4C1DC8, symSize: 0x708 }
  - { offset: 0x815163, size: 0x8, addend: 0x0, symName: __ZN12_GLOBAL__N_112convert_nullIRU8__strongKP11objc_objectZNS_12QueryBuilder17do_add_constraintINS_16AlwaysDictionaryES4_EEv15RLMPropertyType23NSPredicateOperatorTypemRKNS_15ColumnReferenceEOT0_EUlOT_E6_EEvSG_SE_, symObjAddr: 0xC289C, symBinAddr: 0x4EE550, symSize: 0x4C }
  - { offset: 0x815295, size: 0x8, addend: 0x0, symName: __ZN12_GLOBAL__N_112convert_nullIRU8__strongKP11objc_objectZNS_12QueryBuilder17do_add_constraintIN5realm3SetES4_EEv15RLMPropertyType23NSPredicateOperatorTypemRKNS_15ColumnReferenceEOT0_EUlOT_E5_EEvSH_SF_, symObjAddr: 0xBEFDC, symBinAddr: 0x4EAC90, symSize: 0x44C }
  - { offset: 0x815659, size: 0x8, addend: 0x0, symName: __ZN12_GLOBAL__N_112convert_nullIRU8__strongKP11objc_objectZNS_12QueryBuilder17do_add_constraintIN5realm3SetES4_EEv15RLMPropertyType23NSPredicateOperatorTypemRKNS_15ColumnReferenceEOT0_EUlOT_E1_EEvSH_SF_, symObjAddr: 0xBDF08, symBinAddr: 0x4E9BBC, symSize: 0x44C }
  - { offset: 0x8159F0, size: 0x8, addend: 0x0, symName: __ZN12_GLOBAL__N_112convert_nullIRU8__strongKP11objc_objectZNS_12QueryBuilder17do_add_constraintIN5realm3SetES4_EEv15RLMPropertyType23NSPredicateOperatorTypemRKNS_15ColumnReferenceEOT0_EUlOT_E7_EEvSH_SF_, symObjAddr: 0xBFD48, symBinAddr: 0x4EB9FC, symSize: 0x304 }
  - { offset: 0x815C1F, size: 0x8, addend: 0x0, symName: __ZN12_GLOBAL__N_112convert_nullIRU8__strongKP11objc_objectZNS_12QueryBuilder17do_add_constraintIN5realm3SetES4_EEv15RLMPropertyType23NSPredicateOperatorTypemRKNS_15ColumnReferenceEOT0_EUlOT_E8_EEvSH_SF_, symObjAddr: 0xC004C, symBinAddr: 0x4EBD00, symSize: 0x74C }
  - { offset: 0x81799D, size: 0x8, addend: 0x0, symName: __ZN12_GLOBAL__N_112convert_nullIRU8__strongKP11objc_objectZNS_12QueryBuilder17do_add_constraintIN5realm3SetES4_EEv15RLMPropertyType23NSPredicateOperatorTypemRKNS_15ColumnReferenceEOT0_EUlOT_E4_EEvSH_SF_, symObjAddr: 0xBEBAC, symBinAddr: 0x4EA860, symSize: 0x430 }
  - { offset: 0x817D66, size: 0x8, addend: 0x0, symName: __ZN12_GLOBAL__N_112convert_nullIRU8__strongKP11objc_objectZNS_12QueryBuilder17do_add_constraintIN5realm3SetES4_EEv15RLMPropertyType23NSPredicateOperatorTypemRKNS_15ColumnReferenceEOT0_EUlOT_E_EEvSH_SF_, symObjAddr: 0xBD91C, symBinAddr: 0x4E95D0, symSize: 0x2F0 }
  - { offset: 0x817FB1, size: 0x8, addend: 0x0, symName: __ZN12_GLOBAL__N_112convert_nullIRU8__strongKP11objc_objectZNS_12QueryBuilder17do_add_constraintIN5realm3SetES4_EEv15RLMPropertyType23NSPredicateOperatorTypemRKNS_15ColumnReferenceEOT0_EUlOT_E3_EEvSH_SF_, symObjAddr: 0xBE780, symBinAddr: 0x4EA434, symSize: 0x42C }
  - { offset: 0x81837E, size: 0x8, addend: 0x0, symName: __ZN12_GLOBAL__N_112convert_nullIRU8__strongKP11objc_objectZNS_12QueryBuilder17do_add_constraintIN5realm3SetES4_EEv15RLMPropertyType23NSPredicateOperatorTypemRKNS_15ColumnReferenceEOT0_EUlOT_E2_EEvSH_SF_, symObjAddr: 0xBE354, symBinAddr: 0x4EA008, symSize: 0x42C }
  - { offset: 0x81874B, size: 0x8, addend: 0x0, symName: __ZN12_GLOBAL__N_112convert_nullIRU8__strongKP11objc_objectZNS_12QueryBuilder17do_add_constraintIN5realm3SetES4_EEv15RLMPropertyType23NSPredicateOperatorTypemRKNS_15ColumnReferenceEOT0_EUlOT_E0_EEvSH_SF_, symObjAddr: 0xBDC0C, symBinAddr: 0x4E98C0, symSize: 0x2FC }
  - { offset: 0x818990, size: 0x8, addend: 0x0, symName: __ZN12_GLOBAL__N_112convert_nullIRU8__strongKP11objc_objectZNS_12QueryBuilder17do_add_constraintINS_16AlwaysDictionaryES4_EEv15RLMPropertyType23NSPredicateOperatorTypemRKNS_15ColumnReferenceEOT0_EUlOT_E5_EEvSG_SE_, symObjAddr: 0xC1678, symBinAddr: 0x4ED32C, symSize: 0x1E4 }
  - { offset: 0x818C21, size: 0x8, addend: 0x0, symName: __ZN12_GLOBAL__N_112convert_nullIRU8__strongKP11objc_objectZNS_12QueryBuilder17do_add_constraintINS_8IdentityES4_EEv15RLMPropertyType23NSPredicateOperatorTypemRKNS_15ColumnReferenceEOT0_EUlOT_E5_EEvSG_SE_, symObjAddr: 0xC47B4, symBinAddr: 0x4F0468, symSize: 0x40C }
  - { offset: 0x818FFD, size: 0x8, addend: 0x0, symName: __ZN12_GLOBAL__N_112convert_nullIRU8__strongKP11objc_objectZNS_12QueryBuilder17do_add_constraintINS_16AlwaysDictionaryES4_EEv15RLMPropertyType23NSPredicateOperatorTypemRKNS_15ColumnReferenceEOT0_EUlOT_E1_EEvSG_SE_, symObjAddr: 0xC0F44, symBinAddr: 0x4ECBF8, symSize: 0x1E4 }
  - { offset: 0x819261, size: 0x8, addend: 0x0, symName: __ZN12_GLOBAL__N_112convert_nullIRU8__strongKP11objc_objectZNS_12QueryBuilder17do_add_constraintINS_8IdentityES4_EEv15RLMPropertyType23NSPredicateOperatorTypemRKNS_15ColumnReferenceEOT0_EUlOT_E1_EEvSG_SE_, symObjAddr: 0xC3798, symBinAddr: 0x4EF44C, symSize: 0x3F4 }
  - { offset: 0x81962C, size: 0x8, addend: 0x0, symName: __ZN12_GLOBAL__N_112convert_nullIRU8__strongKP11objc_objectZNS_12QueryBuilder17do_add_constraintINS_16AlwaysDictionaryES4_EEv15RLMPropertyType23NSPredicateOperatorTypemRKNS_15ColumnReferenceEOT0_EUlOT_E7_EEvSG_SE_, symObjAddr: 0xC28E8, symBinAddr: 0x4EE59C, symSize: 0x3D0 }
  - { offset: 0x81A1A4, size: 0x8, addend: 0x0, symName: __ZN12_GLOBAL__N_112convert_nullIRU8__strongKP11objc_objectZNS_12QueryBuilder17do_add_constraintINS_8IdentityES4_EEv15RLMPropertyType23NSPredicateOperatorTypemRKNS_15ColumnReferenceEOT0_EUlOT_E7_EEvSG_SE_, symObjAddr: 0xC552C, symBinAddr: 0x4F1194, symSize: 0x2C4 }
  - { offset: 0x81A3DB, size: 0x8, addend: 0x0, symName: __ZN12_GLOBAL__N_112convert_nullIRU8__strongKP11objc_objectZNS_12QueryBuilder17do_add_constraintINS_16AlwaysDictionaryES4_EEv15RLMPropertyType23NSPredicateOperatorTypemRKNS_15ColumnReferenceEOT0_EUlOT_E8_EEvSG_SE_, symObjAddr: 0xC2CB8, symBinAddr: 0x4EE96C, symSize: 0xC4 }
  - { offset: 0x81A567, size: 0x8, addend: 0x0, symName: __ZN12_GLOBAL__N_112convert_nullIRU8__strongKP11objc_objectZNS_12QueryBuilder17do_add_constraintINS_8IdentityES4_EEv15RLMPropertyType23NSPredicateOperatorTypemRKNS_15ColumnReferenceEOT0_EUlOT_E8_EEvSG_SE_, symObjAddr: 0xC57F0, symBinAddr: 0x4F1458, symSize: 0xF8 }
  - { offset: 0x81A6F9, size: 0x8, addend: 0x0, symName: __ZN12_GLOBAL__N_112convert_nullIRU8__strongKP11objc_objectZNS_12QueryBuilder17do_add_constraintINS_16AlwaysDictionaryES4_EEv15RLMPropertyType23NSPredicateOperatorTypemRKNS_15ColumnReferenceEOT0_EUlOT_E4_EEvSG_SE_, symObjAddr: 0xC14B0, symBinAddr: 0x4ED164, symSize: 0x1C8 }
  - { offset: 0x81A98F, size: 0x8, addend: 0x0, symName: __ZN12_GLOBAL__N_112convert_nullIRU8__strongKP11objc_objectZNS_12QueryBuilder17do_add_constraintINS_16AlwaysDictionaryES4_EEv15RLMPropertyType23NSPredicateOperatorTypemRKNS_15ColumnReferenceEOT0_EUlOT_E_EEvSG_SE_, symObjAddr: 0xC0798, symBinAddr: 0x4EC44C, symSize: 0x3CC }
  - { offset: 0x81B54F, size: 0x8, addend: 0x0, symName: __ZN12_GLOBAL__N_112convert_nullIRU8__strongKP11objc_objectZNS_12QueryBuilder17do_add_constraintINS_8IdentityES4_EEv15RLMPropertyType23NSPredicateOperatorTypemRKNS_15ColumnReferenceEOT0_EUlOT_E4_EEvSG_SE_, symObjAddr: 0xC43A4, symBinAddr: 0x4F0058, symSize: 0x410 }
  - { offset: 0x81B930, size: 0x8, addend: 0x0, symName: __ZN12_GLOBAL__N_112convert_nullIRU8__strongKP11objc_objectZNS_12QueryBuilder17do_add_constraintINS_8IdentityES4_EEv15RLMPropertyType23NSPredicateOperatorTypemRKNS_15ColumnReferenceEOT0_EUlOT_E_EEvSG_SE_, symObjAddr: 0xC320C, symBinAddr: 0x4EEEC0, symSize: 0x2D0 }
  - { offset: 0x81BB83, size: 0x8, addend: 0x0, symName: __ZN12_GLOBAL__N_112convert_nullIRU8__strongKP11objc_objectZNS_12QueryBuilder17do_add_constraintINS_16AlwaysDictionaryES4_EEv15RLMPropertyType23NSPredicateOperatorTypemRKNS_15ColumnReferenceEOT0_EUlOT_E3_EEvSG_SE_, symObjAddr: 0xC12EC, symBinAddr: 0x4ECFA0, symSize: 0x1C4 }
  - { offset: 0x81BE1D, size: 0x8, addend: 0x0, symName: __ZN12_GLOBAL__N_112convert_nullIRU8__strongKP11objc_objectZNS_12QueryBuilder17do_add_constraintINS_8IdentityES4_EEv15RLMPropertyType23NSPredicateOperatorTypemRKNS_15ColumnReferenceEOT0_EUlOT_E3_EEvSG_SE_, symObjAddr: 0xC3F98, symBinAddr: 0x4EFC4C, symSize: 0x40C }
  - { offset: 0x81C1EA, size: 0x8, addend: 0x0, symName: __ZN12_GLOBAL__N_112convert_nullIRU8__strongKP11objc_objectZNS_12QueryBuilder17do_add_constraintINS_16AlwaysDictionaryES4_EEv15RLMPropertyType23NSPredicateOperatorTypemRKNS_15ColumnReferenceEOT0_EUlOT_E2_EEvSG_SE_, symObjAddr: 0xC1128, symBinAddr: 0x4ECDDC, symSize: 0x1C4 }
  - { offset: 0x81C484, size: 0x8, addend: 0x0, symName: __ZN12_GLOBAL__N_112convert_nullIRU8__strongKP11objc_objectZNS_12QueryBuilder17do_add_constraintINS_8IdentityES4_EEv15RLMPropertyType23NSPredicateOperatorTypemRKNS_15ColumnReferenceEOT0_EUlOT_E2_EEvSG_SE_, symObjAddr: 0xC3B8C, symBinAddr: 0x4EF840, symSize: 0x40C }
  - { offset: 0x81C851, size: 0x8, addend: 0x0, symName: __ZN12_GLOBAL__N_112convert_nullIRU8__strongKP11objc_objectZNS_12QueryBuilder17do_add_constraintINS_16AlwaysDictionaryES4_EEv15RLMPropertyType23NSPredicateOperatorTypemRKNS_15ColumnReferenceEOT0_EUlOT_E0_EEvSG_SE_, symObjAddr: 0xC0B64, symBinAddr: 0x4EC818, symSize: 0x3E0 }
  - { offset: 0x81D405, size: 0x8, addend: 0x0, symName: __ZN12_GLOBAL__N_112convert_nullIRU8__strongKP11objc_objectZNS_12QueryBuilder17do_add_constraintINS_8IdentityES4_EEv15RLMPropertyType23NSPredicateOperatorTypemRKNS_15ColumnReferenceEOT0_EUlOT_E0_EEvSG_SE_, symObjAddr: 0xC34DC, symBinAddr: 0x4EF190, symSize: 0x2BC }
  - { offset: 0x81DAB5, size: 0x8, addend: 0x0, symName: __ZN12_GLOBAL__N_152simplify_self_value_for_key_path_function_expressionEP12NSExpression, symObjAddr: 0xC5D78, symBinAddr: 0x4F19E0, symSize: 0x190 }
  - { offset: 0x820978, size: 0x8, addend: 0x0, symName: __ZN5realm4util10serializerL15value_separatorE, symObjAddr: 0xD8FF9, symBinAddr: 0x59DE25, symSize: 0x0 }
  - { offset: 0x821E85, size: 0x8, addend: 0x0, symName: __ZN5realm4util6formatIJRNS_10GeospatialERKNSt3__112basic_stringIcNS4_11char_traitsIcEENS4_9allocatorIcEEEEEEESA_PKcDpOT_, symObjAddr: 0xBA494, symBinAddr: 0x4E6234, symSize: 0x98 }
  - { offset: 0x822020, size: 0x8, addend: 0x0, symName: __ZN5realm4util6formatIJNS_10StringDataERKNS_10ColumnTypeEEEENSt3__112basic_stringIcNS6_11char_traitsIcEENS6_9allocatorIcEEEEPKcDpOT_, symObjAddr: 0x8E7C, symBinAddr: 0x446B60, symSize: 0x228 }
  - { offset: 0x822CF8, size: 0x8, addend: 0x0, symName: __ZN5realm12make_subexprINS_25CollectionColumnAggregateIdNS_20aggregate_operations7AverageIdEEEEJRKS5_EEENSt3__110unique_ptrINS_7SubexprENS8_14default_deleteISA_EEEEDpOT0_, symObjAddr: 0x1FD5C, symBinAddr: 0x4564C4, symSize: 0x68 }
  - { offset: 0x84A367, size: 0x8, addend: 0x0, symName: __ZN5realm6createINS_7GreaterExxEENS_5QueryET0_RKNS_8Subexpr2IT1_EE, symObjAddr: 0x9B7F0, symBinAddr: 0x4C7590, symSize: 0x1B4 }
  - { offset: 0x84AA5D, size: 0x8, addend: 0x0, symName: __ZN5realm6createINS_7GreaterENS_10StringDataES2_EENS_5QueryET0_RKNS_8Subexpr2IT1_EE, symObjAddr: 0xB8C1C, symBinAddr: 0x4E49BC, symSize: 0x1B4 }
  - { offset: 0x84B010, size: 0x8, addend: 0x0, symName: __ZN5realm12make_subexprINS_19ConstantStringValueEJRNS_10StringDataEEEENSt3__110unique_ptrINS_7SubexprENS4_14default_deleteIS6_EEEEDpOT0_, symObjAddr: 0xB934C, symBinAddr: 0x4E50EC, symSize: 0x54 }
  - { offset: 0x84B133, size: 0x8, addend: 0x0, symName: __ZN5realm6createINS_4LessENS_10StringDataES2_EENS_5QueryET0_RKNS_8Subexpr2IT1_EE, symObjAddr: 0xB8FE4, symBinAddr: 0x4E4D84, symSize: 0x1B4 }
  - { offset: 0x84B6E6, size: 0x8, addend: 0x0, symName: __ZN5realm6createINS_9LessEqualENS_10StringDataES2_EENS_5QueryET0_RKNS_8Subexpr2IT1_EE, symObjAddr: 0xB9198, symBinAddr: 0x4E4F38, symSize: 0x1B4 }
  - { offset: 0x84BC99, size: 0x8, addend: 0x0, symName: __ZN5realm6createINS_12GreaterEqualENS_10StringDataES2_EENS_5QueryET0_RKNS_8Subexpr2IT1_EE, symObjAddr: 0xB8E30, symBinAddr: 0x4E4BD0, symSize: 0x1B4 }
  - { offset: 0x84C24C, size: 0x8, addend: 0x0, symName: __ZN5realm6createINS_5EqualExxEENS_5QueryET0_RKNS_8Subexpr2IT1_EE, symObjAddr: 0x9BEC0, symBinAddr: 0x4C7C60, symSize: 0x1BC }
  - { offset: 0x84C942, size: 0x8, addend: 0x0, symName: __ZN5realm6createINS_4LessExxEENS_5QueryET0_RKNS_8Subexpr2IT1_EE, symObjAddr: 0x9BB58, symBinAddr: 0x4C78F8, symSize: 0x1B4 }
  - { offset: 0x84D038, size: 0x8, addend: 0x0, symName: __ZN5realm6createINS_9LessEqualExxEENS_5QueryET0_RKNS_8Subexpr2IT1_EE, symObjAddr: 0x9BD0C, symBinAddr: 0x4C7AAC, symSize: 0x1B4 }
  - { offset: 0x84D72E, size: 0x8, addend: 0x0, symName: __ZN5realm6createINS_12GreaterEqualExxEENS_5QueryET0_RKNS_8Subexpr2IT1_EE, symObjAddr: 0x9B9A4, symBinAddr: 0x4C7744, symSize: 0x1B4 }
  - { offset: 0x84DE24, size: 0x8, addend: 0x0, symName: __ZN5realm6createINS_8NotEqualExxEENS_5QueryET0_RKNS_8Subexpr2IT1_EE, symObjAddr: 0x9C07C, symBinAddr: 0x4C7E1C, symSize: 0x1BC }
  - { offset: 0x84E8C8, size: 0x8, addend: 0x0, symName: __ZN5realm7create2INS_4LessExxEENS_5QueryERKNS_8Subexpr2IT0_EERKNS3_IT1_EE, symObjAddr: 0xB62C, symBinAddr: 0x4485C0, symSize: 0x2FC }
  - { offset: 0x84F160, size: 0x8, addend: 0x0, symName: __ZN5realm7create2INS_4LessENS_10StringDataES2_EENS_5QueryERKNS_8Subexpr2IT0_EERKNS4_IT1_EE, symObjAddr: 0x7AD8C, symBinAddr: 0x4A6FC8, symSize: 0x2FC }
  - { offset: 0x84F9F8, size: 0x8, addend: 0x0, symName: __ZN5realm7create2INS_7GreaterENS_10StringDataES2_EENS_5QueryERKNS_8Subexpr2IT0_EERKNS4_IT1_EE, symObjAddr: 0x7B3A4, symBinAddr: 0x4A75E0, symSize: 0x2FC }
  - { offset: 0x850290, size: 0x8, addend: 0x0, symName: __ZN5realm7create2INS_12GreaterEqualENS_10StringDataES2_EENS_5QueryERKNS_8Subexpr2IT0_EERKNS4_IT1_EE, symObjAddr: 0x7B6A0, symBinAddr: 0x4A78DC, symSize: 0x2FC }
  - { offset: 0x850B28, size: 0x8, addend: 0x0, symName: __ZN5realm7create2INS_9LessEqualENS_10StringDataES2_EENS_5QueryERKNS_8Subexpr2IT0_EERKNS4_IT1_EE, symObjAddr: 0x7B0A8, symBinAddr: 0x4A72E4, symSize: 0x2FC }
  - { offset: 0x8513C0, size: 0x8, addend: 0x0, symName: __ZN5realm7create2INS_5EqualExxEENS_5QueryERKNS_8Subexpr2IT0_EERKNS3_IT1_EE, symObjAddr: 0xFE80, symBinAddr: 0x44C718, symSize: 0x2FC }
  - { offset: 0x851C58, size: 0x8, addend: 0x0, symName: __ZN5realm7create2INS_7GreaterExxEENS_5QueryERKNS_8Subexpr2IT0_EERKNS3_IT1_EE, symObjAddr: 0xE494, symBinAddr: 0x44AD2C, symSize: 0x2FC }
  - { offset: 0x8524F0, size: 0x8, addend: 0x0, symName: __ZN5realm7create2INS_12GreaterEqualExxEENS_5QueryERKNS_8Subexpr2IT0_EERKNS3_IT1_EE, symObjAddr: 0xF188, symBinAddr: 0x44BA20, symSize: 0x2FC }
  - { offset: 0x852D88, size: 0x8, addend: 0x0, symName: __ZN5realm7create2INS_9LessEqualExxEENS_5QueryERKNS_8Subexpr2IT0_EERKNS3_IT1_EE, symObjAddr: 0xD79C, symBinAddr: 0x44A034, symSize: 0x2FC }
  - { offset: 0x853620, size: 0x8, addend: 0x0, symName: __ZN5realm7create2INS_8NotEqualExxEENS_5QueryERKNS_8Subexpr2IT0_EERKNS3_IT1_EE, symObjAddr: 0x117FC, symBinAddr: 0x44D320, symSize: 0x2FC }
  - { offset: 0x858F38, size: 0x8, addend: 0x0, symName: __ZN5realm15make_expressionINS_7CompareINS_4LessEEEJNSt3__110unique_ptrINS_7SubexprENS4_14default_deleteIS6_EEEES9_EEENS5_INS_10ExpressionENS7_ISA_EEEEDpOT0_, symObjAddr: 0xB9F0, symBinAddr: 0x4488BC, symSize: 0xE4 }
  - { offset: 0x8597FA, size: 0x8, addend: 0x0, symName: __ZN5realm15make_expressionINS_7CompareINS_9LessEqualEEEJNSt3__110unique_ptrINS_7SubexprENS4_14default_deleteIS6_EEEES9_EEENS5_INS_10ExpressionENS7_ISA_EEEEDpOT0_, symObjAddr: 0xDA98, symBinAddr: 0x44A330, symSize: 0xE4 }
  - { offset: 0x859EDF, size: 0x8, addend: 0x0, symName: __ZN5realm15make_expressionINS_7CompareINS_7GreaterEEEJNSt3__110unique_ptrINS_7SubexprENS4_14default_deleteIS6_EEEES9_EEENS5_INS_10ExpressionENS7_ISA_EEEEDpOT0_, symObjAddr: 0xE790, symBinAddr: 0x44B028, symSize: 0xE4 }
  - { offset: 0x85A5E6, size: 0x8, addend: 0x0, symName: __ZN5realm15make_expressionINS_7CompareINS_12GreaterEqualEEEJNSt3__110unique_ptrINS_7SubexprENS4_14default_deleteIS6_EEEES9_EEENS5_INS_10ExpressionENS7_ISA_EEEEDpOT0_, symObjAddr: 0xF484, symBinAddr: 0x44BD1C, symSize: 0xE4 }
  - { offset: 0x85BB72, size: 0x8, addend: 0x0, symName: __ZN5realm12make_subexprINS_25CollectionColumnAggregateIdNS_20aggregate_operations7MaximumIdEEEEJRKS5_EEENSt3__110unique_ptrINS_7SubexprENS8_14default_deleteISA_EEEEDpOT0_, symObjAddr: 0x1DFA0, symBinAddr: 0x454744, symSize: 0x68 }
  - { offset: 0x85BCE3, size: 0x8, addend: 0x0, symName: __ZN5realm12make_subexprINS_25CollectionColumnAggregateIdNS_20aggregate_operations7MinimumIdEEEEJRKS5_EEENSt3__110unique_ptrINS_7SubexprENS8_14default_deleteISA_EEEEDpOT0_, symObjAddr: 0x1E974, symBinAddr: 0x455118, symSize: 0x68 }
  - { offset: 0x85BE54, size: 0x8, addend: 0x0, symName: __ZN5realm12make_subexprINS_25CollectionColumnAggregateIdNS_20aggregate_operations3SumIdEEEEJRKS5_EEENSt3__110unique_ptrINS_7SubexprENS8_14default_deleteISA_EEEEDpOT0_, symObjAddr: 0x1F318, symBinAddr: 0x455ABC, symSize: 0x68 }
  - { offset: 0x85BFC5, size: 0x8, addend: 0x0, symName: __ZN5realm12make_subexprINS_25CollectionColumnAggregateIdNS_20aggregate_operations7AverageIdEEEEJRKS5_EEENSt3__110unique_ptrINS_7SubexprENS8_14default_deleteISA_EEEEDpOT0_, symObjAddr: 0x1FD5C, symBinAddr: 0x4564C4, symSize: 0x68 }
  - { offset: 0x85C296, size: 0x8, addend: 0x0, symName: __ZN5realm12make_subexprINS_25CollectionColumnAggregateIfNS_20aggregate_operations7MaximumIfEEEEJRKS5_EEENSt3__110unique_ptrINS_7SubexprENS8_14default_deleteISA_EEEEDpOT0_, symObjAddr: 0x22E80, symBinAddr: 0x458B14, symSize: 0x68 }
  - { offset: 0x85C407, size: 0x8, addend: 0x0, symName: __ZN5realm12make_subexprINS_25CollectionColumnAggregateIfNS_20aggregate_operations7MinimumIfEEEEJRKS5_EEENSt3__110unique_ptrINS_7SubexprENS8_14default_deleteISA_EEEEDpOT0_, symObjAddr: 0x238B0, symBinAddr: 0x459544, symSize: 0x68 }
  - { offset: 0x85C578, size: 0x8, addend: 0x0, symName: __ZN5realm12make_subexprINS_25CollectionColumnAggregateIfNS_20aggregate_operations3SumIfEEEEJRKS5_EEENSt3__110unique_ptrINS_7SubexprENS8_14default_deleteISA_EEEEDpOT0_, symObjAddr: 0x24260, symBinAddr: 0x459EF4, symSize: 0x68 }
  - { offset: 0x85C6E9, size: 0x8, addend: 0x0, symName: __ZN5realm12make_subexprINS_25CollectionColumnAggregateIfNS_20aggregate_operations7AverageIfEEEEJRKS5_EEENSt3__110unique_ptrINS_7SubexprENS8_14default_deleteISA_EEEEDpOT0_, symObjAddr: 0x24C74, symBinAddr: 0x45A8C0, symSize: 0x68 }
  - { offset: 0x85C9E2, size: 0x8, addend: 0x0, symName: __ZN5realm12make_subexprINS_25CollectionColumnAggregateIxNS_20aggregate_operations7MaximumIxEEEEJRKS5_EEENSt3__110unique_ptrINS_7SubexprENS8_14default_deleteISA_EEEEDpOT0_, symObjAddr: 0x28664, symBinAddr: 0x45D320, symSize: 0x68 }
  - { offset: 0x85CB53, size: 0x8, addend: 0x0, symName: __ZN5realm12make_subexprINS_25CollectionColumnAggregateIxNS_20aggregate_operations7MinimumIxEEEEJRKS5_EEENSt3__110unique_ptrINS_7SubexprENS8_14default_deleteISA_EEEEDpOT0_, symObjAddr: 0x291E0, symBinAddr: 0x45DE9C, symSize: 0x68 }
  - { offset: 0x85CCC4, size: 0x8, addend: 0x0, symName: __ZN5realm12make_subexprINS_25CollectionColumnAggregateIxNS_20aggregate_operations3SumIxEEEEJRKS5_EEENSt3__110unique_ptrINS_7SubexprENS8_14default_deleteISA_EEEEDpOT0_, symObjAddr: 0x29D0C, symBinAddr: 0x45E9C8, symSize: 0x68 }
  - { offset: 0x85CE35, size: 0x8, addend: 0x0, symName: __ZN5realm12make_subexprINS_25CollectionColumnAggregateIxNS_20aggregate_operations7AverageIxEEEEJRKS5_EEENSt3__110unique_ptrINS_7SubexprENS8_14default_deleteISA_EEEEDpOT0_, symObjAddr: 0x2A8D0, symBinAddr: 0x45F544, symSize: 0x68 }
  - { offset: 0x85D110, size: 0x8, addend: 0x0, symName: __ZN5realm12make_subexprINS_25CollectionColumnAggregateINS_10Decimal128ENS_20aggregate_operations7MaximumIS2_EEEEJRKS6_EEENSt3__110unique_ptrINS_7SubexprENS9_14default_deleteISB_EEEEDpOT0_, symObjAddr: 0x2D93C, symBinAddr: 0x461DF8, symSize: 0x68 }
  - { offset: 0x85D281, size: 0x8, addend: 0x0, symName: __ZN5realm12make_subexprINS_25CollectionColumnAggregateINS_10Decimal128ENS_20aggregate_operations7MinimumIS2_EEEEJRKS6_EEENSt3__110unique_ptrINS_7SubexprENS9_14default_deleteISB_EEEEDpOT0_, symObjAddr: 0x2E3E0, symBinAddr: 0x46289C, symSize: 0x68 }
  - { offset: 0x85D3F2, size: 0x8, addend: 0x0, symName: __ZN5realm12make_subexprINS_25CollectionColumnAggregateINS_10Decimal128ENS_20aggregate_operations3SumIS2_EEEEJRKS6_EEENSt3__110unique_ptrINS_7SubexprENS9_14default_deleteISB_EEEEDpOT0_, symObjAddr: 0x2EE5C, symBinAddr: 0x463318, symSize: 0x68 }
  - { offset: 0x85D563, size: 0x8, addend: 0x0, symName: __ZN5realm12make_subexprINS_25CollectionColumnAggregateINS_10Decimal128ENS_20aggregate_operations7AverageIS2_EEEEJRKS6_EEENSt3__110unique_ptrINS_7SubexprENS9_14default_deleteISB_EEEEDpOT0_, symObjAddr: 0x2F948, symBinAddr: 0x463E04, symSize: 0x68 }
  - { offset: 0x85F1D9, size: 0x8, addend: 0x0, symName: __ZN5realm7create2INS_4LessENS_5MixedExEENS_5QueryERKNS_8Subexpr2IT0_EERKNS4_IT1_EE, symObjAddr: 0x603E0, symBinAddr: 0x48C61C, symSize: 0x2F8 }
  - { offset: 0x85FA71, size: 0x8, addend: 0x0, symName: __ZN5realm7create2INS_4LessENS_5MixedES2_EENS_5QueryERKNS_8Subexpr2IT0_EERKNS4_IT1_EE, symObjAddr: 0x5EEBC, symBinAddr: 0x48B0F8, symSize: 0x2FC }
  - { offset: 0x860309, size: 0x8, addend: 0x0, symName: __ZN5realm7create2INS_4LessENS_9TimestampES2_EENS_5QueryERKNS_8Subexpr2IT0_EERKNS4_IT1_EE, symObjAddr: 0x5DB00, symBinAddr: 0x489D3C, symSize: 0x2FC }
  - { offset: 0x860BA1, size: 0x8, addend: 0x0, symName: __ZN5realm7create2INS_4LessENS_10Decimal128ES2_EENS_5QueryERKNS_8Subexpr2IT0_EERKNS4_IT1_EE, symObjAddr: 0x5C744, symBinAddr: 0x488980, symSize: 0x2FC }
  - { offset: 0x861439, size: 0x8, addend: 0x0, symName: __ZN5realm7create2INS_4LessEffEENS_5QueryERKNS_8Subexpr2IT0_EERKNS3_IT1_EE, symObjAddr: 0x59FEC, symBinAddr: 0x486228, symSize: 0x2FC }
  - { offset: 0x861CD1, size: 0x8, addend: 0x0, symName: __ZN5realm7create2INS_4LessEddEENS_5QueryERKNS_8Subexpr2IT0_EERKNS3_IT1_EE, symObjAddr: 0x5B398, symBinAddr: 0x4875D4, symSize: 0x2FC }
  - { offset: 0x862569, size: 0x8, addend: 0x0, symName: __ZN5realm7create2INS_4LessENS_5MixedENS_9TimestampEEENS_5QueryERKNS_8Subexpr2IT0_EERKNS5_IT1_EE, symObjAddr: 0x64B20, symBinAddr: 0x490D5C, symSize: 0x2F8 }
  - { offset: 0x862E01, size: 0x8, addend: 0x0, symName: __ZN5realm7create2INS_4LessENS_5MixedENS_10Decimal128EEENS_5QueryERKNS_8Subexpr2IT0_EERKNS5_IT1_EE, symObjAddr: 0x63950, symBinAddr: 0x48FB8C, symSize: 0x2F8 }
  - { offset: 0x863699, size: 0x8, addend: 0x0, symName: __ZN5realm7create2INS_4LessENS_5MixedEfEENS_5QueryERKNS_8Subexpr2IT0_EERKNS4_IT1_EE, symObjAddr: 0x615B0, symBinAddr: 0x48D7EC, symSize: 0x2F8 }
  - { offset: 0x863F31, size: 0x8, addend: 0x0, symName: __ZN5realm7create2INS_4LessENS_5MixedEdEENS_5QueryERKNS_8Subexpr2IT0_EERKNS4_IT1_EE, symObjAddr: 0x62780, symBinAddr: 0x48E9BC, symSize: 0x2F8 }
  - { offset: 0x8647C9, size: 0x8, addend: 0x0, symName: __ZN5realm7create2INS_5EqualENS_5MixedES2_EENS_5QueryERKNS_8Subexpr2IT0_EERKNS4_IT1_EE, symObjAddr: 0x5FAAC, symBinAddr: 0x48BCE8, symSize: 0x2FC }
  - { offset: 0x865061, size: 0x8, addend: 0x0, symName: __ZN5realm7create2INS_5EqualENS_9TimestampES2_EENS_5QueryERKNS_8Subexpr2IT0_EERKNS4_IT1_EE, symObjAddr: 0x5E6F0, symBinAddr: 0x48A92C, symSize: 0x2FC }
  - { offset: 0x8658F9, size: 0x8, addend: 0x0, symName: __ZN5realm7create2INS_5EqualENS_10Decimal128ES2_EENS_5QueryERKNS_8Subexpr2IT0_EERKNS4_IT1_EE, symObjAddr: 0x5D334, symBinAddr: 0x489570, symSize: 0x2FC }
  - { offset: 0x866191, size: 0x8, addend: 0x0, symName: __ZN5realm7create2INS_7GreaterENS_5MixedES2_EENS_5QueryERKNS_8Subexpr2IT0_EERKNS4_IT1_EE, symObjAddr: 0x5F4B4, symBinAddr: 0x48B6F0, symSize: 0x2FC }
  - { offset: 0x866A29, size: 0x8, addend: 0x0, symName: __ZN5realm7create2INS_5EqualEffEENS_5QueryERKNS_8Subexpr2IT0_EERKNS3_IT1_EE, symObjAddr: 0x5ABDC, symBinAddr: 0x486E18, symSize: 0x2FC }
  - { offset: 0x8672C1, size: 0x8, addend: 0x0, symName: __ZN5realm7create2INS_7GreaterENS_9TimestampES2_EENS_5QueryERKNS_8Subexpr2IT0_EERKNS4_IT1_EE, symObjAddr: 0x5E0F8, symBinAddr: 0x48A334, symSize: 0x2FC }
  - { offset: 0x867B59, size: 0x8, addend: 0x0, symName: __ZN5realm7create2INS_5EqualEddEENS_5QueryERKNS_8Subexpr2IT0_EERKNS3_IT1_EE, symObjAddr: 0x5BF88, symBinAddr: 0x4881C4, symSize: 0x2FC }
  - { offset: 0x8683F1, size: 0x8, addend: 0x0, symName: __ZN5realm7create2INS_7GreaterENS_10Decimal128ES2_EENS_5QueryERKNS_8Subexpr2IT0_EERKNS4_IT1_EE, symObjAddr: 0x5CD3C, symBinAddr: 0x488F78, symSize: 0x2FC }
  - { offset: 0x868C89, size: 0x8, addend: 0x0, symName: __ZN5realm7create2INS_12GreaterEqualENS_5MixedES2_EENS_5QueryERKNS_8Subexpr2IT0_EERKNS4_IT1_EE, symObjAddr: 0x5F7B0, symBinAddr: 0x48B9EC, symSize: 0x2FC }
  - { offset: 0x869521, size: 0x8, addend: 0x0, symName: __ZN5realm7create2INS_12GreaterEqualENS_9TimestampES2_EENS_5QueryERKNS_8Subexpr2IT0_EERKNS4_IT1_EE, symObjAddr: 0x5E3F4, symBinAddr: 0x48A630, symSize: 0x2FC }
  - { offset: 0x869DB9, size: 0x8, addend: 0x0, symName: __ZN5realm7create2INS_9LessEqualENS_5MixedES2_EENS_5QueryERKNS_8Subexpr2IT0_EERKNS4_IT1_EE, symObjAddr: 0x5F1B8, symBinAddr: 0x48B3F4, symSize: 0x2FC }
  - { offset: 0x86A651, size: 0x8, addend: 0x0, symName: __ZN5realm7create2INS_7GreaterEffEENS_5QueryERKNS_8Subexpr2IT0_EERKNS3_IT1_EE, symObjAddr: 0x5A5E4, symBinAddr: 0x486820, symSize: 0x2FC }
  - { offset: 0x86AEE9, size: 0x8, addend: 0x0, symName: __ZN5realm7create2INS_9LessEqualENS_9TimestampES2_EENS_5QueryERKNS_8Subexpr2IT0_EERKNS4_IT1_EE, symObjAddr: 0x5DDFC, symBinAddr: 0x48A038, symSize: 0x2FC }
  - { offset: 0x86B781, size: 0x8, addend: 0x0, symName: __ZN5realm7create2INS_12GreaterEqualENS_10Decimal128ES2_EENS_5QueryERKNS_8Subexpr2IT0_EERKNS4_IT1_EE, symObjAddr: 0x5D038, symBinAddr: 0x489274, symSize: 0x2FC }
  - { offset: 0x86C019, size: 0x8, addend: 0x0, symName: __ZN5realm7create2INS_7GreaterEddEENS_5QueryERKNS_8Subexpr2IT0_EERKNS3_IT1_EE, symObjAddr: 0x5B990, symBinAddr: 0x487BCC, symSize: 0x2FC }
  - { offset: 0x86C8B1, size: 0x8, addend: 0x0, symName: __ZN5realm7create2INS_9LessEqualENS_10Decimal128ES2_EENS_5QueryERKNS_8Subexpr2IT0_EERKNS4_IT1_EE, symObjAddr: 0x5CA40, symBinAddr: 0x488C7C, symSize: 0x2FC }
  - { offset: 0x86D149, size: 0x8, addend: 0x0, symName: __ZN5realm7create2INS_8NotEqualENS_5MixedES2_EENS_5QueryERKNS_8Subexpr2IT0_EERKNS4_IT1_EE, symObjAddr: 0x5FDA8, symBinAddr: 0x48BFE4, symSize: 0x2FC }
  - { offset: 0x86D9E1, size: 0x8, addend: 0x0, symName: __ZN5realm7create2INS_12GreaterEqualEffEENS_5QueryERKNS_8Subexpr2IT0_EERKNS3_IT1_EE, symObjAddr: 0x5A8E0, symBinAddr: 0x486B1C, symSize: 0x2FC }
  - { offset: 0x86E279, size: 0x8, addend: 0x0, symName: __ZN5realm7create2INS_12GreaterEqualEddEENS_5QueryERKNS_8Subexpr2IT0_EERKNS3_IT1_EE, symObjAddr: 0x5BC8C, symBinAddr: 0x487EC8, symSize: 0x2FC }
  - { offset: 0x86EB11, size: 0x8, addend: 0x0, symName: __ZN5realm7create2INS_8NotEqualENS_9TimestampES2_EENS_5QueryERKNS_8Subexpr2IT0_EERKNS4_IT1_EE, symObjAddr: 0x5E9EC, symBinAddr: 0x48AC28, symSize: 0x2FC }
  - { offset: 0x86F3A9, size: 0x8, addend: 0x0, symName: __ZN5realm7create2INS_9LessEqualEffEENS_5QueryERKNS_8Subexpr2IT0_EERKNS3_IT1_EE, symObjAddr: 0x5A2E8, symBinAddr: 0x486524, symSize: 0x2FC }
  - { offset: 0x86FC41, size: 0x8, addend: 0x0, symName: __ZN5realm7create2INS_9LessEqualEddEENS_5QueryERKNS_8Subexpr2IT0_EERKNS3_IT1_EE, symObjAddr: 0x5B694, symBinAddr: 0x4878D0, symSize: 0x2FC }
  - { offset: 0x8704D9, size: 0x8, addend: 0x0, symName: __ZN5realm7create2INS_8NotEqualENS_10Decimal128ES2_EENS_5QueryERKNS_8Subexpr2IT0_EERKNS4_IT1_EE, symObjAddr: 0x5D630, symBinAddr: 0x48986C, symSize: 0x2FC }
  - { offset: 0x870D71, size: 0x8, addend: 0x0, symName: __ZN5realm7create2INS_8NotEqualEffEENS_5QueryERKNS_8Subexpr2IT0_EERKNS3_IT1_EE, symObjAddr: 0x5AED8, symBinAddr: 0x487114, symSize: 0x2FC }
  - { offset: 0x871609, size: 0x8, addend: 0x0, symName: __ZN5realm7create2INS_8NotEqualEddEENS_5QueryERKNS_8Subexpr2IT0_EERKNS3_IT1_EE, symObjAddr: 0x5C284, symBinAddr: 0x4884C0, symSize: 0x2FC }
  - { offset: 0x871EA1, size: 0x8, addend: 0x0, symName: __ZN5realm7create2INS_5EqualENS_5MixedENS_9TimestampEEENS_5QueryERKNS_8Subexpr2IT0_EERKNS5_IT1_EE, symObjAddr: 0x65700, symBinAddr: 0x49193C, symSize: 0x2F8 }
  - { offset: 0x872739, size: 0x8, addend: 0x0, symName: __ZN5realm7create2INS_5EqualENS_5MixedExEENS_5QueryERKNS_8Subexpr2IT0_EERKNS4_IT1_EE, symObjAddr: 0x60FC0, symBinAddr: 0x48D1FC, symSize: 0x2F8 }
  - { offset: 0x872FD1, size: 0x8, addend: 0x0, symName: __ZN5realm7create2INS_5EqualENS_5MixedENS_10Decimal128EEENS_5QueryERKNS_8Subexpr2IT0_EERKNS5_IT1_EE, symObjAddr: 0x64530, symBinAddr: 0x49076C, symSize: 0x2F8 }
  - { offset: 0x873869, size: 0x8, addend: 0x0, symName: __ZN5realm7create2INS_5EqualENS_5MixedEfEENS_5QueryERKNS_8Subexpr2IT0_EERKNS4_IT1_EE, symObjAddr: 0x62190, symBinAddr: 0x48E3CC, symSize: 0x2F8 }
  - { offset: 0x874101, size: 0x8, addend: 0x0, symName: __ZN5realm7create2INS_7GreaterENS_5MixedENS_9TimestampEEENS_5QueryERKNS_8Subexpr2IT0_EERKNS5_IT1_EE, symObjAddr: 0x65110, symBinAddr: 0x49134C, symSize: 0x2F8 }
  - { offset: 0x874999, size: 0x8, addend: 0x0, symName: __ZN5realm7create2INS_7GreaterENS_5MixedExEENS_5QueryERKNS_8Subexpr2IT0_EERKNS4_IT1_EE, symObjAddr: 0x609D0, symBinAddr: 0x48CC0C, symSize: 0x2F8 }
  - { offset: 0x875231, size: 0x8, addend: 0x0, symName: __ZN5realm7create2INS_5EqualENS_5MixedEdEENS_5QueryERKNS_8Subexpr2IT0_EERKNS4_IT1_EE, symObjAddr: 0x63360, symBinAddr: 0x48F59C, symSize: 0x2F8 }
  - { offset: 0x875AC9, size: 0x8, addend: 0x0, symName: __ZN5realm7create2INS_7GreaterENS_5MixedENS_10Decimal128EEENS_5QueryERKNS_8Subexpr2IT0_EERKNS5_IT1_EE, symObjAddr: 0x63F40, symBinAddr: 0x49017C, symSize: 0x2F8 }
  - { offset: 0x876361, size: 0x8, addend: 0x0, symName: __ZN5realm7create2INS_12GreaterEqualENS_5MixedENS_9TimestampEEENS_5QueryERKNS_8Subexpr2IT0_EERKNS5_IT1_EE, symObjAddr: 0x65408, symBinAddr: 0x491644, symSize: 0x2F8 }
  - { offset: 0x876BF9, size: 0x8, addend: 0x0, symName: __ZN5realm7create2INS_12GreaterEqualENS_5MixedExEENS_5QueryERKNS_8Subexpr2IT0_EERKNS4_IT1_EE, symObjAddr: 0x60CC8, symBinAddr: 0x48CF04, symSize: 0x2F8 }
  - { offset: 0x877491, size: 0x8, addend: 0x0, symName: __ZN5realm7create2INS_7GreaterENS_5MixedEfEENS_5QueryERKNS_8Subexpr2IT0_EERKNS4_IT1_EE, symObjAddr: 0x61BA0, symBinAddr: 0x48DDDC, symSize: 0x2F8 }
  - { offset: 0x877D29, size: 0x8, addend: 0x0, symName: __ZN5realm7create2INS_9LessEqualENS_5MixedENS_9TimestampEEENS_5QueryERKNS_8Subexpr2IT0_EERKNS5_IT1_EE, symObjAddr: 0x64E18, symBinAddr: 0x491054, symSize: 0x2F8 }
  - { offset: 0x8785C1, size: 0x8, addend: 0x0, symName: __ZN5realm7create2INS_9LessEqualENS_5MixedExEENS_5QueryERKNS_8Subexpr2IT0_EERKNS4_IT1_EE, symObjAddr: 0x606D8, symBinAddr: 0x48C914, symSize: 0x2F8 }
  - { offset: 0x878E59, size: 0x8, addend: 0x0, symName: __ZN5realm7create2INS_12GreaterEqualENS_5MixedENS_10Decimal128EEENS_5QueryERKNS_8Subexpr2IT0_EERKNS5_IT1_EE, symObjAddr: 0x64238, symBinAddr: 0x490474, symSize: 0x2F8 }
  - { offset: 0x8796F1, size: 0x8, addend: 0x0, symName: __ZN5realm7create2INS_7GreaterENS_5MixedEdEENS_5QueryERKNS_8Subexpr2IT0_EERKNS4_IT1_EE, symObjAddr: 0x62D70, symBinAddr: 0x48EFAC, symSize: 0x2F8 }
  - { offset: 0x879F89, size: 0x8, addend: 0x0, symName: __ZN5realm7create2INS_9LessEqualENS_5MixedENS_10Decimal128EEENS_5QueryERKNS_8Subexpr2IT0_EERKNS5_IT1_EE, symObjAddr: 0x63C48, symBinAddr: 0x48FE84, symSize: 0x2F8 }
  - { offset: 0x87A821, size: 0x8, addend: 0x0, symName: __ZN5realm7create2INS_12GreaterEqualENS_5MixedEfEENS_5QueryERKNS_8Subexpr2IT0_EERKNS4_IT1_EE, symObjAddr: 0x61E98, symBinAddr: 0x48E0D4, symSize: 0x2F8 }
  - { offset: 0x87B0B9, size: 0x8, addend: 0x0, symName: __ZN5realm7create2INS_12GreaterEqualENS_5MixedEdEENS_5QueryERKNS_8Subexpr2IT0_EERKNS4_IT1_EE, symObjAddr: 0x63068, symBinAddr: 0x48F2A4, symSize: 0x2F8 }
  - { offset: 0x87B951, size: 0x8, addend: 0x0, symName: __ZN5realm7create2INS_8NotEqualENS_5MixedENS_9TimestampEEENS_5QueryERKNS_8Subexpr2IT0_EERKNS5_IT1_EE, symObjAddr: 0x659F8, symBinAddr: 0x491C34, symSize: 0x2F8 }
  - { offset: 0x87C1E9, size: 0x8, addend: 0x0, symName: __ZN5realm7create2INS_8NotEqualENS_5MixedExEENS_5QueryERKNS_8Subexpr2IT0_EERKNS4_IT1_EE, symObjAddr: 0x612B8, symBinAddr: 0x48D4F4, symSize: 0x2F8 }
  - { offset: 0x87CA81, size: 0x8, addend: 0x0, symName: __ZN5realm7create2INS_9LessEqualENS_5MixedEfEENS_5QueryERKNS_8Subexpr2IT0_EERKNS4_IT1_EE, symObjAddr: 0x618A8, symBinAddr: 0x48DAE4, symSize: 0x2F8 }
  - { offset: 0x87D319, size: 0x8, addend: 0x0, symName: __ZN5realm7create2INS_9LessEqualENS_5MixedEdEENS_5QueryERKNS_8Subexpr2IT0_EERKNS4_IT1_EE, symObjAddr: 0x62A78, symBinAddr: 0x48ECB4, symSize: 0x2F8 }
  - { offset: 0x87DBB1, size: 0x8, addend: 0x0, symName: __ZN5realm7create2INS_8NotEqualENS_5MixedENS_10Decimal128EEENS_5QueryERKNS_8Subexpr2IT0_EERKNS5_IT1_EE, symObjAddr: 0x64828, symBinAddr: 0x490A64, symSize: 0x2F8 }
  - { offset: 0x87E449, size: 0x8, addend: 0x0, symName: __ZN5realm7create2INS_8NotEqualENS_5MixedEfEENS_5QueryERKNS_8Subexpr2IT0_EERKNS4_IT1_EE, symObjAddr: 0x62488, symBinAddr: 0x48E6C4, symSize: 0x2F8 }
  - { offset: 0x87ECE1, size: 0x8, addend: 0x0, symName: __ZN5realm7create2INS_8NotEqualENS_5MixedEdEENS_5QueryERKNS_8Subexpr2IT0_EERKNS4_IT1_EE, symObjAddr: 0x63658, symBinAddr: 0x48F894, symSize: 0x2F8 }
  - { offset: 0x881D87, size: 0x8, addend: 0x0, symName: __ZN5realm6createINS_7GreaterENS_4nullExEENS_5QueryET0_RKNS_8Subexpr2IT1_EE, symObjAddr: 0x43C20, symBinAddr: 0x470450, symSize: 0x114 }
  - { offset: 0x882358, size: 0x8, addend: 0x0, symName: __ZN5realm6createINS_12GreaterEqualENS_4nullExEENS_5QueryET0_RKNS_8Subexpr2IT1_EE, symObjAddr: 0x43F60, symBinAddr: 0x4705F8, symSize: 0x114 }
  - { offset: 0x882929, size: 0x8, addend: 0x0, symName: __ZN5realm6createINS_4LessENS_4nullExEENS_5QueryET0_RKNS_8Subexpr2IT1_EE, symObjAddr: 0x44074, symBinAddr: 0x47070C, symSize: 0x114 }
  - { offset: 0x882EFA, size: 0x8, addend: 0x0, symName: __ZN5realm6createINS_9LessEqualENS_4nullExEENS_5QueryET0_RKNS_8Subexpr2IT1_EE, symObjAddr: 0x44188, symBinAddr: 0x470820, symSize: 0x114 }
  - { offset: 0x8834CB, size: 0x8, addend: 0x0, symName: __ZN5realm6createINS_5EqualENS_4nullExEENS_5QueryET0_RKNS_8Subexpr2IT1_EE, symObjAddr: 0x4429C, symBinAddr: 0x470934, symSize: 0x11C }
  - { offset: 0x883A9C, size: 0x8, addend: 0x0, symName: __ZN5realm6createINS_8NotEqualENS_4nullExEENS_5QueryET0_RKNS_8Subexpr2IT1_EE, symObjAddr: 0x443B8, symBinAddr: 0x470A50, symSize: 0x11C }
  - { offset: 0x88406D, size: 0x8, addend: 0x0, symName: __ZN5realm12make_subexprINS_18SubColumnAggregateIxNS_20aggregate_operations7MinimumIxEEEEJRKS5_EEENSt3__110unique_ptrINS_7SubexprENS8_14default_deleteISA_EEEEDpOT0_, symObjAddr: 0x44BC4, symBinAddr: 0x47125C, symSize: 0xC0 }
  - { offset: 0x8844AC, size: 0x8, addend: 0x0, symName: __ZN5realm12make_subexprINS_18SubColumnAggregateIxNS_20aggregate_operations7MaximumIxEEEEJRKS5_EEENSt3__110unique_ptrINS_7SubexprENS8_14default_deleteISA_EEEEDpOT0_, symObjAddr: 0x455F4, symBinAddr: 0x471C8C, symSize: 0xC0 }
  - { offset: 0x8848B4, size: 0x8, addend: 0x0, symName: __ZN5realm12make_subexprINS_18SubColumnAggregateIxNS_20aggregate_operations3SumIxEEEEJRKS5_EEENSt3__110unique_ptrINS_7SubexprENS8_14default_deleteISA_EEEEDpOT0_, symObjAddr: 0x45CEC, symBinAddr: 0x472384, symSize: 0xC0 }
  - { offset: 0x884CBC, size: 0x8, addend: 0x0, symName: __ZN5realm12make_subexprINS_18SubColumnAggregateIxNS_20aggregate_operations7AverageIxEEEEJRKS5_EEENSt3__110unique_ptrINS_7SubexprENS8_14default_deleteISA_EEEEDpOT0_, symObjAddr: 0x46438, symBinAddr: 0x472AD0, symSize: 0xC0 }
  - { offset: 0x8850C4, size: 0x8, addend: 0x0, symName: __ZN5realm6createINS_7GreaterENS_4nullEfEENS_5QueryET0_RKNS_8Subexpr2IT1_EE, symObjAddr: 0x468BC, symBinAddr: 0x472F54, symSize: 0x114 }
  - { offset: 0x885695, size: 0x8, addend: 0x0, symName: __ZN5realm6createINS_12GreaterEqualENS_4nullEfEENS_5QueryET0_RKNS_8Subexpr2IT1_EE, symObjAddr: 0x469D0, symBinAddr: 0x473068, symSize: 0x114 }
  - { offset: 0x885C66, size: 0x8, addend: 0x0, symName: __ZN5realm6createINS_4LessENS_4nullEfEENS_5QueryET0_RKNS_8Subexpr2IT1_EE, symObjAddr: 0x46AE4, symBinAddr: 0x47317C, symSize: 0x114 }
  - { offset: 0x886237, size: 0x8, addend: 0x0, symName: __ZN5realm6createINS_9LessEqualENS_4nullEfEENS_5QueryET0_RKNS_8Subexpr2IT1_EE, symObjAddr: 0x46BF8, symBinAddr: 0x473290, symSize: 0x114 }
  - { offset: 0x886808, size: 0x8, addend: 0x0, symName: __ZN5realm6createINS_5EqualENS_4nullEfEENS_5QueryET0_RKNS_8Subexpr2IT1_EE, symObjAddr: 0x46D0C, symBinAddr: 0x4733A4, symSize: 0x11C }
  - { offset: 0x886DD9, size: 0x8, addend: 0x0, symName: __ZN5realm6createINS_8NotEqualENS_4nullEfEENS_5QueryET0_RKNS_8Subexpr2IT1_EE, symObjAddr: 0x46E28, symBinAddr: 0x4734C0, symSize: 0x11C }
  - { offset: 0x8873AA, size: 0x8, addend: 0x0, symName: __ZN5realm12make_subexprINS_18SubColumnAggregateIfNS_20aggregate_operations7MinimumIfEEEEJRKS5_EEENSt3__110unique_ptrINS_7SubexprENS8_14default_deleteISA_EEEEDpOT0_, symObjAddr: 0x4825C, symBinAddr: 0x4748F4, symSize: 0xC0 }
  - { offset: 0x887A2F, size: 0x8, addend: 0x0, symName: __ZN5realm12make_subexprINS_18SubColumnAggregateIfNS_20aggregate_operations7MaximumIfEEEEJRKS5_EEENSt3__110unique_ptrINS_7SubexprENS8_14default_deleteISA_EEEEDpOT0_, symObjAddr: 0x491C0, symBinAddr: 0x475858, symSize: 0xC0 }
  - { offset: 0x887E37, size: 0x8, addend: 0x0, symName: __ZN5realm12make_subexprINS_18SubColumnAggregateIfNS_20aggregate_operations3SumIfEEEEJRKS5_EEENSt3__110unique_ptrINS_7SubexprENS8_14default_deleteISA_EEEEDpOT0_, symObjAddr: 0x498EC, symBinAddr: 0x475F84, symSize: 0xC0 }
  - { offset: 0x88823F, size: 0x8, addend: 0x0, symName: __ZN5realm12make_subexprINS_18SubColumnAggregateIfNS_20aggregate_operations7AverageIfEEEEJRKS5_EEENSt3__110unique_ptrINS_7SubexprENS8_14default_deleteISA_EEEEDpOT0_, symObjAddr: 0x4A050, symBinAddr: 0x4766E8, symSize: 0xC0 }
  - { offset: 0x888647, size: 0x8, addend: 0x0, symName: __ZN5realm6createINS_7GreaterENS_4nullEdEENS_5QueryET0_RKNS_8Subexpr2IT1_EE, symObjAddr: 0x4A4D4, symBinAddr: 0x476B6C, symSize: 0x114 }
  - { offset: 0x888C18, size: 0x8, addend: 0x0, symName: __ZN5realm6createINS_12GreaterEqualENS_4nullEdEENS_5QueryET0_RKNS_8Subexpr2IT1_EE, symObjAddr: 0x4A5E8, symBinAddr: 0x476C80, symSize: 0x114 }
  - { offset: 0x8891E9, size: 0x8, addend: 0x0, symName: __ZN5realm6createINS_4LessENS_4nullEdEENS_5QueryET0_RKNS_8Subexpr2IT1_EE, symObjAddr: 0x4A6FC, symBinAddr: 0x476D94, symSize: 0x114 }
  - { offset: 0x8897BA, size: 0x8, addend: 0x0, symName: __ZN5realm6createINS_9LessEqualENS_4nullEdEENS_5QueryET0_RKNS_8Subexpr2IT1_EE, symObjAddr: 0x4A810, symBinAddr: 0x476EA8, symSize: 0x114 }
  - { offset: 0x889D8B, size: 0x8, addend: 0x0, symName: __ZN5realm6createINS_5EqualENS_4nullEdEENS_5QueryET0_RKNS_8Subexpr2IT1_EE, symObjAddr: 0x4A924, symBinAddr: 0x476FBC, symSize: 0x11C }
  - { offset: 0x88A35C, size: 0x8, addend: 0x0, symName: __ZN5realm6createINS_8NotEqualENS_4nullEdEENS_5QueryET0_RKNS_8Subexpr2IT1_EE, symObjAddr: 0x4AA40, symBinAddr: 0x4770D8, symSize: 0x11C }
  - { offset: 0x88A92D, size: 0x8, addend: 0x0, symName: __ZN5realm12make_subexprINS_18SubColumnAggregateIdNS_20aggregate_operations7MinimumIdEEEEJRKS5_EEENSt3__110unique_ptrINS_7SubexprENS8_14default_deleteISA_EEEEDpOT0_, symObjAddr: 0x4BDC4, symBinAddr: 0x47845C, symSize: 0xC0 }
  - { offset: 0x88AFB2, size: 0x8, addend: 0x0, symName: __ZN5realm12make_subexprINS_18SubColumnAggregateIdNS_20aggregate_operations7MaximumIdEEEEJRKS5_EEENSt3__110unique_ptrINS_7SubexprENS8_14default_deleteISA_EEEEDpOT0_, symObjAddr: 0x4CC90, symBinAddr: 0x479328, symSize: 0xC0 }
  - { offset: 0x88B3BA, size: 0x8, addend: 0x0, symName: __ZN5realm12make_subexprINS_18SubColumnAggregateIdNS_20aggregate_operations3SumIdEEEEJRKS5_EEENSt3__110unique_ptrINS_7SubexprENS8_14default_deleteISA_EEEEDpOT0_, symObjAddr: 0x4D3BC, symBinAddr: 0x479A54, symSize: 0xC0 }
  - { offset: 0x88B7C2, size: 0x8, addend: 0x0, symName: __ZN5realm12make_subexprINS_18SubColumnAggregateIdNS_20aggregate_operations7AverageIdEEEEJRKS5_EEENSt3__110unique_ptrINS_7SubexprENS8_14default_deleteISA_EEEEDpOT0_, symObjAddr: 0x4DB14, symBinAddr: 0x47A1AC, symSize: 0xC0 }
  - { offset: 0x88BBCA, size: 0x8, addend: 0x0, symName: __ZN5realm6createINS_7GreaterENS_4nullENS_10Decimal128EEENS_5QueryET0_RKNS_8Subexpr2IT1_EE, symObjAddr: 0x4DF98, symBinAddr: 0x47A630, symSize: 0x114 }
  - { offset: 0x88C19B, size: 0x8, addend: 0x0, symName: __ZN5realm6createINS_12GreaterEqualENS_4nullENS_10Decimal128EEENS_5QueryET0_RKNS_8Subexpr2IT1_EE, symObjAddr: 0x4E0AC, symBinAddr: 0x47A744, symSize: 0x114 }
  - { offset: 0x88C76C, size: 0x8, addend: 0x0, symName: __ZN5realm6createINS_4LessENS_4nullENS_10Decimal128EEENS_5QueryET0_RKNS_8Subexpr2IT1_EE, symObjAddr: 0x4E1C0, symBinAddr: 0x47A858, symSize: 0x114 }
  - { offset: 0x88CD3D, size: 0x8, addend: 0x0, symName: __ZN5realm6createINS_9LessEqualENS_4nullENS_10Decimal128EEENS_5QueryET0_RKNS_8Subexpr2IT1_EE, symObjAddr: 0x4E2D4, symBinAddr: 0x47A96C, symSize: 0x114 }
  - { offset: 0x88D30E, size: 0x8, addend: 0x0, symName: __ZN5realm6createINS_5EqualENS_4nullENS_10Decimal128EEENS_5QueryET0_RKNS_8Subexpr2IT1_EE, symObjAddr: 0x4E3E8, symBinAddr: 0x47AA80, symSize: 0x11C }
  - { offset: 0x88D8DF, size: 0x8, addend: 0x0, symName: __ZN5realm6createINS_8NotEqualENS_4nullENS_10Decimal128EEENS_5QueryET0_RKNS_8Subexpr2IT1_EE, symObjAddr: 0x4E504, symBinAddr: 0x47AB9C, symSize: 0x11C }
  - { offset: 0x88DEB0, size: 0x8, addend: 0x0, symName: __ZN5realm12make_subexprINS_18SubColumnAggregateINS_10Decimal128ENS_20aggregate_operations7MinimumIS2_EEEEJRKS6_EEENSt3__110unique_ptrINS_7SubexprENS9_14default_deleteISB_EEEEDpOT0_, symObjAddr: 0x4F9DC, symBinAddr: 0x47C074, symSize: 0xC4 }
  - { offset: 0x88E4A2, size: 0x8, addend: 0x0, symName: __ZN5realm12make_subexprINS_18SubColumnAggregateINS_10Decimal128ENS_20aggregate_operations7MaximumIS2_EEEEJRKS6_EEENSt3__110unique_ptrINS_7SubexprENS9_14default_deleteISB_EEEEDpOT0_, symObjAddr: 0x50C84, symBinAddr: 0x47CF9C, symSize: 0xC4 }
  - { offset: 0x88E7ED, size: 0x8, addend: 0x0, symName: __ZN5realm12make_subexprINS_18SubColumnAggregateINS_10Decimal128ENS_20aggregate_operations3SumIS2_EEEEJRKS6_EEENSt3__110unique_ptrINS_7SubexprENS9_14default_deleteISB_EEEEDpOT0_, symObjAddr: 0x513E0, symBinAddr: 0x47D6F8, symSize: 0xC4 }
  - { offset: 0x88EB38, size: 0x8, addend: 0x0, symName: __ZN5realm12make_subexprINS_18SubColumnAggregateINS_10Decimal128ENS_20aggregate_operations7AverageIS2_EEEEJRKS6_EEENSt3__110unique_ptrINS_7SubexprENS9_14default_deleteISB_EEEEDpOT0_, symObjAddr: 0x51B5C, symBinAddr: 0x47DE74, symSize: 0xC4 }
  - { offset: 0x88EE83, size: 0x8, addend: 0x0, symName: __ZN5realm6createINS_7GreaterENS_4nullENS_9TimestampEEENS_5QueryET0_RKNS_8Subexpr2IT1_EE, symObjAddr: 0x51FB4, symBinAddr: 0x47E2CC, symSize: 0x114 }
  - { offset: 0x88F454, size: 0x8, addend: 0x0, symName: __ZN5realm6createINS_12GreaterEqualENS_4nullENS_9TimestampEEENS_5QueryET0_RKNS_8Subexpr2IT1_EE, symObjAddr: 0x520C8, symBinAddr: 0x47E3E0, symSize: 0x114 }
  - { offset: 0x88FA25, size: 0x8, addend: 0x0, symName: __ZN5realm6createINS_4LessENS_4nullENS_9TimestampEEENS_5QueryET0_RKNS_8Subexpr2IT1_EE, symObjAddr: 0x521DC, symBinAddr: 0x47E4F4, symSize: 0x114 }
  - { offset: 0x88FFF6, size: 0x8, addend: 0x0, symName: __ZN5realm6createINS_9LessEqualENS_4nullENS_9TimestampEEENS_5QueryET0_RKNS_8Subexpr2IT1_EE, symObjAddr: 0x522F0, symBinAddr: 0x47E608, symSize: 0x114 }
  - { offset: 0x8905C7, size: 0x8, addend: 0x0, symName: __ZN5realm6createINS_5EqualENS_4nullENS_9TimestampEEENS_5QueryET0_RKNS_8Subexpr2IT1_EE, symObjAddr: 0x52404, symBinAddr: 0x47E71C, symSize: 0x11C }
  - { offset: 0x890B98, size: 0x8, addend: 0x0, symName: __ZN5realm6createINS_8NotEqualENS_4nullENS_9TimestampEEENS_5QueryET0_RKNS_8Subexpr2IT1_EE, symObjAddr: 0x52520, symBinAddr: 0x47E838, symSize: 0x11C }
  - { offset: 0x891169, size: 0x8, addend: 0x0, symName: __ZN5realm12make_subexprINS_18SubColumnAggregateINS_9TimestampENS_20aggregate_operations7MinimumIS2_EEEEJRKS6_EEENSt3__110unique_ptrINS_7SubexprENS9_14default_deleteISB_EEEEDpOT0_, symObjAddr: 0x539A8, symBinAddr: 0x47FC64, symSize: 0xC4 }
  - { offset: 0x891731, size: 0x8, addend: 0x0, symName: __ZN5realm12make_subexprINS_18SubColumnAggregateINS_9TimestampENS_20aggregate_operations7MaximumIS2_EEEEJRKS6_EEENSt3__110unique_ptrINS_7SubexprENS9_14default_deleteISB_EEEEDpOT0_, symObjAddr: 0x547E4, symBinAddr: 0x480AA0, symSize: 0xC4 }
  - { offset: 0x891A7C, size: 0x8, addend: 0x0, symName: __ZN5realm6createINS_7GreaterENS_4nullENS_5MixedEEENS_5QueryET0_RKNS_8Subexpr2IT1_EE, symObjAddr: 0x54C24, symBinAddr: 0x480EE0, symSize: 0x1AC }
  - { offset: 0x8921C5, size: 0x8, addend: 0x0, symName: __ZN5realm6createINS_12GreaterEqualENS_4nullENS_5MixedEEENS_5QueryET0_RKNS_8Subexpr2IT1_EE, symObjAddr: 0x54DF0, symBinAddr: 0x4810AC, symSize: 0x1AC }
  - { offset: 0x89290E, size: 0x8, addend: 0x0, symName: __ZN5realm6createINS_4LessENS_4nullENS_5MixedEEENS_5QueryET0_RKNS_8Subexpr2IT1_EE, symObjAddr: 0x54F9C, symBinAddr: 0x481258, symSize: 0x1AC }
  - { offset: 0x893057, size: 0x8, addend: 0x0, symName: __ZN5realm6createINS_9LessEqualENS_4nullENS_5MixedEEENS_5QueryET0_RKNS_8Subexpr2IT1_EE, symObjAddr: 0x55148, symBinAddr: 0x481404, symSize: 0x1AC }
  - { offset: 0x8937A0, size: 0x8, addend: 0x0, symName: __ZN5realm6createINS_5EqualENS_4nullENS_5MixedEEENS_5QueryET0_RKNS_8Subexpr2IT1_EE, symObjAddr: 0x552F4, symBinAddr: 0x4815B0, symSize: 0x1B8 }
  - { offset: 0x893EE9, size: 0x8, addend: 0x0, symName: __ZN5realm6createINS_8NotEqualENS_4nullENS_5MixedEEENS_5QueryET0_RKNS_8Subexpr2IT1_EE, symObjAddr: 0x554AC, symBinAddr: 0x481768, symSize: 0x1B8 }
  - { offset: 0x894632, size: 0x8, addend: 0x0, symName: __ZN5realm12make_subexprINS_18SubColumnAggregateINS_5MixedENS_20aggregate_operations7MinimumIS2_EEEEJRKS6_EEENSt3__110unique_ptrINS_7SubexprENS9_14default_deleteISB_EEEEDpOT0_, symObjAddr: 0x56EA4, symBinAddr: 0x4830E0, symSize: 0x84 }
  - { offset: 0x894844, size: 0x8, addend: 0x0, symName: __ZN5realm12make_subexprINS_18SubColumnAggregateINS_5MixedENS_20aggregate_operations7MaximumIS2_EEEEJRKS6_EEENSt3__110unique_ptrINS_7SubexprENS9_14default_deleteISB_EEEEDpOT0_, symObjAddr: 0x57CF0, symBinAddr: 0x483F2C, symSize: 0x84 }
  - { offset: 0x8949E8, size: 0x8, addend: 0x0, symName: __ZN5realm12make_subexprINS_18SubColumnAggregateINS_5MixedENS_20aggregate_operations3SumIS2_EEEEJRKS6_EEENSt3__110unique_ptrINS_7SubexprENS9_14default_deleteISB_EEEEDpOT0_, symObjAddr: 0x583C8, symBinAddr: 0x484604, symSize: 0x84 }
  - { offset: 0x894B8C, size: 0x8, addend: 0x0, symName: __ZN5realm12make_subexprINS_18SubColumnAggregateINS_5MixedENS_20aggregate_operations7AverageIS2_EEEEJRKS6_EEENSt3__110unique_ptrINS_7SubexprENS9_14default_deleteISB_EEEEDpOT0_, symObjAddr: 0x58AC4, symBinAddr: 0x484D00, symSize: 0x84 }
  - { offset: 0x89541C, size: 0x8, addend: 0x0, symName: __ZN5realm7create2INS_4LessENS_10Decimal128ExEENS_5QueryERKNS_8Subexpr2IT0_EERKNS4_IT1_EE, symObjAddr: 0x71BBC, symBinAddr: 0x49DDF8, symSize: 0x2F8 }
  - { offset: 0x895CB4, size: 0x8, addend: 0x0, symName: __ZN5realm7create2INS_4LessENS_10Decimal128ENS_5MixedEEENS_5QueryERKNS_8Subexpr2IT0_EERKNS5_IT1_EE, symObjAddr: 0x708A0, symBinAddr: 0x49CADC, symSize: 0x2F8 }
  - { offset: 0x89654C, size: 0x8, addend: 0x0, symName: __ZN5realm7create2INS_4LessEdfEENS_5QueryERKNS_8Subexpr2IT0_EERKNS3_IT1_EE, symObjAddr: 0x6F6D0, symBinAddr: 0x49B90C, symSize: 0x2F8 }
  - { offset: 0x896DE4, size: 0x8, addend: 0x0, symName: __ZN5realm7create2INS_4LessENS_10Decimal128EdEENS_5QueryERKNS_8Subexpr2IT0_EERKNS4_IT1_EE, symObjAddr: 0x73F5C, symBinAddr: 0x4A0198, symSize: 0x2F8 }
  - { offset: 0x89767C, size: 0x8, addend: 0x0, symName: __ZN5realm7create2INS_4LessENS_10Decimal128EfEENS_5QueryERKNS_8Subexpr2IT0_EERKNS4_IT1_EE, symObjAddr: 0x72D8C, symBinAddr: 0x49EFC8, symSize: 0x2F8 }
  - { offset: 0x897F14, size: 0x8, addend: 0x0, symName: __ZN5realm7create2INS_5EqualENS_10Decimal128ENS_5MixedEEENS_5QueryERKNS_8Subexpr2IT0_EERKNS5_IT1_EE, symObjAddr: 0x71480, symBinAddr: 0x49D6BC, symSize: 0x2F8 }
  - { offset: 0x8987AC, size: 0x8, addend: 0x0, symName: __ZN5realm7create2INS_7GreaterENS_10Decimal128ENS_5MixedEEENS_5QueryERKNS_8Subexpr2IT0_EERKNS5_IT1_EE, symObjAddr: 0x70E90, symBinAddr: 0x49D0CC, symSize: 0x2F8 }
  - { offset: 0x899044, size: 0x8, addend: 0x0, symName: __ZN5realm7create2INS_5EqualEdfEENS_5QueryERKNS_8Subexpr2IT0_EERKNS3_IT1_EE, symObjAddr: 0x702B0, symBinAddr: 0x49C4EC, symSize: 0x2F8 }
  - { offset: 0x8998DC, size: 0x8, addend: 0x0, symName: __ZN5realm7create2INS_12GreaterEqualENS_10Decimal128ENS_5MixedEEENS_5QueryERKNS_8Subexpr2IT0_EERKNS5_IT1_EE, symObjAddr: 0x71188, symBinAddr: 0x49D3C4, symSize: 0x2F8 }
  - { offset: 0x89A174, size: 0x8, addend: 0x0, symName: __ZN5realm7create2INS_9LessEqualENS_10Decimal128ENS_5MixedEEENS_5QueryERKNS_8Subexpr2IT0_EERKNS5_IT1_EE, symObjAddr: 0x70B98, symBinAddr: 0x49CDD4, symSize: 0x2F8 }
  - { offset: 0x89AA0C, size: 0x8, addend: 0x0, symName: __ZN5realm7create2INS_7GreaterEdfEENS_5QueryERKNS_8Subexpr2IT0_EERKNS3_IT1_EE, symObjAddr: 0x6FCC0, symBinAddr: 0x49BEFC, symSize: 0x2F8 }
  - { offset: 0x89B2A4, size: 0x8, addend: 0x0, symName: __ZN5realm7create2INS_12GreaterEqualEdfEENS_5QueryERKNS_8Subexpr2IT0_EERKNS3_IT1_EE, symObjAddr: 0x6FFB8, symBinAddr: 0x49C1F4, symSize: 0x2F8 }
  - { offset: 0x89BB3C, size: 0x8, addend: 0x0, symName: __ZN5realm7create2INS_8NotEqualENS_10Decimal128ENS_5MixedEEENS_5QueryERKNS_8Subexpr2IT0_EERKNS5_IT1_EE, symObjAddr: 0x71778, symBinAddr: 0x49D9B4, symSize: 0x2F8 }
  - { offset: 0x89C3D4, size: 0x8, addend: 0x0, symName: __ZN5realm7create2INS_9LessEqualEdfEENS_5QueryERKNS_8Subexpr2IT0_EERKNS3_IT1_EE, symObjAddr: 0x6F9C8, symBinAddr: 0x49BC04, symSize: 0x2F8 }
  - { offset: 0x89CC6C, size: 0x8, addend: 0x0, symName: __ZN5realm7create2INS_8NotEqualEdfEENS_5QueryERKNS_8Subexpr2IT0_EERKNS3_IT1_EE, symObjAddr: 0x705A8, symBinAddr: 0x49C7E4, symSize: 0x2F8 }
  - { offset: 0x89D504, size: 0x8, addend: 0x0, symName: __ZN5realm7create2INS_5EqualENS_10Decimal128ExEENS_5QueryERKNS_8Subexpr2IT0_EERKNS4_IT1_EE, symObjAddr: 0x7279C, symBinAddr: 0x49E9D8, symSize: 0x2F8 }
  - { offset: 0x89DD9C, size: 0x8, addend: 0x0, symName: __ZN5realm7create2INS_5EqualENS_10Decimal128EdEENS_5QueryERKNS_8Subexpr2IT0_EERKNS4_IT1_EE, symObjAddr: 0x74B3C, symBinAddr: 0x4A0D78, symSize: 0x2F8 }
  - { offset: 0x89E634, size: 0x8, addend: 0x0, symName: __ZN5realm7create2INS_5EqualENS_10Decimal128EfEENS_5QueryERKNS_8Subexpr2IT0_EERKNS4_IT1_EE, symObjAddr: 0x7396C, symBinAddr: 0x49FBA8, symSize: 0x2F8 }
  - { offset: 0x89EECC, size: 0x8, addend: 0x0, symName: __ZN5realm7create2INS_7GreaterENS_10Decimal128ExEENS_5QueryERKNS_8Subexpr2IT0_EERKNS4_IT1_EE, symObjAddr: 0x721AC, symBinAddr: 0x49E3E8, symSize: 0x2F8 }
  - { offset: 0x89F764, size: 0x8, addend: 0x0, symName: __ZN5realm7create2INS_7GreaterENS_10Decimal128EdEENS_5QueryERKNS_8Subexpr2IT0_EERKNS4_IT1_EE, symObjAddr: 0x7454C, symBinAddr: 0x4A0788, symSize: 0x2F8 }
  - { offset: 0x89FFFC, size: 0x8, addend: 0x0, symName: __ZN5realm7create2INS_7GreaterENS_10Decimal128EfEENS_5QueryERKNS_8Subexpr2IT0_EERKNS4_IT1_EE, symObjAddr: 0x7337C, symBinAddr: 0x49F5B8, symSize: 0x2F8 }
  - { offset: 0x8A0894, size: 0x8, addend: 0x0, symName: __ZN5realm7create2INS_12GreaterEqualENS_10Decimal128ExEENS_5QueryERKNS_8Subexpr2IT0_EERKNS4_IT1_EE, symObjAddr: 0x724A4, symBinAddr: 0x49E6E0, symSize: 0x2F8 }
  - { offset: 0x8A112C, size: 0x8, addend: 0x0, symName: __ZN5realm7create2INS_12GreaterEqualENS_10Decimal128EdEENS_5QueryERKNS_8Subexpr2IT0_EERKNS4_IT1_EE, symObjAddr: 0x74844, symBinAddr: 0x4A0A80, symSize: 0x2F8 }
  - { offset: 0x8A19C4, size: 0x8, addend: 0x0, symName: __ZN5realm7create2INS_9LessEqualENS_10Decimal128ExEENS_5QueryERKNS_8Subexpr2IT0_EERKNS4_IT1_EE, symObjAddr: 0x71EB4, symBinAddr: 0x49E0F0, symSize: 0x2F8 }
  - { offset: 0x8A225C, size: 0x8, addend: 0x0, symName: __ZN5realm7create2INS_9LessEqualENS_10Decimal128EdEENS_5QueryERKNS_8Subexpr2IT0_EERKNS4_IT1_EE, symObjAddr: 0x74254, symBinAddr: 0x4A0490, symSize: 0x2F8 }
  - { offset: 0x8A2AF4, size: 0x8, addend: 0x0, symName: __ZN5realm7create2INS_12GreaterEqualENS_10Decimal128EfEENS_5QueryERKNS_8Subexpr2IT0_EERKNS4_IT1_EE, symObjAddr: 0x73674, symBinAddr: 0x49F8B0, symSize: 0x2F8 }
  - { offset: 0x8A338C, size: 0x8, addend: 0x0, symName: __ZN5realm7create2INS_9LessEqualENS_10Decimal128EfEENS_5QueryERKNS_8Subexpr2IT0_EERKNS4_IT1_EE, symObjAddr: 0x73084, symBinAddr: 0x49F2C0, symSize: 0x2F8 }
  - { offset: 0x8A3C24, size: 0x8, addend: 0x0, symName: __ZN5realm7create2INS_8NotEqualENS_10Decimal128ExEENS_5QueryERKNS_8Subexpr2IT0_EERKNS4_IT1_EE, symObjAddr: 0x72A94, symBinAddr: 0x49ECD0, symSize: 0x2F8 }
  - { offset: 0x8A44BC, size: 0x8, addend: 0x0, symName: __ZN5realm7create2INS_8NotEqualENS_10Decimal128EdEENS_5QueryERKNS_8Subexpr2IT0_EERKNS4_IT1_EE, symObjAddr: 0x74E34, symBinAddr: 0x4A1070, symSize: 0x2F8 }
  - { offset: 0x8A4D54, size: 0x8, addend: 0x0, symName: __ZN5realm7create2INS_8NotEqualENS_10Decimal128EfEENS_5QueryERKNS_8Subexpr2IT0_EERKNS4_IT1_EE, symObjAddr: 0x73C64, symBinAddr: 0x49FEA0, symSize: 0x2F8 }
  - { offset: 0x8A5808, size: 0x8, addend: 0x0, symName: __ZN5realm7create2INS_4LessEdxEENS_5QueryERKNS_8Subexpr2IT0_EERKNS3_IT1_EE, symObjAddr: 0x79244, symBinAddr: 0x4A5480, symSize: 0x2F8 }
  - { offset: 0x8A60A0, size: 0x8, addend: 0x0, symName: __ZN5realm7create2INS_5EqualEdxEENS_5QueryERKNS_8Subexpr2IT0_EERKNS3_IT1_EE, symObjAddr: 0x79E24, symBinAddr: 0x4A6060, symSize: 0x2F8 }
  - { offset: 0x8A6938, size: 0x8, addend: 0x0, symName: __ZN5realm7create2INS_7GreaterEdxEENS_5QueryERKNS_8Subexpr2IT0_EERKNS3_IT1_EE, symObjAddr: 0x79834, symBinAddr: 0x4A5A70, symSize: 0x2F8 }
  - { offset: 0x8A71D0, size: 0x8, addend: 0x0, symName: __ZN5realm7create2INS_12GreaterEqualEdxEENS_5QueryERKNS_8Subexpr2IT0_EERKNS3_IT1_EE, symObjAddr: 0x79B2C, symBinAddr: 0x4A5D68, symSize: 0x2F8 }
  - { offset: 0x8A7A68, size: 0x8, addend: 0x0, symName: __ZN5realm7create2INS_9LessEqualEdxEENS_5QueryERKNS_8Subexpr2IT0_EERKNS3_IT1_EE, symObjAddr: 0x7953C, symBinAddr: 0x4A5778, symSize: 0x2F8 }
  - { offset: 0x8A8300, size: 0x8, addend: 0x0, symName: __ZN5realm7create2INS_8NotEqualEdxEENS_5QueryERKNS_8Subexpr2IT0_EERKNS3_IT1_EE, symObjAddr: 0x7A11C, symBinAddr: 0x4A6358, symSize: 0x2F8 }
  - { offset: 0x8A8BC5, size: 0x8, addend: 0x0, symName: __ZN5realm6createINS_8NotEqualEixEENS_5QueryET0_RKNS_8Subexpr2IT1_EE, symObjAddr: 0x7B9DC, symBinAddr: 0x4A7C18, symSize: 0x1B8 }
  - { offset: 0x8AA39E, size: 0x8, addend: 0x0, symName: __ZN5realm7create2INS_5EqualENS_4UUIDES2_EENS_5QueryERKNS_8Subexpr2IT0_EERKNS4_IT1_EE, symObjAddr: 0x922A0, symBinAddr: 0x4BE3C8, symSize: 0x2FC }
  - { offset: 0x8AAC36, size: 0x8, addend: 0x0, symName: __ZN5realm7create2INS_4LessENS_10BinaryDataES2_EENS_5QueryERKNS_8Subexpr2IT0_EERKNS4_IT1_EE, symObjAddr: 0x8F2C4, symBinAddr: 0x4BB3EC, symSize: 0x2FC }
  - { offset: 0x8AB4CE, size: 0x8, addend: 0x0, symName: __ZN5realm7create2INS_5EqualEbbEENS_5QueryERKNS_8Subexpr2IT0_EERKNS3_IT1_EE, symObjAddr: 0x8C660, symBinAddr: 0x4B8788, symSize: 0x2FC }
  - { offset: 0x8ABD66, size: 0x8, addend: 0x0, symName: __ZN5realm7create2INS_5EqualENS_8ObjectIdES2_EENS_5QueryERKNS_8Subexpr2IT0_EERKNS4_IT1_EE, symObjAddr: 0x8DE98, symBinAddr: 0x4B9FC0, symSize: 0x2FC }
  - { offset: 0x8AC5FE, size: 0x8, addend: 0x0, symName: __ZN5realm7create2INS_8NotEqualENS_4UUIDES2_EENS_5QueryERKNS_8Subexpr2IT0_EERKNS4_IT1_EE, symObjAddr: 0x925BC, symBinAddr: 0x4BE6E4, symSize: 0x2FC }
  - { offset: 0x8ACE96, size: 0x8, addend: 0x0, symName: __ZN5realm7create2INS_8NotEqualEbbEENS_5QueryERKNS_8Subexpr2IT0_EERKNS3_IT1_EE, symObjAddr: 0x8C97C, symBinAddr: 0x4B8AA4, symSize: 0x2FC }
  - { offset: 0x8AD72E, size: 0x8, addend: 0x0, symName: __ZN5realm7create2INS_8NotEqualENS_8ObjectIdES2_EENS_5QueryERKNS_8Subexpr2IT0_EERKNS4_IT1_EE, symObjAddr: 0x8E1B4, symBinAddr: 0x4BA2DC, symSize: 0x2FC }
  - { offset: 0x8ADFC6, size: 0x8, addend: 0x0, symName: __ZN5realm7create2INS_7GreaterENS_10BinaryDataES2_EENS_5QueryERKNS_8Subexpr2IT0_EERKNS4_IT1_EE, symObjAddr: 0x8F8DC, symBinAddr: 0x4BBA04, symSize: 0x2FC }
  - { offset: 0x8AE85E, size: 0x8, addend: 0x0, symName: __ZN5realm7create2INS_12GreaterEqualENS_10BinaryDataES2_EENS_5QueryERKNS_8Subexpr2IT0_EERKNS4_IT1_EE, symObjAddr: 0x8FBD8, symBinAddr: 0x4BBD00, symSize: 0x2FC }
  - { offset: 0x8AF0F6, size: 0x8, addend: 0x0, symName: __ZN5realm7create2INS_9LessEqualENS_10BinaryDataES2_EENS_5QueryERKNS_8Subexpr2IT0_EERKNS4_IT1_EE, symObjAddr: 0x8F5E0, symBinAddr: 0x4BB708, symSize: 0x2FC }
  - { offset: 0x8AFDA8, size: 0x8, addend: 0x0, symName: __ZN5realm6createINS_5EqualENS_4nullEbEENS_5QueryET0_RKNS_8Subexpr2IT1_EE, symObjAddr: 0x8C35C, symBinAddr: 0x4B8484, symSize: 0x11C }
  - { offset: 0x8B0379, size: 0x8, addend: 0x0, symName: __ZN5realm6createINS_8NotEqualENS_4nullEbEENS_5QueryET0_RKNS_8Subexpr2IT1_EE, symObjAddr: 0x8C478, symBinAddr: 0x4B85A0, symSize: 0x11C }
  - { offset: 0x8B0981, size: 0x8, addend: 0x0, symName: __ZN5realm6createINS_5EqualENS_4nullENS_8ObjectIdEEENS_5QueryET0_RKNS_8Subexpr2IT1_EE, symObjAddr: 0x8DBA4, symBinAddr: 0x4B9CCC, symSize: 0x11C }
  - { offset: 0x8B0F52, size: 0x8, addend: 0x0, symName: __ZN5realm6createINS_8NotEqualENS_4nullENS_8ObjectIdEEENS_5QueryET0_RKNS_8Subexpr2IT1_EE, symObjAddr: 0x8DCC0, symBinAddr: 0x4B9DE8, symSize: 0x11C }
  - { offset: 0x8B1A37, size: 0x8, addend: 0x0, symName: __ZN5realm6createINS_5EqualENS_4nullENS_4UUIDEEENS_5QueryET0_RKNS_8Subexpr2IT1_EE, symObjAddr: 0x91FAC, symBinAddr: 0x4BE0D4, symSize: 0x11C }
  - { offset: 0x8B2008, size: 0x8, addend: 0x0, symName: __ZN5realm6createINS_8NotEqualENS_4nullENS_4UUIDEEENS_5QueryET0_RKNS_8Subexpr2IT1_EE, symObjAddr: 0x920C8, symBinAddr: 0x4BE1F0, symSize: 0x11C }
  - { offset: 0x8B271E, size: 0x8, addend: 0x0, symName: __ZN5realm12make_subexprINS_19ConstantStringValueEJNS_10StringDataEEEENSt3__110unique_ptrINS_7SubexprENS3_14default_deleteIS5_EEEEDpOT0_, symObjAddr: 0x947FC, symBinAddr: 0x4C059C, symSize: 0x54 }
  - { offset: 0x8B2841, size: 0x8, addend: 0x0, symName: __ZN5realm6createINS_12GreaterEqualENS_5MixedES2_EENS_5QueryET0_RKNS_8Subexpr2IT1_EE, symObjAddr: 0x93C84, symBinAddr: 0x4BFDAC, symSize: 0x1B8 }
  - { offset: 0x8B32E6, size: 0x8, addend: 0x0, symName: __ZN5realm6createINS_7GreaterENS_5MixedES2_EENS_5QueryET0_RKNS_8Subexpr2IT1_EE, symObjAddr: 0x93ACC, symBinAddr: 0x4BFBF4, symSize: 0x1B8 }
  - { offset: 0x8B3990, size: 0x8, addend: 0x0, symName: __ZN5realm6createINS_9LessEqualENS_5MixedES2_EENS_5QueryET0_RKNS_8Subexpr2IT1_EE, symObjAddr: 0x93FF4, symBinAddr: 0x4C011C, symSize: 0x1B8 }
  - { offset: 0x8B403A, size: 0x8, addend: 0x0, symName: __ZN5realm6createINS_4LessENS_5MixedES2_EENS_5QueryET0_RKNS_8Subexpr2IT1_EE, symObjAddr: 0x93E3C, symBinAddr: 0x4BFF64, symSize: 0x1B8 }
  - { offset: 0x8B4BCB, size: 0x8, addend: 0x0, symName: __ZN5realm6createINS_4LessEixEENS_5QueryET0_RKNS_8Subexpr2IT1_EE, symObjAddr: 0xB9868, symBinAddr: 0x4E5608, symSize: 0x1B0 }
  - { offset: 0x8B5E25, size: 0x8, addend: 0x0, symName: __ZN5realm6createINS_7GreaterENS_10BinaryDataES2_EENS_5QueryET0_RKNS_8Subexpr2IT1_EE, symObjAddr: 0xBB9FC, symBinAddr: 0x4E76B0, symSize: 0x1CC }
  - { offset: 0x8B6411, size: 0x8, addend: 0x0, symName: __ZN5realm6createINS_7GreaterENS_10Decimal128ES2_EENS_5QueryET0_RKNS_8Subexpr2IT1_EE, symObjAddr: 0xA2DB0, symBinAddr: 0x4CEB50, symSize: 0x104 }
  - { offset: 0x8B6893, size: 0x8, addend: 0x0, symName: __ZN5realm6createINS_7GreaterENS_9TimestampES2_EENS_5QueryET0_RKNS_8Subexpr2IT1_EE, symObjAddr: 0xA3450, symBinAddr: 0x4CF1F0, symSize: 0x1B4 }
  - { offset: 0x8B6E46, size: 0x8, addend: 0x0, symName: __ZN5realm6createINS_5EqualENS_4UUIDES2_EENS_5QueryET0_RKNS_8Subexpr2IT1_EE, symObjAddr: 0xBD584, symBinAddr: 0x4E9238, symSize: 0x1CC }
  - { offset: 0x8B7536, size: 0x8, addend: 0x0, symName: __ZN5realm6createINS_5EqualEbbEENS_5QueryET0_RKNS_8Subexpr2IT1_EE, symObjAddr: 0xBB218, symBinAddr: 0x4E6ECC, symSize: 0x1BC }
  - { offset: 0x8B7C33, size: 0x8, addend: 0x0, symName: __ZN5realm6createINS_7GreaterEffEENS_5QueryET0_RKNS_8Subexpr2IT1_EE, symObjAddr: 0xA18D8, symBinAddr: 0x4CD678, symSize: 0x1A8 }
  - { offset: 0x8B81E6, size: 0x8, addend: 0x0, symName: __ZN5realm6createINS_7GreaterEddEENS_5QueryET0_RKNS_8Subexpr2IT1_EE, symObjAddr: 0xA2344, symBinAddr: 0x4CE0E4, symSize: 0x1A8 }
  - { offset: 0x8B8799, size: 0x8, addend: 0x0, symName: __ZN5realm6createINS_5EqualENS_8ObjectIdES2_EENS_5QueryET0_RKNS_8Subexpr2IT1_EE, symObjAddr: 0xBB590, symBinAddr: 0x4E7244, symSize: 0x1D0 }
  - { offset: 0x8B8E93, size: 0x8, addend: 0x0, symName: __ZN5realm6createINS_8NotEqualENS_4UUIDES2_EENS_5QueryET0_RKNS_8Subexpr2IT1_EE, symObjAddr: 0xBD750, symBinAddr: 0x4E9404, symSize: 0x1CC }
  - { offset: 0x8B9583, size: 0x8, addend: 0x0, symName: __ZN5realm6createINS_8NotEqualEbbEENS_5QueryET0_RKNS_8Subexpr2IT1_EE, symObjAddr: 0xBB3D4, symBinAddr: 0x4E7088, symSize: 0x1BC }
  - { offset: 0x8B9C80, size: 0x8, addend: 0x0, symName: __ZN5realm6createINS_8NotEqualENS_8ObjectIdES2_EENS_5QueryET0_RKNS_8Subexpr2IT1_EE, symObjAddr: 0xBB760, symBinAddr: 0x4E7414, symSize: 0x1D0 }
  - { offset: 0x8BA37A, size: 0x8, addend: 0x0, symName: __ZN5realm6createINS_5EqualENS_10Decimal128ES2_EENS_5QueryET0_RKNS_8Subexpr2IT1_EE, symObjAddr: 0xA3238, symBinAddr: 0x4CEFD8, symSize: 0x10C }
  - { offset: 0x8BA7FC, size: 0x8, addend: 0x0, symName: __ZN5realm6createINS_5EqualENS_9TimestampES2_EENS_5QueryET0_RKNS_8Subexpr2IT1_EE, symObjAddr: 0xA3B90, symBinAddr: 0x4CF930, symSize: 0x1BC }
  - { offset: 0x8BADAF, size: 0x8, addend: 0x0, symName: __ZN5realm6createINS_4LessENS_10Decimal128ES2_EENS_5QueryET0_RKNS_8Subexpr2IT1_EE, symObjAddr: 0xA3030, symBinAddr: 0x4CEDD0, symSize: 0x104 }
  - { offset: 0x8BB231, size: 0x8, addend: 0x0, symName: __ZN5realm6createINS_9LessEqualENS_10Decimal128ES2_EENS_5QueryET0_RKNS_8Subexpr2IT1_EE, symObjAddr: 0xA3134, symBinAddr: 0x4CEED4, symSize: 0x104 }
  - { offset: 0x8BB6B3, size: 0x8, addend: 0x0, symName: __ZN5realm6createINS_4LessENS_9TimestampES2_EENS_5QueryET0_RKNS_8Subexpr2IT1_EE, symObjAddr: 0xA3828, symBinAddr: 0x4CF5C8, symSize: 0x1B4 }
  - { offset: 0x8BBC66, size: 0x8, addend: 0x0, symName: __ZN5realm6createINS_12GreaterEqualENS_10Decimal128ES2_EENS_5QueryET0_RKNS_8Subexpr2IT1_EE, symObjAddr: 0xA2F2C, symBinAddr: 0x4CECCC, symSize: 0x104 }
  - { offset: 0x8BC0E8, size: 0x8, addend: 0x0, symName: __ZN5realm6createINS_9LessEqualENS_9TimestampES2_EENS_5QueryET0_RKNS_8Subexpr2IT1_EE, symObjAddr: 0xA39DC, symBinAddr: 0x4CF77C, symSize: 0x1B4 }
  - { offset: 0x8BC69B, size: 0x8, addend: 0x0, symName: __ZN5realm6createINS_12GreaterEqualENS_9TimestampES2_EENS_5QueryET0_RKNS_8Subexpr2IT1_EE, symObjAddr: 0xA3674, symBinAddr: 0x4CF414, symSize: 0x1B4 }
  - { offset: 0x8BCC4E, size: 0x8, addend: 0x0, symName: __ZN5realm6createINS_8NotEqualENS_10Decimal128ES2_EENS_5QueryET0_RKNS_8Subexpr2IT1_EE, symObjAddr: 0xA3344, symBinAddr: 0x4CF0E4, symSize: 0x10C }
  - { offset: 0x8BD0D0, size: 0x8, addend: 0x0, symName: __ZN5realm6createINS_8NotEqualENS_9TimestampES2_EENS_5QueryET0_RKNS_8Subexpr2IT1_EE, symObjAddr: 0xA3D4C, symBinAddr: 0x4CFAEC, symSize: 0x1BC }
  - { offset: 0x8BD683, size: 0x8, addend: 0x0, symName: __ZN5realm6createINS_5EqualEffEENS_5QueryET0_RKNS_8Subexpr2IT1_EE, symObjAddr: 0xA1FE4, symBinAddr: 0x4CDD84, symSize: 0x1B0 }
  - { offset: 0x8BDC36, size: 0x8, addend: 0x0, symName: __ZN5realm6createINS_5EqualEddEENS_5QueryET0_RKNS_8Subexpr2IT1_EE, symObjAddr: 0xA2A50, symBinAddr: 0x4CE7F0, symSize: 0x1B0 }
  - { offset: 0x8BE1E9, size: 0x8, addend: 0x0, symName: __ZN5realm6createINS_4LessEffEENS_5QueryET0_RKNS_8Subexpr2IT1_EE, symObjAddr: 0xA1C94, symBinAddr: 0x4CDA34, symSize: 0x1A8 }
  - { offset: 0x8BE79C, size: 0x8, addend: 0x0, symName: __ZN5realm6createINS_4LessEddEENS_5QueryET0_RKNS_8Subexpr2IT1_EE, symObjAddr: 0xA2700, symBinAddr: 0x4CE4A0, symSize: 0x1A8 }
  - { offset: 0x8BED4F, size: 0x8, addend: 0x0, symName: __ZN5realm6createINS_9LessEqualEffEENS_5QueryET0_RKNS_8Subexpr2IT1_EE, symObjAddr: 0xA1E3C, symBinAddr: 0x4CDBDC, symSize: 0x1A8 }
  - { offset: 0x8BF302, size: 0x8, addend: 0x0, symName: __ZN5realm6createINS_9LessEqualEddEENS_5QueryET0_RKNS_8Subexpr2IT1_EE, symObjAddr: 0xA28A8, symBinAddr: 0x4CE648, symSize: 0x1A8 }
  - { offset: 0x8BF8B5, size: 0x8, addend: 0x0, symName: __ZN5realm6createINS_12GreaterEqualEffEENS_5QueryET0_RKNS_8Subexpr2IT1_EE, symObjAddr: 0xA1AEC, symBinAddr: 0x4CD88C, symSize: 0x1A8 }
  - { offset: 0x8BFE68, size: 0x8, addend: 0x0, symName: __ZN5realm6createINS_12GreaterEqualEddEENS_5QueryET0_RKNS_8Subexpr2IT1_EE, symObjAddr: 0xA2558, symBinAddr: 0x4CE2F8, symSize: 0x1A8 }
  - { offset: 0x8C041B, size: 0x8, addend: 0x0, symName: __ZN5realm6createINS_8NotEqualEffEENS_5QueryET0_RKNS_8Subexpr2IT1_EE, symObjAddr: 0xA2194, symBinAddr: 0x4CDF34, symSize: 0x1B0 }
  - { offset: 0x8C09CE, size: 0x8, addend: 0x0, symName: __ZN5realm6createINS_8NotEqualEddEENS_5QueryET0_RKNS_8Subexpr2IT1_EE, symObjAddr: 0xA2C00, symBinAddr: 0x4CE9A0, symSize: 0x1B0 }
  - { offset: 0x8C0F81, size: 0x8, addend: 0x0, symName: __ZN5realm6createINS_4LessENS_10BinaryDataES2_EENS_5QueryET0_RKNS_8Subexpr2IT1_EE, symObjAddr: 0xBBDF4, symBinAddr: 0x4E7AA8, symSize: 0x1CC }
  - { offset: 0x8C156D, size: 0x8, addend: 0x0, symName: __ZN5realm6createINS_9LessEqualENS_10BinaryDataES2_EENS_5QueryET0_RKNS_8Subexpr2IT1_EE, symObjAddr: 0xBBFC0, symBinAddr: 0x4E7C74, symSize: 0x1CC }
  - { offset: 0x8C1B59, size: 0x8, addend: 0x0, symName: __ZN5realm6createINS_12GreaterEqualENS_10BinaryDataES2_EENS_5QueryET0_RKNS_8Subexpr2IT1_EE, symObjAddr: 0xBBC28, symBinAddr: 0x4E78DC, symSize: 0x1CC }
  - { offset: 0x8C26C2, size: 0x8, addend: 0x0, symName: __ZN5realm6createINS_7GreaterExNS_5MixedEEENS_5QueryET0_RKNS_8Subexpr2IT1_EE, symObjAddr: 0xA40A4, symBinAddr: 0x4CFE44, symSize: 0x1C0 }
  - { offset: 0x8C2DF0, size: 0x8, addend: 0x0, symName: __ZN5realm6createINS_7GreaterENS_9TimestampENS_5MixedEEENS_5QueryET0_RKNS_8Subexpr2IT1_EE, symObjAddr: 0xA6CB4, symBinAddr: 0x4D2A54, symSize: 0x1DC }
  - { offset: 0x8C33F5, size: 0x8, addend: 0x0, symName: __ZN5realm6createINS_7GreaterENS_10Decimal128ENS_5MixedEEENS_5QueryET0_RKNS_8Subexpr2IT1_EE, symObjAddr: 0xA615C, symBinAddr: 0x4D1EFC, symSize: 0x1E0 }
  - { offset: 0x8C39F0, size: 0x8, addend: 0x0, symName: __ZN5realm6createINS_7GreaterEfNS_5MixedEEENS_5QueryET0_RKNS_8Subexpr2IT1_EE, symObjAddr: 0xA4B3C, symBinAddr: 0x4D08DC, symSize: 0x1D4 }
  - { offset: 0x8C4009, size: 0x8, addend: 0x0, symName: __ZN5realm6createINS_7GreaterEdNS_5MixedEEENS_5QueryET0_RKNS_8Subexpr2IT1_EE, symObjAddr: 0xA564C, symBinAddr: 0x4D13EC, symSize: 0x1D4 }
  - { offset: 0x8C4626, size: 0x8, addend: 0x0, symName: __ZN5realm6createINS_5EqualENS_9TimestampENS_5MixedEEENS_5QueryET0_RKNS_8Subexpr2IT1_EE, symObjAddr: 0xA7424, symBinAddr: 0x4D31C4, symSize: 0x1E8 }
  - { offset: 0x8C4C2B, size: 0x8, addend: 0x0, symName: __ZN5realm6createINS_5EqualExNS_5MixedEEENS_5QueryET0_RKNS_8Subexpr2IT1_EE, symObjAddr: 0xA47A4, symBinAddr: 0x4D0544, symSize: 0x1CC }
  - { offset: 0x8C5359, size: 0x8, addend: 0x0, symName: __ZN5realm6createINS_5EqualENS_10Decimal128ENS_5MixedEEENS_5QueryET0_RKNS_8Subexpr2IT1_EE, symObjAddr: 0xA68DC, symBinAddr: 0x4D267C, symSize: 0x1EC }
  - { offset: 0x8C5954, size: 0x8, addend: 0x0, symName: __ZN5realm6createINS_5EqualEfNS_5MixedEEENS_5QueryET0_RKNS_8Subexpr2IT1_EE, symObjAddr: 0xA528C, symBinAddr: 0x4D102C, symSize: 0x1E0 }
  - { offset: 0x8C5F6D, size: 0x8, addend: 0x0, symName: __ZN5realm6createINS_4LessENS_9TimestampENS_5MixedEEENS_5QueryET0_RKNS_8Subexpr2IT1_EE, symObjAddr: 0xA706C, symBinAddr: 0x4D2E0C, symSize: 0x1DC }
  - { offset: 0x8C6572, size: 0x8, addend: 0x0, symName: __ZN5realm6createINS_4LessExNS_5MixedEEENS_5QueryET0_RKNS_8Subexpr2IT1_EE, symObjAddr: 0xA4424, symBinAddr: 0x4D01C4, symSize: 0x1C0 }
  - { offset: 0x8C6CA0, size: 0x8, addend: 0x0, symName: __ZN5realm6createINS_5EqualEdNS_5MixedEEENS_5QueryET0_RKNS_8Subexpr2IT1_EE, symObjAddr: 0xA5D9C, symBinAddr: 0x4D1B3C, symSize: 0x1E0 }
  - { offset: 0x8C72BD, size: 0x8, addend: 0x0, symName: __ZN5realm6createINS_4LessENS_10Decimal128ENS_5MixedEEENS_5QueryET0_RKNS_8Subexpr2IT1_EE, symObjAddr: 0xA651C, symBinAddr: 0x4D22BC, symSize: 0x1E0 }
  - { offset: 0x8C78B8, size: 0x8, addend: 0x0, symName: __ZN5realm6createINS_9LessEqualENS_9TimestampENS_5MixedEEENS_5QueryET0_RKNS_8Subexpr2IT1_EE, symObjAddr: 0xA7248, symBinAddr: 0x4D2FE8, symSize: 0x1DC }
  - { offset: 0x8C7EBD, size: 0x8, addend: 0x0, symName: __ZN5realm6createINS_9LessEqualExNS_5MixedEEENS_5QueryET0_RKNS_8Subexpr2IT1_EE, symObjAddr: 0xA45E4, symBinAddr: 0x4D0384, symSize: 0x1C0 }
  - { offset: 0x8C85EB, size: 0x8, addend: 0x0, symName: __ZN5realm6createINS_4LessEfNS_5MixedEEENS_5QueryET0_RKNS_8Subexpr2IT1_EE, symObjAddr: 0xA4EE4, symBinAddr: 0x4D0C84, symSize: 0x1D4 }
  - { offset: 0x8C8C04, size: 0x8, addend: 0x0, symName: __ZN5realm6createINS_12GreaterEqualENS_9TimestampENS_5MixedEEENS_5QueryET0_RKNS_8Subexpr2IT1_EE, symObjAddr: 0xA6E90, symBinAddr: 0x4D2C30, symSize: 0x1DC }
  - { offset: 0x8C9209, size: 0x8, addend: 0x0, symName: __ZN5realm6createINS_12GreaterEqualExNS_5MixedEEENS_5QueryET0_RKNS_8Subexpr2IT1_EE, symObjAddr: 0xA4264, symBinAddr: 0x4D0004, symSize: 0x1C0 }
  - { offset: 0x8C9937, size: 0x8, addend: 0x0, symName: __ZN5realm6createINS_9LessEqualENS_10Decimal128ENS_5MixedEEENS_5QueryET0_RKNS_8Subexpr2IT1_EE, symObjAddr: 0xA66FC, symBinAddr: 0x4D249C, symSize: 0x1E0 }
  - { offset: 0x8C9F32, size: 0x8, addend: 0x0, symName: __ZN5realm6createINS_4LessEdNS_5MixedEEENS_5QueryET0_RKNS_8Subexpr2IT1_EE, symObjAddr: 0xA59F4, symBinAddr: 0x4D1794, symSize: 0x1D4 }
  - { offset: 0x8CA54F, size: 0x8, addend: 0x0, symName: __ZN5realm6createINS_12GreaterEqualENS_10Decimal128ENS_5MixedEEENS_5QueryET0_RKNS_8Subexpr2IT1_EE, symObjAddr: 0xA633C, symBinAddr: 0x4D20DC, symSize: 0x1E0 }
  - { offset: 0x8CAB4A, size: 0x8, addend: 0x0, symName: __ZN5realm6createINS_9LessEqualEfNS_5MixedEEENS_5QueryET0_RKNS_8Subexpr2IT1_EE, symObjAddr: 0xA50B8, symBinAddr: 0x4D0E58, symSize: 0x1D4 }
  - { offset: 0x8CB163, size: 0x8, addend: 0x0, symName: __ZN5realm6createINS_9LessEqualEdNS_5MixedEEENS_5QueryET0_RKNS_8Subexpr2IT1_EE, symObjAddr: 0xA5BC8, symBinAddr: 0x4D1968, symSize: 0x1D4 }
  - { offset: 0x8CB780, size: 0x8, addend: 0x0, symName: __ZN5realm6createINS_8NotEqualENS_9TimestampENS_5MixedEEENS_5QueryET0_RKNS_8Subexpr2IT1_EE, symObjAddr: 0xA760C, symBinAddr: 0x4D33AC, symSize: 0x1E8 }
  - { offset: 0x8CBD85, size: 0x8, addend: 0x0, symName: __ZN5realm6createINS_8NotEqualExNS_5MixedEEENS_5QueryET0_RKNS_8Subexpr2IT1_EE, symObjAddr: 0xA4970, symBinAddr: 0x4D0710, symSize: 0x1CC }
